
Voltage_Monitor_MSS_CM3_0_app:     file format elf32-littlearm

Sections:
Idx Name          Size      VMA       LMA       File off  Algn
  0 .text         00007c00  20000000  20000000  00008000  2**4
                  CONTENTS, ALLOC, LOAD, READONLY, CODE
  1 .ARM.exidx    00000008  20007c00  20007c00  0000fc00  2**2
                  CONTENTS, ALLOC, LOAD, READONLY, DATA
  2 .data         00000578  20007c08  20007c08  0000fc08  2**2
                  CONTENTS, ALLOC, LOAD, DATA
  3 .bss          000003c8  20008180  20008180  00010180  2**2
                  ALLOC
  4 .stack        00003000  20008548  20008548  00010180  2**0
                  ALLOC
  5 .comment      00000183  00000000  00000000  00010180  2**0
                  CONTENTS, READONLY
  6 .debug_aranges 000005b8  00000000  00000000  00010303  2**0
                  CONTENTS, READONLY, DEBUGGING
  7 .debug_pubnames 0000114b  00000000  00000000  000108bb  2**0
                  CONTENTS, READONLY, DEBUGGING
  8 .debug_info   0000a974  00000000  00000000  00011a06  2**0
                  CONTENTS, READONLY, DEBUGGING
  9 .debug_abbrev 00000dff  00000000  00000000  0001c37a  2**0
                  CONTENTS, READONLY, DEBUGGING
 10 .debug_line   00002d4b  00000000  00000000  0001d179  2**0
                  CONTENTS, READONLY, DEBUGGING
 11 .debug_frame  00001bf0  00000000  00000000  0001fec4  2**2
                  CONTENTS, READONLY, DEBUGGING
 12 .debug_str    0000443b  00000000  00000000  00021ab4  2**0
                  CONTENTS, READONLY, DEBUGGING
 13 .debug_loc    0000204b  00000000  00000000  00025eef  2**0
                  CONTENTS, READONLY, DEBUGGING
 14 .debug_macinfo 000359a1  00000000  00000000  00027f3a  2**0
                  CONTENTS, READONLY, DEBUGGING
 15 .ARM.attributes 00000025  00000000  00000000  0005d8db  2**0
                  CONTENTS, READONLY
 16 .debug_ranges 00000578  00000000  00000000  0005d900  2**0
                  CONTENTS, READONLY, DEBUGGING

Disassembly of section .text:

20000000 <__text_start>:
20000000:	20010000 	.word	0x20010000
20000004:	20000299 	.word	0x20000299
20000008:	20000309 	.word	0x20000309
2000000c:	2000030b 	.word	0x2000030b
20000010:	2000030d 	.word	0x2000030d
20000014:	2000030f 	.word	0x2000030f
20000018:	20000311 	.word	0x20000311
	...
2000002c:	20000313 	.word	0x20000313
20000030:	20000315 	.word	0x20000315
20000034:	00000000 	.word	0x00000000
20000038:	20000317 	.word	0x20000317
2000003c:	20000319 	.word	0x20000319
20000040:	2000031b 	.word	0x2000031b
20000044:	2000031d 	.word	0x2000031d
20000048:	2000031f 	.word	0x2000031f
2000004c:	20000321 	.word	0x20000321
20000050:	20000323 	.word	0x20000323
20000054:	20000325 	.word	0x20000325
20000058:	20000327 	.word	0x20000327
2000005c:	20000329 	.word	0x20000329
20000060:	2000032b 	.word	0x2000032b
20000064:	2000032d 	.word	0x2000032d
20000068:	20000d75 	.word	0x20000d75
2000006c:	20000da1 	.word	0x20000da1
20000070:	20000333 	.word	0x20000333
20000074:	20000335 	.word	0x20000335
20000078:	20000337 	.word	0x20000337
2000007c:	20000339 	.word	0x20000339
20000080:	2000033b 	.word	0x2000033b
20000084:	2000033d 	.word	0x2000033d
20000088:	2000033f 	.word	0x2000033f
2000008c:	20000341 	.word	0x20000341
20000090:	20000343 	.word	0x20000343
20000094:	20000345 	.word	0x20000345
20000098:	20000347 	.word	0x20000347
2000009c:	20000349 	.word	0x20000349
200000a0:	2000034b 	.word	0x2000034b
	...
200000bc:	2000034d 	.word	0x2000034d
200000c0:	2000034f 	.word	0x2000034f
200000c4:	20000351 	.word	0x20000351
200000c8:	20000353 	.word	0x20000353
200000cc:	20000355 	.word	0x20000355
200000d0:	20000357 	.word	0x20000357
200000d4:	20000359 	.word	0x20000359
200000d8:	2000035b 	.word	0x2000035b
200000dc:	2000035d 	.word	0x2000035d
200000e0:	2000035f 	.word	0x2000035f
200000e4:	20000361 	.word	0x20000361
200000e8:	20000363 	.word	0x20000363
200000ec:	20000365 	.word	0x20000365
200000f0:	20000367 	.word	0x20000367
200000f4:	20000369 	.word	0x20000369
200000f8:	2000036b 	.word	0x2000036b
200000fc:	2000036d 	.word	0x2000036d
20000100:	2000036f 	.word	0x2000036f
20000104:	20000371 	.word	0x20000371
20000108:	20000373 	.word	0x20000373
2000010c:	20000375 	.word	0x20000375
20000110:	20000377 	.word	0x20000377
20000114:	20000379 	.word	0x20000379
20000118:	2000037b 	.word	0x2000037b
2000011c:	2000037d 	.word	0x2000037d
20000120:	2000037f 	.word	0x2000037f
20000124:	20000381 	.word	0x20000381
20000128:	20000383 	.word	0x20000383
2000012c:	20000385 	.word	0x20000385
20000130:	20000387 	.word	0x20000387
20000134:	20000389 	.word	0x20000389
20000138:	2000038b 	.word	0x2000038b
2000013c:	2000038d 	.word	0x2000038d
20000140:	2000038f 	.word	0x2000038f
20000144:	20000391 	.word	0x20000391
20000148:	20000393 	.word	0x20000393
2000014c:	20000395 	.word	0x20000395
20000150:	20000397 	.word	0x20000397
20000154:	20000399 	.word	0x20000399
20000158:	2000039b 	.word	0x2000039b
2000015c:	2000039d 	.word	0x2000039d
20000160:	2000039f 	.word	0x2000039f
20000164:	200003a1 	.word	0x200003a1
20000168:	200003a3 	.word	0x200003a3
2000016c:	200003a5 	.word	0x200003a5
20000170:	200003a7 	.word	0x200003a7
20000174:	200003a9 	.word	0x200003a9
20000178:	200003ab 	.word	0x200003ab
2000017c:	200003ad 	.word	0x200003ad
20000180:	200003af 	.word	0x200003af
20000184:	200003b1 	.word	0x200003b1
20000188:	200003b3 	.word	0x200003b3
2000018c:	200003b5 	.word	0x200003b5
20000190:	200003b7 	.word	0x200003b7
20000194:	200003b9 	.word	0x200003b9
20000198:	200003bb 	.word	0x200003bb
2000019c:	200003bd 	.word	0x200003bd
200001a0:	200003bf 	.word	0x200003bf
200001a4:	200003c1 	.word	0x200003c1
200001a8:	200003c3 	.word	0x200003c3
200001ac:	200003c5 	.word	0x200003c5
200001b0:	200003c7 	.word	0x200003c7
200001b4:	200003c9 	.word	0x200003c9
200001b8:	200003cb 	.word	0x200003cb
200001bc:	200003cd 	.word	0x200003cd
200001c0:	200003cf 	.word	0x200003cf
200001c4:	200003d1 	.word	0x200003d1
200001c8:	200003d3 	.word	0x200003d3
200001cc:	200003d5 	.word	0x200003d5
200001d0:	200003d7 	.word	0x200003d7
200001d4:	200003d9 	.word	0x200003d9
200001d8:	200003db 	.word	0x200003db
200001dc:	200003dd 	.word	0x200003dd
200001e0:	200003df 	.word	0x200003df
200001e4:	200003e1 	.word	0x200003e1
200001e8:	200003e3 	.word	0x200003e3
200001ec:	200003e5 	.word	0x200003e5
200001f0:	200003e7 	.word	0x200003e7
200001f4:	200003e9 	.word	0x200003e9
200001f8:	200003eb 	.word	0x200003eb
200001fc:	200003ed 	.word	0x200003ed
20000200:	200003ef 	.word	0x200003ef
20000204:	200003f1 	.word	0x200003f1
20000208:	200003f3 	.word	0x200003f3
2000020c:	200003f5 	.word	0x200003f5
20000210:	200003f7 	.word	0x200003f7
20000214:	200003f9 	.word	0x200003f9
20000218:	200014a5 	.word	0x200014a5
2000021c:	200014cd 	.word	0x200014cd
20000220:	200014f5 	.word	0x200014f5
20000224:	2000151d 	.word	0x2000151d
20000228:	20001545 	.word	0x20001545
2000022c:	2000156d 	.word	0x2000156d
20000230:	20001595 	.word	0x20001595
20000234:	200015bd 	.word	0x200015bd
20000238:	200015e5 	.word	0x200015e5
2000023c:	2000160d 	.word	0x2000160d
20000240:	20001635 	.word	0x20001635
20000244:	2000165d 	.word	0x2000165d
20000248:	20001685 	.word	0x20001685
2000024c:	200016ad 	.word	0x200016ad
20000250:	200016d5 	.word	0x200016d5
20000254:	200016fd 	.word	0x200016fd
20000258:	20001725 	.word	0x20001725
2000025c:	2000174d 	.word	0x2000174d
20000260:	20001775 	.word	0x20001775
20000264:	2000179d 	.word	0x2000179d
20000268:	200017c5 	.word	0x200017c5
2000026c:	200017ed 	.word	0x200017ed
20000270:	20001815 	.word	0x20001815
20000274:	2000183d 	.word	0x2000183d
20000278:	20001865 	.word	0x20001865
2000027c:	2000188d 	.word	0x2000188d
20000280:	200018b5 	.word	0x200018b5
20000284:	200018dd 	.word	0x200018dd
20000288:	20001905 	.word	0x20001905
2000028c:	2000192d 	.word	0x2000192d
20000290:	20001955 	.word	0x20001955
20000294:	2000197d 	.word	0x2000197d

20000298 <Reset_Handler>:
20000298:	4868      	ldr	r0, [pc, #416]	; (2000043c <ACE_ADC2_FifoEmpty_IRQHandler+0x44>)
2000029a:	4780      	blx	r0
2000029c:	4868      	ldr	r0, [pc, #416]	; (20000440 <ACE_ADC2_FifoEmpty_IRQHandler+0x48>)
2000029e:	2800      	cmp	r0, #0
200002a0:	d10b      	bne.n	200002ba <copy_data>
200002a2:	4868      	ldr	r0, [pc, #416]	; (20000444 <ACE_ADC2_FifoEmpty_IRQHandler+0x4c>)
200002a4:	4968      	ldr	r1, [pc, #416]	; (20000448 <ACE_ADC2_FifoEmpty_IRQHandler+0x50>)
200002a6:	4a69      	ldr	r2, [pc, #420]	; (2000044c <ACE_ADC2_FifoEmpty_IRQHandler+0x54>)
200002a8:	4288      	cmp	r0, r1
200002aa:	d006      	beq.n	200002ba <copy_data>

200002ac <copy_code_loop>:
200002ac:	4291      	cmp	r1, r2
200002ae:	bf1c      	itt	ne
200002b0:	f850 3b04 	ldrne.w	r3, [r0], #4
200002b4:	f841 3b04 	strne.w	r3, [r1], #4
200002b8:	d1f8      	bne.n	200002ac <copy_code_loop>

200002ba <copy_data>:
200002ba:	4865      	ldr	r0, [pc, #404]	; (20000450 <ACE_ADC2_FifoEmpty_IRQHandler+0x58>)
200002bc:	4965      	ldr	r1, [pc, #404]	; (20000454 <ACE_ADC2_FifoEmpty_IRQHandler+0x5c>)
200002be:	4a66      	ldr	r2, [pc, #408]	; (20000458 <ACE_ADC2_FifoEmpty_IRQHandler+0x60>)
200002c0:	4288      	cmp	r0, r1
200002c2:	d006      	beq.n	200002d2 <clear_bss>

200002c4 <copy_data_loop>:
200002c4:	4291      	cmp	r1, r2
200002c6:	bf1c      	itt	ne
200002c8:	f850 3b04 	ldrne.w	r3, [r0], #4
200002cc:	f841 3b04 	strne.w	r3, [r1], #4
200002d0:	d1f8      	bne.n	200002c4 <copy_data_loop>

200002d2 <clear_bss>:
200002d2:	4862      	ldr	r0, [pc, #392]	; (2000045c <ACE_ADC2_FifoEmpty_IRQHandler+0x64>)
200002d4:	4962      	ldr	r1, [pc, #392]	; (20000460 <ACE_ADC2_FifoEmpty_IRQHandler+0x68>)
200002d6:	4a63      	ldr	r2, [pc, #396]	; (20000464 <ACE_ADC2_FifoEmpty_IRQHandler+0x6c>)

200002d8 <clear_bss_loop>:
200002d8:	4291      	cmp	r1, r2
200002da:	bf18      	it	ne
200002dc:	f841 0b04 	strne.w	r0, [r1], #4
200002e0:	d1fa      	bne.n	200002d8 <clear_bss_loop>
	...

200002f0 <call_glob_ctor>:
200002f0:	f8df 0174 	ldr.w	r0, [pc, #372]	; 20000468 <ACE_ADC2_FifoEmpty_IRQHandler+0x70>
200002f4:	f20f 0e03 	addw	lr, pc, #3
200002f8:	4700      	bx	r0

200002fa <branch_to_main>:
200002fa:	f04f 0000 	mov.w	r0, #0
200002fe:	f04f 0100 	mov.w	r1, #0
20000302:	f8df f168 	ldr.w	pc, [pc, #360]	; 2000046c <ACE_ADC2_FifoEmpty_IRQHandler+0x74>

20000306 <ExitLoop>:
20000306:	e7fe      	b.n	20000306 <ExitLoop>

20000308 <NMI_Handler>:
20000308:	e7fe      	b.n	20000308 <NMI_Handler>

2000030a <HardFault_Handler>:
2000030a:	e7fe      	b.n	2000030a <HardFault_Handler>

2000030c <MemManage_Handler>:
2000030c:	e7fe      	b.n	2000030c <MemManage_Handler>

2000030e <BusFault_Handler>:
2000030e:	e7fe      	b.n	2000030e <BusFault_Handler>

20000310 <UsageFault_Handler>:
20000310:	e7fe      	b.n	20000310 <UsageFault_Handler>

20000312 <SVC_Handler>:
20000312:	e7fe      	b.n	20000312 <SVC_Handler>

20000314 <DebugMon_Handler>:
20000314:	e7fe      	b.n	20000314 <DebugMon_Handler>

20000316 <PendSV_Handler>:
20000316:	e7fe      	b.n	20000316 <PendSV_Handler>

20000318 <SysTick_Handler>:
20000318:	e7fe      	b.n	20000318 <SysTick_Handler>

2000031a <WdogWakeup_IRQHandler>:
2000031a:	e7fe      	b.n	2000031a <WdogWakeup_IRQHandler>

2000031c <BrownOut_1_5V_IRQHandler>:
2000031c:	e7fe      	b.n	2000031c <BrownOut_1_5V_IRQHandler>

2000031e <BrownOut_3_3V_IRQHandler>:
2000031e:	e7fe      	b.n	2000031e <BrownOut_3_3V_IRQHandler>

20000320 <RTC_Match_IRQHandler>:
20000320:	e7fe      	b.n	20000320 <RTC_Match_IRQHandler>

20000322 <RTCIF_Pub_IRQHandler>:
20000322:	e7fe      	b.n	20000322 <RTCIF_Pub_IRQHandler>

20000324 <EthernetMAC_IRQHandler>:
20000324:	e7fe      	b.n	20000324 <EthernetMAC_IRQHandler>

20000326 <IAP_IRQHandler>:
20000326:	e7fe      	b.n	20000326 <IAP_IRQHandler>

20000328 <ENVM0_IRQHandler>:
20000328:	e7fe      	b.n	20000328 <ENVM0_IRQHandler>

2000032a <ENVM1_IRQHandler>:
2000032a:	e7fe      	b.n	2000032a <ENVM1_IRQHandler>

2000032c <DMA_IRQHandler>:
2000032c:	e7fe      	b.n	2000032c <DMA_IRQHandler>
2000032e:	e7fe      	b.n	2000032e <DMA_IRQHandler+0x2>
20000330:	e7fe      	b.n	20000330 <DMA_IRQHandler+0x4>

20000332 <SPI0_IRQHandler>:
20000332:	e7fe      	b.n	20000332 <SPI0_IRQHandler>

20000334 <SPI1_IRQHandler>:
20000334:	e7fe      	b.n	20000334 <SPI1_IRQHandler>

20000336 <I2C0_IRQHandler>:
20000336:	e7fe      	b.n	20000336 <I2C0_IRQHandler>

20000338 <I2C0_SMBAlert_IRQHandler>:
20000338:	e7fe      	b.n	20000338 <I2C0_SMBAlert_IRQHandler>

2000033a <I2C0_SMBus_IRQHandler>:
2000033a:	e7fe      	b.n	2000033a <I2C0_SMBus_IRQHandler>

2000033c <I2C1_IRQHandler>:
2000033c:	e7fe      	b.n	2000033c <I2C1_IRQHandler>

2000033e <I2C1_SMBAlert_IRQHandler>:
2000033e:	e7fe      	b.n	2000033e <I2C1_SMBAlert_IRQHandler>

20000340 <I2C1_SMBus_IRQHandler>:
20000340:	e7fe      	b.n	20000340 <I2C1_SMBus_IRQHandler>

20000342 <Timer1_IRQHandler>:
20000342:	e7fe      	b.n	20000342 <Timer1_IRQHandler>

20000344 <Timer2_IRQHandler>:
20000344:	e7fe      	b.n	20000344 <Timer2_IRQHandler>

20000346 <PLL_Lock_IRQHandler>:
20000346:	e7fe      	b.n	20000346 <PLL_Lock_IRQHandler>

20000348 <PLL_LockLost_IRQHandler>:
20000348:	e7fe      	b.n	20000348 <PLL_LockLost_IRQHandler>

2000034a <CommError_IRQHandler>:
2000034a:	e7fe      	b.n	2000034a <CommError_IRQHandler>

2000034c <Fabric_IRQHandler>:
2000034c:	e7fe      	b.n	2000034c <Fabric_IRQHandler>

2000034e <GPIO0_IRQHandler>:
2000034e:	e7fe      	b.n	2000034e <GPIO0_IRQHandler>

20000350 <GPIO1_IRQHandler>:
20000350:	e7fe      	b.n	20000350 <GPIO1_IRQHandler>

20000352 <GPIO2_IRQHandler>:
20000352:	e7fe      	b.n	20000352 <GPIO2_IRQHandler>

20000354 <GPIO3_IRQHandler>:
20000354:	e7fe      	b.n	20000354 <GPIO3_IRQHandler>

20000356 <GPIO4_IRQHandler>:
20000356:	e7fe      	b.n	20000356 <GPIO4_IRQHandler>

20000358 <GPIO5_IRQHandler>:
20000358:	e7fe      	b.n	20000358 <GPIO5_IRQHandler>

2000035a <GPIO6_IRQHandler>:
2000035a:	e7fe      	b.n	2000035a <GPIO6_IRQHandler>

2000035c <GPIO7_IRQHandler>:
2000035c:	e7fe      	b.n	2000035c <GPIO7_IRQHandler>

2000035e <GPIO8_IRQHandler>:
2000035e:	e7fe      	b.n	2000035e <GPIO8_IRQHandler>

20000360 <GPIO9_IRQHandler>:
20000360:	e7fe      	b.n	20000360 <GPIO9_IRQHandler>

20000362 <GPIO10_IRQHandler>:
20000362:	e7fe      	b.n	20000362 <GPIO10_IRQHandler>

20000364 <GPIO11_IRQHandler>:
20000364:	e7fe      	b.n	20000364 <GPIO11_IRQHandler>

20000366 <GPIO12_IRQHandler>:
20000366:	e7fe      	b.n	20000366 <GPIO12_IRQHandler>

20000368 <GPIO13_IRQHandler>:
20000368:	e7fe      	b.n	20000368 <GPIO13_IRQHandler>

2000036a <GPIO14_IRQHandler>:
2000036a:	e7fe      	b.n	2000036a <GPIO14_IRQHandler>

2000036c <GPIO15_IRQHandler>:
2000036c:	e7fe      	b.n	2000036c <GPIO15_IRQHandler>

2000036e <GPIO16_IRQHandler>:
2000036e:	e7fe      	b.n	2000036e <GPIO16_IRQHandler>

20000370 <GPIO17_IRQHandler>:
20000370:	e7fe      	b.n	20000370 <GPIO17_IRQHandler>

20000372 <GPIO18_IRQHandler>:
20000372:	e7fe      	b.n	20000372 <GPIO18_IRQHandler>

20000374 <GPIO19_IRQHandler>:
20000374:	e7fe      	b.n	20000374 <GPIO19_IRQHandler>

20000376 <GPIO20_IRQHandler>:
20000376:	e7fe      	b.n	20000376 <GPIO20_IRQHandler>

20000378 <GPIO21_IRQHandler>:
20000378:	e7fe      	b.n	20000378 <GPIO21_IRQHandler>

2000037a <GPIO22_IRQHandler>:
2000037a:	e7fe      	b.n	2000037a <GPIO22_IRQHandler>

2000037c <GPIO23_IRQHandler>:
2000037c:	e7fe      	b.n	2000037c <GPIO23_IRQHandler>

2000037e <GPIO24_IRQHandler>:
2000037e:	e7fe      	b.n	2000037e <GPIO24_IRQHandler>

20000380 <GPIO25_IRQHandler>:
20000380:	e7fe      	b.n	20000380 <GPIO25_IRQHandler>

20000382 <GPIO26_IRQHandler>:
20000382:	e7fe      	b.n	20000382 <GPIO26_IRQHandler>

20000384 <GPIO27_IRQHandler>:
20000384:	e7fe      	b.n	20000384 <GPIO27_IRQHandler>

20000386 <GPIO28_IRQHandler>:
20000386:	e7fe      	b.n	20000386 <GPIO28_IRQHandler>

20000388 <GPIO29_IRQHandler>:
20000388:	e7fe      	b.n	20000388 <GPIO29_IRQHandler>

2000038a <GPIO30_IRQHandler>:
2000038a:	e7fe      	b.n	2000038a <GPIO30_IRQHandler>

2000038c <GPIO31_IRQHandler>:
2000038c:	e7fe      	b.n	2000038c <GPIO31_IRQHandler>

2000038e <ACE_PC0_Flag0_IRQHandler>:
2000038e:	e7fe      	b.n	2000038e <ACE_PC0_Flag0_IRQHandler>

20000390 <ACE_PC0_Flag1_IRQHandler>:
20000390:	e7fe      	b.n	20000390 <ACE_PC0_Flag1_IRQHandler>

20000392 <ACE_PC0_Flag2_IRQHandler>:
20000392:	e7fe      	b.n	20000392 <ACE_PC0_Flag2_IRQHandler>

20000394 <ACE_PC0_Flag3_IRQHandler>:
20000394:	e7fe      	b.n	20000394 <ACE_PC0_Flag3_IRQHandler>

20000396 <ACE_PC1_Flag0_IRQHandler>:
20000396:	e7fe      	b.n	20000396 <ACE_PC1_Flag0_IRQHandler>

20000398 <ACE_PC1_Flag1_IRQHandler>:
20000398:	e7fe      	b.n	20000398 <ACE_PC1_Flag1_IRQHandler>

2000039a <ACE_PC1_Flag2_IRQHandler>:
2000039a:	e7fe      	b.n	2000039a <ACE_PC1_Flag2_IRQHandler>

2000039c <ACE_PC1_Flag3_IRQHandler>:
2000039c:	e7fe      	b.n	2000039c <ACE_PC1_Flag3_IRQHandler>

2000039e <ACE_PC2_Flag0_IRQHandler>:
2000039e:	e7fe      	b.n	2000039e <ACE_PC2_Flag0_IRQHandler>

200003a0 <ACE_PC2_Flag1_IRQHandler>:
200003a0:	e7fe      	b.n	200003a0 <ACE_PC2_Flag1_IRQHandler>

200003a2 <ACE_PC2_Flag2_IRQHandler>:
200003a2:	e7fe      	b.n	200003a2 <ACE_PC2_Flag2_IRQHandler>

200003a4 <ACE_PC2_Flag3_IRQHandler>:
200003a4:	e7fe      	b.n	200003a4 <ACE_PC2_Flag3_IRQHandler>

200003a6 <ACE_ADC0_DataValid_IRQHandler>:
200003a6:	e7fe      	b.n	200003a6 <ACE_ADC0_DataValid_IRQHandler>

200003a8 <ACE_ADC1_DataValid_IRQHandler>:
200003a8:	e7fe      	b.n	200003a8 <ACE_ADC1_DataValid_IRQHandler>

200003aa <ACE_ADC2_DataValid_IRQHandler>:
200003aa:	e7fe      	b.n	200003aa <ACE_ADC2_DataValid_IRQHandler>

200003ac <ACE_ADC0_CalDone_IRQHandler>:
200003ac:	e7fe      	b.n	200003ac <ACE_ADC0_CalDone_IRQHandler>

200003ae <ACE_ADC1_CalDone_IRQHandler>:
200003ae:	e7fe      	b.n	200003ae <ACE_ADC1_CalDone_IRQHandler>

200003b0 <ACE_ADC2_CalDone_IRQHandler>:
200003b0:	e7fe      	b.n	200003b0 <ACE_ADC2_CalDone_IRQHandler>

200003b2 <ACE_ADC0_CalStart_IRQHandler>:
200003b2:	e7fe      	b.n	200003b2 <ACE_ADC0_CalStart_IRQHandler>

200003b4 <ACE_ADC1_CalStart_IRQHandler>:
200003b4:	e7fe      	b.n	200003b4 <ACE_ADC1_CalStart_IRQHandler>

200003b6 <ACE_ADC2_CalStart_IRQHandler>:
200003b6:	e7fe      	b.n	200003b6 <ACE_ADC2_CalStart_IRQHandler>

200003b8 <ACE_Comp0_Fall_IRQHandler>:
200003b8:	e7fe      	b.n	200003b8 <ACE_Comp0_Fall_IRQHandler>

200003ba <ACE_Comp1_Fall_IRQHandler>:
200003ba:	e7fe      	b.n	200003ba <ACE_Comp1_Fall_IRQHandler>

200003bc <ACE_Comp2_Fall_IRQHandler>:
200003bc:	e7fe      	b.n	200003bc <ACE_Comp2_Fall_IRQHandler>

200003be <ACE_Comp3_Fall_IRQHandler>:
200003be:	e7fe      	b.n	200003be <ACE_Comp3_Fall_IRQHandler>

200003c0 <ACE_Comp4_Fall_IRQHandler>:
200003c0:	e7fe      	b.n	200003c0 <ACE_Comp4_Fall_IRQHandler>

200003c2 <ACE_Comp5_Fall_IRQHandler>:
200003c2:	e7fe      	b.n	200003c2 <ACE_Comp5_Fall_IRQHandler>

200003c4 <ACE_Comp6_Fall_IRQHandler>:
200003c4:	e7fe      	b.n	200003c4 <ACE_Comp6_Fall_IRQHandler>

200003c6 <ACE_Comp7_Fall_IRQHandler>:
200003c6:	e7fe      	b.n	200003c6 <ACE_Comp7_Fall_IRQHandler>

200003c8 <ACE_Comp8_Fall_IRQHandler>:
200003c8:	e7fe      	b.n	200003c8 <ACE_Comp8_Fall_IRQHandler>

200003ca <ACE_Comp9_Fall_IRQHandler>:
200003ca:	e7fe      	b.n	200003ca <ACE_Comp9_Fall_IRQHandler>

200003cc <ACE_Comp10_Fall_IRQHandler>:
200003cc:	e7fe      	b.n	200003cc <ACE_Comp10_Fall_IRQHandler>

200003ce <ACE_Comp11_Fall_IRQHandler>:
200003ce:	e7fe      	b.n	200003ce <ACE_Comp11_Fall_IRQHandler>

200003d0 <ACE_Comp0_Rise_IRQHandler>:
200003d0:	e7fe      	b.n	200003d0 <ACE_Comp0_Rise_IRQHandler>

200003d2 <ACE_Comp1_Rise_IRQHandler>:
200003d2:	e7fe      	b.n	200003d2 <ACE_Comp1_Rise_IRQHandler>

200003d4 <ACE_Comp2_Rise_IRQHandler>:
200003d4:	e7fe      	b.n	200003d4 <ACE_Comp2_Rise_IRQHandler>

200003d6 <ACE_Comp3_Rise_IRQHandler>:
200003d6:	e7fe      	b.n	200003d6 <ACE_Comp3_Rise_IRQHandler>

200003d8 <ACE_Comp4_Rise_IRQHandler>:
200003d8:	e7fe      	b.n	200003d8 <ACE_Comp4_Rise_IRQHandler>

200003da <ACE_Comp5_Rise_IRQHandler>:
200003da:	e7fe      	b.n	200003da <ACE_Comp5_Rise_IRQHandler>

200003dc <ACE_Comp6_Rise_IRQHandler>:
200003dc:	e7fe      	b.n	200003dc <ACE_Comp6_Rise_IRQHandler>

200003de <ACE_Comp7_Rise_IRQHandler>:
200003de:	e7fe      	b.n	200003de <ACE_Comp7_Rise_IRQHandler>

200003e0 <ACE_Comp8_Rise_IRQHandler>:
200003e0:	e7fe      	b.n	200003e0 <ACE_Comp8_Rise_IRQHandler>

200003e2 <ACE_Comp9_Rise_IRQHandler>:
200003e2:	e7fe      	b.n	200003e2 <ACE_Comp9_Rise_IRQHandler>

200003e4 <ACE_Comp10_Rise_IRQHandler>:
200003e4:	e7fe      	b.n	200003e4 <ACE_Comp10_Rise_IRQHandler>

200003e6 <ACE_Comp11_Rise_IRQHandler>:
200003e6:	e7fe      	b.n	200003e6 <ACE_Comp11_Rise_IRQHandler>

200003e8 <ACE_ADC0_FifoFull_IRQHandler>:
200003e8:	e7fe      	b.n	200003e8 <ACE_ADC0_FifoFull_IRQHandler>

200003ea <ACE_ADC0_FifoAFull_IRQHandler>:
200003ea:	e7fe      	b.n	200003ea <ACE_ADC0_FifoAFull_IRQHandler>

200003ec <ACE_ADC0_FifoEmpty_IRQHandler>:
200003ec:	e7fe      	b.n	200003ec <ACE_ADC0_FifoEmpty_IRQHandler>

200003ee <ACE_ADC1_FifoFull_IRQHandler>:
200003ee:	e7fe      	b.n	200003ee <ACE_ADC1_FifoFull_IRQHandler>

200003f0 <ACE_ADC1_FifoAFull_IRQHandler>:
200003f0:	e7fe      	b.n	200003f0 <ACE_ADC1_FifoAFull_IRQHandler>

200003f2 <ACE_ADC1_FifoEmpty_IRQHandler>:
200003f2:	e7fe      	b.n	200003f2 <ACE_ADC1_FifoEmpty_IRQHandler>

200003f4 <ACE_ADC2_FifoFull_IRQHandler>:
200003f4:	e7fe      	b.n	200003f4 <ACE_ADC2_FifoFull_IRQHandler>

200003f6 <ACE_ADC2_FifoAFull_IRQHandler>:
200003f6:	e7fe      	b.n	200003f6 <ACE_ADC2_FifoAFull_IRQHandler>

200003f8 <ACE_ADC2_FifoEmpty_IRQHandler>:
200003f8:	e7fe      	b.n	200003f8 <ACE_ADC2_FifoEmpty_IRQHandler>
200003fa:	e7fe      	b.n	200003fa <ACE_ADC2_FifoEmpty_IRQHandler+0x2>
200003fc:	e7fe      	b.n	200003fc <ACE_ADC2_FifoEmpty_IRQHandler+0x4>
200003fe:	e7fe      	b.n	200003fe <ACE_ADC2_FifoEmpty_IRQHandler+0x6>
20000400:	e7fe      	b.n	20000400 <ACE_ADC2_FifoEmpty_IRQHandler+0x8>
20000402:	e7fe      	b.n	20000402 <ACE_ADC2_FifoEmpty_IRQHandler+0xa>
20000404:	e7fe      	b.n	20000404 <ACE_ADC2_FifoEmpty_IRQHandler+0xc>
20000406:	e7fe      	b.n	20000406 <ACE_ADC2_FifoEmpty_IRQHandler+0xe>
20000408:	e7fe      	b.n	20000408 <ACE_ADC2_FifoEmpty_IRQHandler+0x10>
2000040a:	e7fe      	b.n	2000040a <ACE_ADC2_FifoEmpty_IRQHandler+0x12>
2000040c:	e7fe      	b.n	2000040c <ACE_ADC2_FifoEmpty_IRQHandler+0x14>
2000040e:	e7fe      	b.n	2000040e <ACE_ADC2_FifoEmpty_IRQHandler+0x16>
20000410:	e7fe      	b.n	20000410 <ACE_ADC2_FifoEmpty_IRQHandler+0x18>
20000412:	e7fe      	b.n	20000412 <ACE_ADC2_FifoEmpty_IRQHandler+0x1a>
20000414:	e7fe      	b.n	20000414 <ACE_ADC2_FifoEmpty_IRQHandler+0x1c>
20000416:	e7fe      	b.n	20000416 <ACE_ADC2_FifoEmpty_IRQHandler+0x1e>
20000418:	e7fe      	b.n	20000418 <ACE_ADC2_FifoEmpty_IRQHandler+0x20>
2000041a:	e7fe      	b.n	2000041a <ACE_ADC2_FifoEmpty_IRQHandler+0x22>
2000041c:	e7fe      	b.n	2000041c <ACE_ADC2_FifoEmpty_IRQHandler+0x24>
2000041e:	e7fe      	b.n	2000041e <ACE_ADC2_FifoEmpty_IRQHandler+0x26>
20000420:	e7fe      	b.n	20000420 <ACE_ADC2_FifoEmpty_IRQHandler+0x28>
20000422:	e7fe      	b.n	20000422 <ACE_ADC2_FifoEmpty_IRQHandler+0x2a>
20000424:	e7fe      	b.n	20000424 <ACE_ADC2_FifoEmpty_IRQHandler+0x2c>
20000426:	e7fe      	b.n	20000426 <ACE_ADC2_FifoEmpty_IRQHandler+0x2e>
20000428:	e7fe      	b.n	20000428 <ACE_ADC2_FifoEmpty_IRQHandler+0x30>
2000042a:	e7fe      	b.n	2000042a <ACE_ADC2_FifoEmpty_IRQHandler+0x32>
2000042c:	e7fe      	b.n	2000042c <ACE_ADC2_FifoEmpty_IRQHandler+0x34>
2000042e:	e7fe      	b.n	2000042e <ACE_ADC2_FifoEmpty_IRQHandler+0x36>
20000430:	e7fe      	b.n	20000430 <ACE_ADC2_FifoEmpty_IRQHandler+0x38>
20000432:	e7fe      	b.n	20000432 <ACE_ADC2_FifoEmpty_IRQHandler+0x3a>
20000434:	e7fe      	b.n	20000434 <ACE_ADC2_FifoEmpty_IRQHandler+0x3c>
20000436:	e7fe      	b.n	20000436 <ACE_ADC2_FifoEmpty_IRQHandler+0x3e>
20000438:	e7fe      	b.n	20000438 <ACE_ADC2_FifoEmpty_IRQHandler+0x40>
2000043a:	0000      	.short	0x0000
2000043c:	20001a09 	.word	0x20001a09
20000440:	00000000 	.word	0x00000000
20000444:	20000000 	.word	0x20000000
20000448:	20000000 	.word	0x20000000
2000044c:	20007c08 	.word	0x20007c08
20000450:	20007c08 	.word	0x20007c08
20000454:	20007c08 	.word	0x20007c08
20000458:	20008180 	.word	0x20008180
2000045c:	00000000 	.word	0x00000000
20000460:	20008180 	.word	0x20008180
20000464:	20008548 	.word	0x20008548
20000468:	20002479 	.word	0x20002479
2000046c:	200004c1 	.word	0x200004c1

20000470 <__do_global_dtors_aux>:
20000470:	f248 1380 	movw	r3, #33152	; 0x8180
20000474:	f2c2 0300 	movt	r3, #8192	; 0x2000
20000478:	781a      	ldrb	r2, [r3, #0]
2000047a:	b90a      	cbnz	r2, 20000480 <__do_global_dtors_aux+0x10>
2000047c:	2001      	movs	r0, #1
2000047e:	7018      	strb	r0, [r3, #0]
20000480:	4770      	bx	lr
20000482:	bf00      	nop

20000484 <frame_dummy>:
20000484:	f647 4008 	movw	r0, #31752	; 0x7c08
20000488:	f2c2 0000 	movt	r0, #8192	; 0x2000
2000048c:	b508      	push	{r3, lr}
2000048e:	6803      	ldr	r3, [r0, #0]
20000490:	b12b      	cbz	r3, 2000049e <frame_dummy+0x1a>
20000492:	f240 0300 	movw	r3, #0
20000496:	f2c0 0300 	movt	r3, #0
2000049a:	b103      	cbz	r3, 2000049e <frame_dummy+0x1a>
2000049c:	4798      	blx	r3
2000049e:	bd08      	pop	{r3, pc}

200004a0 <MSS_GPIO_set_outputs>:
static __INLINE void
MSS_GPIO_set_outputs
(
   uint32_t value
)
{
200004a0:	b480      	push	{r7}
200004a2:	b083      	sub	sp, #12
200004a4:	af00      	add	r7, sp, #0
200004a6:	6078      	str	r0, [r7, #4]
    GPIO->GPIO_OUT = value;
200004a8:	f243 0300 	movw	r3, #12288	; 0x3000
200004ac:	f2c4 0301 	movt	r3, #16385	; 0x4001
200004b0:	687a      	ldr	r2, [r7, #4]
200004b2:	f8c3 2088 	str.w	r2, [r3, #136]	; 0x88
}
200004b6:	f107 070c 	add.w	r7, r7, #12
200004ba:	46bd      	mov	sp, r7
200004bc:	bc80      	pop	{r7}
200004be:	4770      	bx	lr

200004c0 <main>:
* * * * * * * * * * * * * * * * * \n\r \
* * * * * * ***** * * **** ****** * * * * * \n\r \
* * * * * * * * * * * * * * * \n\r \
* * ******* ****** * * **** ***** ****** * * ******* "
int main()
{
200004c0:	b580      	push	{r7, lr}
200004c2:	b0a0      	sub	sp, #128	; 0x80
200004c4:	af02      	add	r7, sp, #8
const uint8_t greeting[] = "\n\rWelcome to Microsemi's SmartFusion Voltage Monitor\n\n\r";
200004c6:	f247 7344 	movw	r3, #30532	; 0x7744
200004ca:	f2c2 0300 	movt	r3, #8192	; 0x2000
200004ce:	f107 0c20 	add.w	ip, r7, #32
200004d2:	469e      	mov	lr, r3
200004d4:	e8be 000f 	ldmia.w	lr!, {r0, r1, r2, r3}
200004d8:	e8ac 000f 	stmia.w	ip!, {r0, r1, r2, r3}
200004dc:	e8be 000f 	ldmia.w	lr!, {r0, r1, r2, r3}
200004e0:	e8ac 000f 	stmia.w	ip!, {r0, r1, r2, r3}
200004e4:	e8be 000f 	ldmia.w	lr!, {r0, r1, r2, r3}
200004e8:	e8ac 000f 	stmia.w	ip!, {r0, r1, r2, r3}
200004ec:	e89e 0003 	ldmia.w	lr, {r0, r1}
200004f0:	e88c 0003 	stmia.w	ip, {r0, r1}
const uint8_t * channel_name;
/*Initialize and Configure GPIO*/
MSS_GPIO_init();
200004f4:	f000 fc88 	bl	20000e08 <MSS_GPIO_init>
MSS_GPIO_config( MSS_GPIO_31 , MSS_GPIO_OUTPUT_MODE );
200004f8:	f04f 001f 	mov.w	r0, #31
200004fc:	f04f 0105 	mov.w	r1, #5
20000500:	f000 fcb8 	bl	20000e74 <MSS_GPIO_config>
MSS_GPIO_config( MSS_GPIO_30 , MSS_GPIO_OUTPUT_MODE );
20000504:	f04f 001e 	mov.w	r0, #30
20000508:	f04f 0105 	mov.w	r1, #5
2000050c:	f000 fcb2 	bl	20000e74 <MSS_GPIO_config>
MSS_GPIO_config( MSS_GPIO_29 , MSS_GPIO_OUTPUT_MODE );
20000510:	f04f 001d 	mov.w	r0, #29
20000514:	f04f 0105 	mov.w	r1, #5
20000518:	f000 fcac 	bl	20000e74 <MSS_GPIO_config>
MSS_GPIO_config( MSS_GPIO_28 , MSS_GPIO_OUTPUT_MODE );
2000051c:	f04f 001c 	mov.w	r0, #28
20000520:	f04f 0105 	mov.w	r1, #5
20000524:	f000 fca6 	bl	20000e74 <MSS_GPIO_config>
/*Initialize UART_0*/
MSS_UART_init(
20000528:	f248 501c 	movw	r0, #34076	; 0x851c
2000052c:	f2c2 0000 	movt	r0, #8192	; 0x2000
20000530:	f44f 4161 	mov.w	r1, #57600	; 0xe100
20000534:	f04f 0203 	mov.w	r2, #3
20000538:	f000 f92e 	bl	20000798 <MSS_UART_init>
&g_mss_uart0,
MSS_UART_57600_BAUD,
MSS_UART_DATA_8_BITS | MSS_UART_NO_PARITY | MSS_UART_ONE_STOP_BIT );
/*Initialize ACE*/
ACE_init( );
2000053c:	f001 fa32 	bl	200019a4 <ACE_init>
MSS_UART_polled_tx_string( &g_mss_uart0, (const uint8_t*)Microsemi_logo );
20000540:	f248 501c 	movw	r0, #34076	; 0x851c
20000544:	f2c2 0000 	movt	r0, #8192	; 0x2000
20000548:	f247 6138 	movw	r1, #30264	; 0x7638
2000054c:	f2c2 0100 	movt	r1, #8192	; 0x2000
20000550:	f000 fa96 	bl	20000a80 <MSS_UART_polled_tx_string>
MSS_UART_polled_tx( &g_mss_uart0, greeting, sizeof(greeting) );
20000554:	f107 0320 	add.w	r3, r7, #32
20000558:	f248 501c 	movw	r0, #34076	; 0x851c
2000055c:	f2c2 0000 	movt	r0, #8192	; 0x2000
20000560:	4619      	mov	r1, r3
20000562:	f04f 0238 	mov.w	r2, #56	; 0x38
20000566:	f000 fa19 	bl	2000099c <MSS_UART_polled_tx>
channel_name = ACE_get_channel_name( TM0_Voltage );
2000056a:	f04f 0000 	mov.w	r0, #0
2000056e:	f000 fdf9 	bl	20001164 <ACE_get_channel_name>
20000572:	4603      	mov	r3, r0
20000574:	65bb      	str	r3, [r7, #88]	; 0x58
for (;;)
{
uint8_t display_buffer[32];
uint16_t adc_result;
int32_t adc_value_mv;
adc_result = ACE_get_ppe_sample( TM0_Voltage );
20000576:	f04f 0000 	mov.w	r0, #0
2000057a:	f001 fa1b 	bl	200019b4 <ACE_get_ppe_sample>
2000057e:	4603      	mov	r3, r0
20000580:	f8a7 305e 	strh.w	r3, [r7, #94]	; 0x5e
adc_value_mv = ACE_convert_to_mV( TM0_Voltage, adc_result );
20000584:	f8b7 305e 	ldrh.w	r3, [r7, #94]	; 0x5e
20000588:	f04f 0000 	mov.w	r0, #0
2000058c:	4619      	mov	r1, r3
2000058e:	f000 fd69 	bl	20001064 <ACE_convert_to_mV>
20000592:	4603      	mov	r3, r0
20000594:	663b      	str	r3, [r7, #96]	; 0x60
if ( adc_value_mv < 0 )
20000596:	6e3b      	ldr	r3, [r7, #96]	; 0x60
20000598:	2b00      	cmp	r3, #0
2000059a:	da1e      	bge.n	200005da <main+0x11a>
{
snprintf( (char *)display_buffer, sizeof(display_buffer),
"%s : -%.3fV\r\b", channel_name, ((float)(-adc_value_mv) / (float)(1000)));
2000059c:	6e3b      	ldr	r3, [r7, #96]	; 0x60
2000059e:	f1c3 0300 	rsb	r3, r3, #0
200005a2:	4618      	mov	r0, r3
200005a4:	f001 fdc4 	bl	20002130 <__aeabi_i2f>
200005a8:	4603      	mov	r3, r0
200005aa:	4618      	mov	r0, r3
200005ac:	493a      	ldr	r1, [pc, #232]	; (20000698 <main+0x1d8>)
200005ae:	f001 fec7 	bl	20002340 <__aeabi_fdiv>
200005b2:	4603      	mov	r3, r0
int32_t adc_value_mv;
adc_result = ACE_get_ppe_sample( TM0_Voltage );
adc_value_mv = ACE_convert_to_mV( TM0_Voltage, adc_result );
if ( adc_value_mv < 0 )
{
snprintf( (char *)display_buffer, sizeof(display_buffer),
200005b4:	4618      	mov	r0, r3
200005b6:	f001 fcad 	bl	20001f14 <__aeabi_f2d>
200005ba:	4602      	mov	r2, r0
200005bc:	460b      	mov	r3, r1
200005be:	4639      	mov	r1, r7
200005c0:	e9cd 2300 	strd	r2, r3, [sp]
200005c4:	4608      	mov	r0, r1
200005c6:	f04f 0120 	mov.w	r1, #32
200005ca:	f247 7224 	movw	r2, #30500	; 0x7724
200005ce:	f2c2 0200 	movt	r2, #8192	; 0x2000
200005d2:	6dbb      	ldr	r3, [r7, #88]	; 0x58
200005d4:	f001 ff78 	bl	200024c8 <snprintf>
200005d8:	e01a      	b.n	20000610 <main+0x150>
"%s : -%.3fV\r\b", channel_name, ((float)(-adc_value_mv) / (float)(1000)));
}
else
{
snprintf( (char *)display_buffer, sizeof(display_buffer),
"%s : %.3fV\r\b", channel_name, ((float)(adc_value_mv) / (float)(1000)));
200005da:	6e38      	ldr	r0, [r7, #96]	; 0x60
200005dc:	f001 fda8 	bl	20002130 <__aeabi_i2f>
200005e0:	4603      	mov	r3, r0
200005e2:	4618      	mov	r0, r3
200005e4:	492c      	ldr	r1, [pc, #176]	; (20000698 <main+0x1d8>)
200005e6:	f001 feab 	bl	20002340 <__aeabi_fdiv>
200005ea:	4603      	mov	r3, r0
snprintf( (char *)display_buffer, sizeof(display_buffer),
"%s : -%.3fV\r\b", channel_name, ((float)(-adc_value_mv) / (float)(1000)));
}
else
{
snprintf( (char *)display_buffer, sizeof(display_buffer),
200005ec:	4618      	mov	r0, r3
200005ee:	f001 fc91 	bl	20001f14 <__aeabi_f2d>
200005f2:	4602      	mov	r2, r0
200005f4:	460b      	mov	r3, r1
200005f6:	4639      	mov	r1, r7
200005f8:	e9cd 2300 	strd	r2, r3, [sp]
200005fc:	4608      	mov	r0, r1
200005fe:	f04f 0120 	mov.w	r1, #32
20000602:	f247 7234 	movw	r2, #30516	; 0x7734
20000606:	f2c2 0200 	movt	r2, #8192	; 0x2000
2000060a:	6dbb      	ldr	r3, [r7, #88]	; 0x58
2000060c:	f001 ff5c 	bl	200024c8 <snprintf>
"%s : %.3fV\r\b", channel_name, ((float)(adc_value_mv) / (float)(1000)));
}
MSS_UART_polled_tx_string( &g_mss_uart0, display_buffer );
20000610:	463b      	mov	r3, r7
20000612:	f248 501c 	movw	r0, #34076	; 0x851c
20000616:	f2c2 0000 	movt	r0, #8192	; 0x2000
2000061a:	4619      	mov	r1, r3
2000061c:	f000 fa30 	bl	20000a80 <MSS_UART_polled_tx_string>
/* checking the status of Voltage flags */
int32_t flag_status_2p5v = ACE_get_flag_status(TM0_Voltage_over_2p5v);
20000620:	f04f 0003 	mov.w	r0, #3
20000624:	f000 fe3e 	bl	200012a4 <ACE_get_flag_status>
20000628:	4603      	mov	r3, r0
2000062a:	667b      	str	r3, [r7, #100]	; 0x64
int32_t flag_status_2p0v = ACE_get_flag_status(TM0_Voltage_over_2p0v);
2000062c:	f04f 0002 	mov.w	r0, #2
20000630:	f000 fe38 	bl	200012a4 <ACE_get_flag_status>
20000634:	4603      	mov	r3, r0
20000636:	66bb      	str	r3, [r7, #104]	; 0x68
int32_t flag_status_1p5v = ACE_get_flag_status(TM0_Voltage_over_1p5v);
20000638:	f04f 0001 	mov.w	r0, #1
2000063c:	f000 fe32 	bl	200012a4 <ACE_get_flag_status>
20000640:	4603      	mov	r3, r0
20000642:	66fb      	str	r3, [r7, #108]	; 0x6c
int32_t flag_status_1p0v = ACE_get_flag_status(TM0_Voltage_over_1p0v);
20000644:	f04f 0000 	mov.w	r0, #0
20000648:	f000 fe2c 	bl	200012a4 <ACE_get_flag_status>
2000064c:	4603      	mov	r3, r0
2000064e:	673b      	str	r3, [r7, #112]	; 0x70
/* Voltage flags are displayed on the LEDs through GPIO */
uint32_t gpio_output;
if ( flag_status_2p5v == FLAG_ASSERTED )
20000650:	6e7b      	ldr	r3, [r7, #100]	; 0x64
20000652:	2b01      	cmp	r3, #1
20000654:	d103      	bne.n	2000065e <main+0x19e>
gpio_output = ~(
20000656:	f06f 4370 	mvn.w	r3, #4026531840	; 0xf0000000
2000065a:	677b      	str	r3, [r7, #116]	; 0x74
2000065c:	e017      	b.n	2000068e <main+0x1ce>
MSS_GPIO_28_MASK |
MSS_GPIO_29_MASK |
MSS_GPIO_30_MASK |
MSS_GPIO_31_MASK );
else
if ( flag_status_2p0v == FLAG_ASSERTED )
2000065e:	6ebb      	ldr	r3, [r7, #104]	; 0x68
20000660:	2b01      	cmp	r3, #1
20000662:	d103      	bne.n	2000066c <main+0x1ac>
gpio_output = ~(
20000664:	f06f 43e0 	mvn.w	r3, #1879048192	; 0x70000000
20000668:	677b      	str	r3, [r7, #116]	; 0x74
2000066a:	e010      	b.n	2000068e <main+0x1ce>
MSS_GPIO_28_MASK |
MSS_GPIO_29_MASK |
MSS_GPIO_30_MASK );
else
if ( flag_status_1p5v == FLAG_ASSERTED )
2000066c:	6efb      	ldr	r3, [r7, #108]	; 0x6c
2000066e:	2b01      	cmp	r3, #1
20000670:	d103      	bne.n	2000067a <main+0x1ba>
gpio_output = ~(
20000672:	f06f 5340 	mvn.w	r3, #805306368	; 0x30000000
20000676:	677b      	str	r3, [r7, #116]	; 0x74
20000678:	e009      	b.n	2000068e <main+0x1ce>
MSS_GPIO_28_MASK |
MSS_GPIO_29_MASK );
else
if ( flag_status_1p0v == FLAG_ASSERTED )
2000067a:	6f3b      	ldr	r3, [r7, #112]	; 0x70
2000067c:	2b01      	cmp	r3, #1
2000067e:	d103      	bne.n	20000688 <main+0x1c8>
gpio_output = ~(
20000680:	f06f 5380 	mvn.w	r3, #268435456	; 0x10000000
20000684:	677b      	str	r3, [r7, #116]	; 0x74
20000686:	e002      	b.n	2000068e <main+0x1ce>
		MSS_GPIO_28_MASK );
		else
		gpio_output = (
20000688:	f04f 4370 	mov.w	r3, #4026531840	; 0xf0000000
2000068c:	677b      	str	r3, [r7, #116]	; 0x74
		MSS_GPIO_28_MASK |
		MSS_GPIO_29_MASK |
		MSS_GPIO_30_MASK |
		MSS_GPIO_31_MASK );
		MSS_GPIO_set_outputs( gpio_output );
2000068e:	6f78      	ldr	r0, [r7, #116]	; 0x74
20000690:	f7ff ff06 	bl	200004a0 <MSS_GPIO_set_outputs>
		}
20000694:	e76f      	b.n	20000576 <main+0xb6>
20000696:	bf00      	nop
20000698:	447a0000 	.word	0x447a0000

2000069c <_exit>:
{
	/* Should we force a system reset? */
	while( 1 )
	{
		;
	}
2000069c:	b480      	push	{r7}
2000069e:	b083      	sub	sp, #12
200006a0:	af00      	add	r7, sp, #0
200006a2:	6078      	str	r0, [r7, #4]
200006a4:	e7fe      	b.n	200006a4 <_exit+0x8>
200006a6:	bf00      	nop

200006a8 <_write_r>:
 * all files, including stdout—so if you need to generate any output, for
 * example to a serial port for debugging, you should make your minimal write
 * capable of doing this.
 */
int _write_r( void * reent, int file, char * ptr, int len )
{
200006a8:	b480      	push	{r7}
200006aa:	b085      	sub	sp, #20
200006ac:	af00      	add	r7, sp, #0
200006ae:	60f8      	str	r0, [r7, #12]
200006b0:	60b9      	str	r1, [r7, #8]
200006b2:	607a      	str	r2, [r7, #4]
200006b4:	603b      	str	r3, [r7, #0]
     */
    MSS_UART_polled_tx( &g_mss_uart0, (uint8_t *)ptr, len );
    
    return len;
#else   /* ACTEL_STDIO_THRU_UART */
    return 0;
200006b6:	f04f 0300 	mov.w	r3, #0
#endif  /* ACTEL_STDIO_THRU_UART */
}
200006ba:	4618      	mov	r0, r3
200006bc:	f107 0714 	add.w	r7, r7, #20
200006c0:	46bd      	mov	sp, r7
200006c2:	bc80      	pop	{r7}
200006c4:	4770      	bx	lr
200006c6:	bf00      	nop

200006c8 <_sbrk>:
 * it is useful to have a working implementation. The following suffices for a
 * standalone system; it exploits the symbol _end automatically defined by the
 * GNU linker. 
 */
caddr_t _sbrk(int incr)
{
200006c8:	b580      	push	{r7, lr}
200006ca:	b084      	sub	sp, #16
200006cc:	af00      	add	r7, sp, #0
200006ce:	6078      	str	r0, [r7, #4]
    extern char _end;		/* Defined by the linker */
    static char *heap_end;
    char *prev_heap_end;
    char * stack_ptr;
    
    if (heap_end == 0)
200006d0:	f248 1384 	movw	r3, #33156	; 0x8184
200006d4:	f2c2 0300 	movt	r3, #8192	; 0x2000
200006d8:	681b      	ldr	r3, [r3, #0]
200006da:	2b00      	cmp	r3, #0
200006dc:	d108      	bne.n	200006f0 <_sbrk+0x28>
    {
      heap_end = &_end;
200006de:	f248 1384 	movw	r3, #33156	; 0x8184
200006e2:	f2c2 0300 	movt	r3, #8192	; 0x2000
200006e6:	f248 5248 	movw	r2, #34120	; 0x8548
200006ea:	f2c2 0200 	movt	r2, #8192	; 0x2000
200006ee:	601a      	str	r2, [r3, #0]
    }
    
    prev_heap_end = heap_end;
200006f0:	f248 1384 	movw	r3, #33156	; 0x8184
200006f4:	f2c2 0300 	movt	r3, #8192	; 0x2000
200006f8:	681b      	ldr	r3, [r3, #0]
200006fa:	60bb      	str	r3, [r7, #8]
    asm volatile ("MRS %0, msp" : "=r" (stack_ptr) );
200006fc:	f3ef 8308 	mrs	r3, MSP
20000700:	60fb      	str	r3, [r7, #12]
    if (heap_end + incr > stack_ptr)
20000702:	f248 1384 	movw	r3, #33156	; 0x8184
20000706:	f2c2 0300 	movt	r3, #8192	; 0x2000
2000070a:	681a      	ldr	r2, [r3, #0]
2000070c:	687b      	ldr	r3, [r7, #4]
2000070e:	441a      	add	r2, r3
20000710:	68fb      	ldr	r3, [r7, #12]
20000712:	429a      	cmp	r2, r3
20000714:	d90f      	bls.n	20000736 <_sbrk+0x6e>
    {
      _write_r ((void *)0, 1, "Heap and stack collision\n", 25);
20000716:	f04f 0000 	mov.w	r0, #0
2000071a:	f04f 0101 	mov.w	r1, #1
2000071e:	f247 727c 	movw	r2, #30588	; 0x777c
20000722:	f2c2 0200 	movt	r2, #8192	; 0x2000
20000726:	f04f 0319 	mov.w	r3, #25
2000072a:	f7ff ffbd 	bl	200006a8 <_write_r>
      _exit (1);
2000072e:	f04f 0001 	mov.w	r0, #1
20000732:	f7ff ffb3 	bl	2000069c <_exit>
    }
  
    heap_end += incr;
20000736:	f248 1384 	movw	r3, #33156	; 0x8184
2000073a:	f2c2 0300 	movt	r3, #8192	; 0x2000
2000073e:	681a      	ldr	r2, [r3, #0]
20000740:	687b      	ldr	r3, [r7, #4]
20000742:	441a      	add	r2, r3
20000744:	f248 1384 	movw	r3, #33156	; 0x8184
20000748:	f2c2 0300 	movt	r3, #8192	; 0x2000
2000074c:	601a      	str	r2, [r3, #0]
    return (caddr_t) prev_heap_end;
2000074e:	68bb      	ldr	r3, [r7, #8]
}
20000750:	4618      	mov	r0, r3
20000752:	f107 0710 	add.w	r7, r7, #16
20000756:	46bd      	mov	sp, r7
20000758:	bd80      	pop	{r7, pc}
2000075a:	bf00      	nop

2000075c <NVIC_ClearPendingIRQ>:
 *
 * Clear the pending bit for the specified interrupt. 
 * The interrupt number cannot be a negative value.
 */
static __INLINE void NVIC_ClearPendingIRQ(IRQn_Type IRQn)
{
2000075c:	b480      	push	{r7}
2000075e:	b083      	sub	sp, #12
20000760:	af00      	add	r7, sp, #0
20000762:	4603      	mov	r3, r0
20000764:	80fb      	strh	r3, [r7, #6]
  NVIC->ICPR[((uint32_t)(IRQn) >> 5)] = (1 << ((uint32_t)(IRQn) & 0x1F)); /* Clear pending interrupt */
20000766:	f24e 1300 	movw	r3, #57600	; 0xe100
2000076a:	f2ce 0300 	movt	r3, #57344	; 0xe000
2000076e:	f9b7 2006 	ldrsh.w	r2, [r7, #6]
20000772:	ea4f 1252 	mov.w	r2, r2, lsr #5
20000776:	88f9      	ldrh	r1, [r7, #6]
20000778:	f001 011f 	and.w	r1, r1, #31
2000077c:	f04f 0001 	mov.w	r0, #1
20000780:	fa00 f101 	lsl.w	r1, r0, r1
20000784:	f102 0260 	add.w	r2, r2, #96	; 0x60
20000788:	f843 1022 	str.w	r1, [r3, r2, lsl #2]
}
2000078c:	f107 070c 	add.w	r7, r7, #12
20000790:	46bd      	mov	sp, r7
20000792:	bc80      	pop	{r7}
20000794:	4770      	bx	lr
20000796:	bf00      	nop

20000798 <MSS_UART_init>:
(
    mss_uart_instance_t* this_uart,
    uint32_t baud_rate,
    uint8_t line_config
)
{
20000798:	b580      	push	{r7, lr}
2000079a:	b088      	sub	sp, #32
2000079c:	af00      	add	r7, sp, #0
2000079e:	60f8      	str	r0, [r7, #12]
200007a0:	60b9      	str	r1, [r7, #8]
200007a2:	4613      	mov	r3, r2
200007a4:	71fb      	strb	r3, [r7, #7]
    uint16_t baud_value = 1U;
200007a6:	f04f 0301 	mov.w	r3, #1
200007aa:	82fb      	strh	r3, [r7, #22]
    uint32_t pclk_freq = 0U;
200007ac:	f04f 0300 	mov.w	r3, #0
200007b0:	61bb      	str	r3, [r7, #24]
    uint32_t baud_value_l;

    /* The driver expects g_mss_uart0 and g_mss_uart1 to be the only
     * mss_uart_instance_t instances used to identify UART0 and UART1. */
    ASSERT( (this_uart == &g_mss_uart0) || (this_uart == &g_mss_uart1) );
200007b2:	68fa      	ldr	r2, [r7, #12]
200007b4:	f248 531c 	movw	r3, #34076	; 0x851c
200007b8:	f2c2 0300 	movt	r3, #8192	; 0x2000
200007bc:	429a      	cmp	r2, r3
200007be:	d007      	beq.n	200007d0 <MSS_UART_init+0x38>
200007c0:	68fa      	ldr	r2, [r7, #12]
200007c2:	f248 43f4 	movw	r3, #34036	; 0x84f4
200007c6:	f2c2 0300 	movt	r3, #8192	; 0x2000
200007ca:	429a      	cmp	r2, r3
200007cc:	d000      	beq.n	200007d0 <MSS_UART_init+0x38>
200007ce:	be00      	bkpt	0x0000

    /* baud_rate should be greater than 0 */
    ASSERT( 0U < baud_rate );
200007d0:	68bb      	ldr	r3, [r7, #8]
200007d2:	2b00      	cmp	r3, #0
200007d4:	d100      	bne.n	200007d8 <MSS_UART_init+0x40>
200007d6:	be00      	bkpt	0x0000

    /* Force the value of the CMSIS global variables holding the various system
     * clock frequencies to be updated. */
    SystemCoreClockUpdate();
200007d8:	f001 f91c 	bl	20001a14 <SystemCoreClockUpdate>

    if ( this_uart == &g_mss_uart0 )
200007dc:	68fa      	ldr	r2, [r7, #12]
200007de:	f248 531c 	movw	r3, #34076	; 0x851c
200007e2:	f2c2 0300 	movt	r3, #8192	; 0x2000
200007e6:	429a      	cmp	r2, r3
200007e8:	d12e      	bne.n	20000848 <MSS_UART_init+0xb0>
    {
        this_uart->hw_reg = UART0;
200007ea:	68fb      	ldr	r3, [r7, #12]
200007ec:	f04f 4280 	mov.w	r2, #1073741824	; 0x40000000
200007f0:	601a      	str	r2, [r3, #0]
        this_uart->hw_reg_bit = UART0_BITBAND;
200007f2:	68fb      	ldr	r3, [r7, #12]
200007f4:	f04f 4284 	mov.w	r2, #1107296256	; 0x42000000
200007f8:	605a      	str	r2, [r3, #4]
        this_uart->irqn = UART0_IRQn;
200007fa:	68fb      	ldr	r3, [r7, #12]
200007fc:	f04f 020a 	mov.w	r2, #10
20000800:	811a      	strh	r2, [r3, #8]

        pclk_freq = g_FrequencyPCLK0;
20000802:	f647 4314 	movw	r3, #31764	; 0x7c14
20000806:	f2c2 0300 	movt	r3, #8192	; 0x2000
2000080a:	681b      	ldr	r3, [r3, #0]
2000080c:	61bb      	str	r3, [r7, #24]

        /* reset UART0 */
        SYSREG->SOFT_RST_CR |= SYSREG_UART0_SOFTRESET_MASK;
2000080e:	f242 0300 	movw	r3, #8192	; 0x2000
20000812:	f2ce 0304 	movt	r3, #57348	; 0xe004
20000816:	f242 0200 	movw	r2, #8192	; 0x2000
2000081a:	f2ce 0204 	movt	r2, #57348	; 0xe004
2000081e:	6b12      	ldr	r2, [r2, #48]	; 0x30
20000820:	f042 0280 	orr.w	r2, r2, #128	; 0x80
20000824:	631a      	str	r2, [r3, #48]	; 0x30
        /* Clear any previously pended UART0 interrupt */
        NVIC_ClearPendingIRQ( UART0_IRQn );
20000826:	f04f 000a 	mov.w	r0, #10
2000082a:	f7ff ff97 	bl	2000075c <NVIC_ClearPendingIRQ>
        /* Take UART0 out of reset. */
        SYSREG->SOFT_RST_CR &= ~SYSREG_UART0_SOFTRESET_MASK;
2000082e:	f242 0300 	movw	r3, #8192	; 0x2000
20000832:	f2ce 0304 	movt	r3, #57348	; 0xe004
20000836:	f242 0200 	movw	r2, #8192	; 0x2000
2000083a:	f2ce 0204 	movt	r2, #57348	; 0xe004
2000083e:	6b12      	ldr	r2, [r2, #48]	; 0x30
20000840:	f022 0280 	bic.w	r2, r2, #128	; 0x80
20000844:	631a      	str	r2, [r3, #48]	; 0x30
20000846:	e031      	b.n	200008ac <MSS_UART_init+0x114>
    }
    else
    {
        this_uart->hw_reg = UART1;
20000848:	68fa      	ldr	r2, [r7, #12]
2000084a:	f240 0300 	movw	r3, #0
2000084e:	f2c4 0301 	movt	r3, #16385	; 0x4001
20000852:	6013      	str	r3, [r2, #0]
        this_uart->hw_reg_bit = UART1_BITBAND;
20000854:	68fa      	ldr	r2, [r7, #12]
20000856:	f240 0300 	movw	r3, #0
2000085a:	f2c4 2320 	movt	r3, #16928	; 0x4220
2000085e:	6053      	str	r3, [r2, #4]
        this_uart->irqn = UART1_IRQn;
20000860:	68fb      	ldr	r3, [r7, #12]
20000862:	f04f 020b 	mov.w	r2, #11
20000866:	811a      	strh	r2, [r3, #8]

        pclk_freq = g_FrequencyPCLK1;
20000868:	f647 4318 	movw	r3, #31768	; 0x7c18
2000086c:	f2c2 0300 	movt	r3, #8192	; 0x2000
20000870:	681b      	ldr	r3, [r3, #0]
20000872:	61bb      	str	r3, [r7, #24]

        /* Reset UART1 */
        SYSREG->SOFT_RST_CR |= SYSREG_UART1_SOFTRESET_MASK;
20000874:	f242 0300 	movw	r3, #8192	; 0x2000
20000878:	f2ce 0304 	movt	r3, #57348	; 0xe004
2000087c:	f242 0200 	movw	r2, #8192	; 0x2000
20000880:	f2ce 0204 	movt	r2, #57348	; 0xe004
20000884:	6b12      	ldr	r2, [r2, #48]	; 0x30
20000886:	f442 7280 	orr.w	r2, r2, #256	; 0x100
2000088a:	631a      	str	r2, [r3, #48]	; 0x30
        /* Clear any previously pended UART1 interrupt */
        NVIC_ClearPendingIRQ( UART1_IRQn );
2000088c:	f04f 000b 	mov.w	r0, #11
20000890:	f7ff ff64 	bl	2000075c <NVIC_ClearPendingIRQ>
        /* Take UART1 out of reset. */
        SYSREG->SOFT_RST_CR &= ~SYSREG_UART1_SOFTRESET_MASK;
20000894:	f242 0300 	movw	r3, #8192	; 0x2000
20000898:	f2ce 0304 	movt	r3, #57348	; 0xe004
2000089c:	f242 0200 	movw	r2, #8192	; 0x2000
200008a0:	f2ce 0204 	movt	r2, #57348	; 0xe004
200008a4:	6b12      	ldr	r2, [r2, #48]	; 0x30
200008a6:	f422 7280 	bic.w	r2, r2, #256	; 0x100
200008aa:	631a      	str	r2, [r3, #48]	; 0x30
    }

    /* disable interrupts */
    this_uart->hw_reg->IER = 0U;
200008ac:	68fb      	ldr	r3, [r7, #12]
200008ae:	681b      	ldr	r3, [r3, #0]
200008b0:	f04f 0200 	mov.w	r2, #0
200008b4:	711a      	strb	r2, [r3, #4]
     * The baud value is computed using the following equation:
     *      baud_value_l = PCLK_Frequency / (baud_rate * 16)
     * The baud value is rounded up or down depending on what would be the remainder
     * of the divide by 16 operation.
     */
    if( 0U < baud_rate )
200008b6:	68bb      	ldr	r3, [r7, #8]
200008b8:	2b00      	cmp	r3, #0
200008ba:	d021      	beq.n	20000900 <MSS_UART_init+0x168>
    {
        baud_value_l = (uint32_t)(pclk_freq / baud_rate);
200008bc:	69ba      	ldr	r2, [r7, #24]
200008be:	68bb      	ldr	r3, [r7, #8]
200008c0:	fbb2 f3f3 	udiv	r3, r2, r3
200008c4:	61fb      	str	r3, [r7, #28]
        if( baud_value_l & 0x00000008U )
200008c6:	69fb      	ldr	r3, [r7, #28]
200008c8:	f003 0308 	and.w	r3, r3, #8
200008cc:	2b00      	cmp	r3, #0
200008ce:	d006      	beq.n	200008de <MSS_UART_init+0x146>
        {
            /* remainder above 0.5 */
            baud_value_l = (baud_value_l >> 4U) + 1U;        
200008d0:	69fb      	ldr	r3, [r7, #28]
200008d2:	ea4f 1313 	mov.w	r3, r3, lsr #4
200008d6:	f103 0301 	add.w	r3, r3, #1
200008da:	61fb      	str	r3, [r7, #28]
200008dc:	e003      	b.n	200008e6 <MSS_UART_init+0x14e>
        }
        else
        {
            /* remainder below 0.5 */
            baud_value_l = (baud_value_l >> 4U);
200008de:	69fb      	ldr	r3, [r7, #28]
200008e0:	ea4f 1313 	mov.w	r3, r3, lsr #4
200008e4:	61fb      	str	r3, [r7, #28]
        }
    
        /* Check if the baud rate is supported by the PCLK */
        ASSERT( baud_value_l <= UINT16_MAX);
200008e6:	69fa      	ldr	r2, [r7, #28]
200008e8:	f64f 73ff 	movw	r3, #65535	; 0xffff
200008ec:	429a      	cmp	r2, r3
200008ee:	d900      	bls.n	200008f2 <MSS_UART_init+0x15a>
200008f0:	be00      	bkpt	0x0000
        if( baud_value_l <= (uint32_t)UINT16_MAX)
200008f2:	69fa      	ldr	r2, [r7, #28]
200008f4:	f64f 73ff 	movw	r3, #65535	; 0xffff
200008f8:	429a      	cmp	r2, r3
200008fa:	d801      	bhi.n	20000900 <MSS_UART_init+0x168>
        {
            baud_value = (uint16_t)baud_value_l;
200008fc:	69fb      	ldr	r3, [r7, #28]
200008fe:	82fb      	strh	r3, [r7, #22]
        }
    }
    
    /* set divisor latch */
    this_uart->hw_reg_bit->LCR_DLAB = (uint32_t)1;
20000900:	68fb      	ldr	r3, [r7, #12]
20000902:	685b      	ldr	r3, [r3, #4]
20000904:	f04f 0201 	mov.w	r2, #1
20000908:	f8c3 219c 	str.w	r2, [r3, #412]	; 0x19c

    /* msb of baud value */
    this_uart->hw_reg->DMR = (uint8_t)(baud_value >> 8);
2000090c:	68fb      	ldr	r3, [r7, #12]
2000090e:	681b      	ldr	r3, [r3, #0]
20000910:	8afa      	ldrh	r2, [r7, #22]
20000912:	ea4f 2212 	mov.w	r2, r2, lsr #8
20000916:	b292      	uxth	r2, r2
20000918:	b2d2      	uxtb	r2, r2
2000091a:	711a      	strb	r2, [r3, #4]
    /* lsb of baud value */
    this_uart->hw_reg->DLR = (uint8_t)baud_value;
2000091c:	68fb      	ldr	r3, [r7, #12]
2000091e:	681b      	ldr	r3, [r3, #0]
20000920:	8afa      	ldrh	r2, [r7, #22]
20000922:	b2d2      	uxtb	r2, r2
20000924:	701a      	strb	r2, [r3, #0]

    /* reset divisor latch */
    this_uart->hw_reg_bit->LCR_DLAB = (uint32_t)0;
20000926:	68fb      	ldr	r3, [r7, #12]
20000928:	685b      	ldr	r3, [r3, #4]
2000092a:	f04f 0200 	mov.w	r2, #0
2000092e:	f8c3 219c 	str.w	r2, [r3, #412]	; 0x19c

    /* set the line control register (bit length, stop bits, parity) */
    this_uart->hw_reg->LCR = line_config;
20000932:	68fb      	ldr	r3, [r7, #12]
20000934:	681b      	ldr	r3, [r3, #0]
20000936:	79fa      	ldrb	r2, [r7, #7]
20000938:	731a      	strb	r2, [r3, #12]

    /* FIFO configuration */
    /* RX FIFO length = 1 byte, clear receiver FIFO, 
       clear transmitter FIFO, enable RXRDYN and TXRDYN pins. */
    this_uart->hw_reg->FCR = (uint8_t)MSS_UART_FIFO_SINGLE_BYTE | 
2000093a:	68fb      	ldr	r3, [r7, #12]
2000093c:	681b      	ldr	r3, [r3, #0]
2000093e:	f04f 020e 	mov.w	r2, #14
20000942:	721a      	strb	r2, [r3, #8]
                              FCR_CLEAR_RX_FIFO_MASK | FCR_CLEAR_TX_FIFO_MASK | 
                              FCR_ENABLE_TXRDY_RXRDY_MASK;
    /* disable loopback */
    this_uart->hw_reg_bit->MCR_LOOP = (uint32_t)0;
20000944:	68fb      	ldr	r3, [r7, #12]
20000946:	685b      	ldr	r3, [r3, #4]
20000948:	f04f 0200 	mov.w	r2, #0
2000094c:	f8c3 2210 	str.w	r2, [r3, #528]	; 0x210

    /* Instance setup */
    this_uart->tx_buff_size = TX_COMPLETE;
20000950:	68fb      	ldr	r3, [r7, #12]
20000952:	f04f 0200 	mov.w	r2, #0
20000956:	611a      	str	r2, [r3, #16]
    this_uart->tx_buffer = (const uint8_t *)0;
20000958:	68fb      	ldr	r3, [r7, #12]
2000095a:	f04f 0200 	mov.w	r2, #0
2000095e:	60da      	str	r2, [r3, #12]
    this_uart->tx_idx = 0U;
20000960:	68fb      	ldr	r3, [r7, #12]
20000962:	f04f 0200 	mov.w	r2, #0
20000966:	615a      	str	r2, [r3, #20]

    /* Default handlers for MSS UART interrupts */
    this_uart->rx_handler       = NULL_HANDLER;
20000968:	68fb      	ldr	r3, [r7, #12]
2000096a:	f04f 0200 	mov.w	r2, #0
2000096e:	61da      	str	r2, [r3, #28]
    this_uart->tx_handler       = default_tx_handler;
20000970:	68fa      	ldr	r2, [r7, #12]
20000972:	f640 436d 	movw	r3, #3181	; 0xc6d
20000976:	f2c2 0300 	movt	r3, #8192	; 0x2000
2000097a:	6213      	str	r3, [r2, #32]
    this_uart->linests_handler  = NULL_HANDLER;
2000097c:	68fb      	ldr	r3, [r7, #12]
2000097e:	f04f 0200 	mov.w	r2, #0
20000982:	619a      	str	r2, [r3, #24]
    this_uart->modemsts_handler = NULL_HANDLER;
20000984:	68fb      	ldr	r3, [r7, #12]
20000986:	f04f 0200 	mov.w	r2, #0
2000098a:	625a      	str	r2, [r3, #36]	; 0x24

    /* Initialize the sticky status */
    this_uart->status = 0U;
2000098c:	68fb      	ldr	r3, [r7, #12]
2000098e:	f04f 0200 	mov.w	r2, #0
20000992:	729a      	strb	r2, [r3, #10]
}
20000994:	f107 0720 	add.w	r7, r7, #32
20000998:	46bd      	mov	sp, r7
2000099a:	bd80      	pop	{r7, pc}

2000099c <MSS_UART_polled_tx>:
(
    mss_uart_instance_t * this_uart,
    const uint8_t * pbuff,
    uint32_t tx_size
)
{
2000099c:	b480      	push	{r7}
2000099e:	b089      	sub	sp, #36	; 0x24
200009a0:	af00      	add	r7, sp, #0
200009a2:	60f8      	str	r0, [r7, #12]
200009a4:	60b9      	str	r1, [r7, #8]
200009a6:	607a      	str	r2, [r7, #4]
    uint32_t char_idx = 0U;
200009a8:	f04f 0300 	mov.w	r3, #0
200009ac:	613b      	str	r3, [r7, #16]
    uint32_t size_sent;
    uint8_t status;

    ASSERT( (this_uart == &g_mss_uart0) || (this_uart == &g_mss_uart1) );
200009ae:	68fa      	ldr	r2, [r7, #12]
200009b0:	f248 531c 	movw	r3, #34076	; 0x851c
200009b4:	f2c2 0300 	movt	r3, #8192	; 0x2000
200009b8:	429a      	cmp	r2, r3
200009ba:	d007      	beq.n	200009cc <MSS_UART_polled_tx+0x30>
200009bc:	68fa      	ldr	r2, [r7, #12]
200009be:	f248 43f4 	movw	r3, #34036	; 0x84f4
200009c2:	f2c2 0300 	movt	r3, #8192	; 0x2000
200009c6:	429a      	cmp	r2, r3
200009c8:	d000      	beq.n	200009cc <MSS_UART_polled_tx+0x30>
200009ca:	be00      	bkpt	0x0000
    ASSERT( pbuff != ( (uint8_t *)0 ) );
200009cc:	68bb      	ldr	r3, [r7, #8]
200009ce:	2b00      	cmp	r3, #0
200009d0:	d100      	bne.n	200009d4 <MSS_UART_polled_tx+0x38>
200009d2:	be00      	bkpt	0x0000
    ASSERT( tx_size > 0U );
200009d4:	687b      	ldr	r3, [r7, #4]
200009d6:	2b00      	cmp	r3, #0
200009d8:	d100      	bne.n	200009dc <MSS_UART_polled_tx+0x40>
200009da:	be00      	bkpt	0x0000

    if( ( (this_uart == &g_mss_uart0) || (this_uart == &g_mss_uart1) ) &&
200009dc:	68fa      	ldr	r2, [r7, #12]
200009de:	f248 531c 	movw	r3, #34076	; 0x851c
200009e2:	f2c2 0300 	movt	r3, #8192	; 0x2000
200009e6:	429a      	cmp	r2, r3
200009e8:	d006      	beq.n	200009f8 <MSS_UART_polled_tx+0x5c>
200009ea:	68fa      	ldr	r2, [r7, #12]
200009ec:	f248 43f4 	movw	r3, #34036	; 0x84f4
200009f0:	f2c2 0300 	movt	r3, #8192	; 0x2000
200009f4:	429a      	cmp	r2, r3
200009f6:	d13d      	bne.n	20000a74 <MSS_UART_polled_tx+0xd8>
200009f8:	68bb      	ldr	r3, [r7, #8]
200009fa:	2b00      	cmp	r3, #0
200009fc:	d03a      	beq.n	20000a74 <MSS_UART_polled_tx+0xd8>
200009fe:	687b      	ldr	r3, [r7, #4]
20000a00:	2b00      	cmp	r3, #0
20000a02:	d037      	beq.n	20000a74 <MSS_UART_polled_tx+0xd8>
         /* Remain in this loop until the entire input buffer
          * has been transferred to the UART.
          */
        do {
            /* Read the Line Status Register and update the sticky record */
            status = this_uart->hw_reg->LSR;
20000a04:	68fb      	ldr	r3, [r7, #12]
20000a06:	681b      	ldr	r3, [r3, #0]
20000a08:	7d1b      	ldrb	r3, [r3, #20]
20000a0a:	76fb      	strb	r3, [r7, #27]
            this_uart->status |= status;
20000a0c:	68fb      	ldr	r3, [r7, #12]
20000a0e:	7a9a      	ldrb	r2, [r3, #10]
20000a10:	7efb      	ldrb	r3, [r7, #27]
20000a12:	ea42 0303 	orr.w	r3, r2, r3
20000a16:	b2da      	uxtb	r2, r3
20000a18:	68fb      	ldr	r3, [r7, #12]
20000a1a:	729a      	strb	r2, [r3, #10]

            /* Check if TX FIFO is empty. */
            if( status & MSS_UART_THRE )
20000a1c:	7efb      	ldrb	r3, [r7, #27]
20000a1e:	f003 0320 	and.w	r3, r3, #32
20000a22:	2b00      	cmp	r3, #0
20000a24:	d023      	beq.n	20000a6e <MSS_UART_polled_tx+0xd2>
            {
                uint32_t fill_size = TX_FIFO_SIZE;
20000a26:	f04f 0310 	mov.w	r3, #16
20000a2a:	61fb      	str	r3, [r7, #28]

                /* Calculate the number of bytes to transmit. */
                if ( tx_size < TX_FIFO_SIZE )
20000a2c:	687b      	ldr	r3, [r7, #4]
20000a2e:	2b0f      	cmp	r3, #15
20000a30:	d801      	bhi.n	20000a36 <MSS_UART_polled_tx+0x9a>
                {
                    fill_size = tx_size;
20000a32:	687b      	ldr	r3, [r7, #4]
20000a34:	61fb      	str	r3, [r7, #28]
                }

                /* Fill the TX FIFO with the calculated the number of bytes. */
                for ( size_sent = 0U; size_sent < fill_size; ++size_sent )
20000a36:	f04f 0300 	mov.w	r3, #0
20000a3a:	617b      	str	r3, [r7, #20]
20000a3c:	e00e      	b.n	20000a5c <MSS_UART_polled_tx+0xc0>
                {
                    /* Send next character in the buffer. */
                    this_uart->hw_reg->THR = pbuff[char_idx++];
20000a3e:	68fb      	ldr	r3, [r7, #12]
20000a40:	681b      	ldr	r3, [r3, #0]
20000a42:	68b9      	ldr	r1, [r7, #8]
20000a44:	693a      	ldr	r2, [r7, #16]
20000a46:	440a      	add	r2, r1
20000a48:	7812      	ldrb	r2, [r2, #0]
20000a4a:	701a      	strb	r2, [r3, #0]
20000a4c:	693b      	ldr	r3, [r7, #16]
20000a4e:	f103 0301 	add.w	r3, r3, #1
20000a52:	613b      	str	r3, [r7, #16]
                {
                    fill_size = tx_size;
                }

                /* Fill the TX FIFO with the calculated the number of bytes. */
                for ( size_sent = 0U; size_sent < fill_size; ++size_sent )
20000a54:	697b      	ldr	r3, [r7, #20]
20000a56:	f103 0301 	add.w	r3, r3, #1
20000a5a:	617b      	str	r3, [r7, #20]
20000a5c:	697a      	ldr	r2, [r7, #20]
20000a5e:	69fb      	ldr	r3, [r7, #28]
20000a60:	429a      	cmp	r2, r3
20000a62:	d3ec      	bcc.n	20000a3e <MSS_UART_polled_tx+0xa2>
                    /* Send next character in the buffer. */
                    this_uart->hw_reg->THR = pbuff[char_idx++];
                }

                /* Calculate the number of untransmitted bytes remaining. */
                tx_size -= size_sent;
20000a64:	687a      	ldr	r2, [r7, #4]
20000a66:	697b      	ldr	r3, [r7, #20]
20000a68:	ebc3 0302 	rsb	r3, r3, r2
20000a6c:	607b      	str	r3, [r7, #4]
            }
        }while( tx_size );
20000a6e:	687b      	ldr	r3, [r7, #4]
20000a70:	2b00      	cmp	r3, #0
20000a72:	d1c7      	bne.n	20000a04 <MSS_UART_polled_tx+0x68>
    }
}
20000a74:	f107 0724 	add.w	r7, r7, #36	; 0x24
20000a78:	46bd      	mov	sp, r7
20000a7a:	bc80      	pop	{r7}
20000a7c:	4770      	bx	lr
20000a7e:	bf00      	nop

20000a80 <MSS_UART_polled_tx_string>:
MSS_UART_polled_tx_string
(
    mss_uart_instance_t * this_uart,
    const uint8_t * p_sz_string
)
{
20000a80:	b480      	push	{r7}
20000a82:	b087      	sub	sp, #28
20000a84:	af00      	add	r7, sp, #0
20000a86:	6078      	str	r0, [r7, #4]
20000a88:	6039      	str	r1, [r7, #0]
    uint32_t char_idx = 0U;
20000a8a:	f04f 0300 	mov.w	r3, #0
20000a8e:	60bb      	str	r3, [r7, #8]
    uint32_t fill_size;
    uint_fast8_t data_byte;
    uint8_t status;

    ASSERT( (this_uart == &g_mss_uart0) || (this_uart == &g_mss_uart1) );
20000a90:	687a      	ldr	r2, [r7, #4]
20000a92:	f248 531c 	movw	r3, #34076	; 0x851c
20000a96:	f2c2 0300 	movt	r3, #8192	; 0x2000
20000a9a:	429a      	cmp	r2, r3
20000a9c:	d007      	beq.n	20000aae <MSS_UART_polled_tx_string+0x2e>
20000a9e:	687a      	ldr	r2, [r7, #4]
20000aa0:	f248 43f4 	movw	r3, #34036	; 0x84f4
20000aa4:	f2c2 0300 	movt	r3, #8192	; 0x2000
20000aa8:	429a      	cmp	r2, r3
20000aaa:	d000      	beq.n	20000aae <MSS_UART_polled_tx_string+0x2e>
20000aac:	be00      	bkpt	0x0000
    ASSERT( p_sz_string != ( (uint8_t *)0 ) );
20000aae:	683b      	ldr	r3, [r7, #0]
20000ab0:	2b00      	cmp	r3, #0
20000ab2:	d100      	bne.n	20000ab6 <MSS_UART_polled_tx_string+0x36>
20000ab4:	be00      	bkpt	0x0000

    if( ( (this_uart == &g_mss_uart0) || (this_uart == &g_mss_uart1) ) &&
20000ab6:	687a      	ldr	r2, [r7, #4]
20000ab8:	f248 531c 	movw	r3, #34076	; 0x851c
20000abc:	f2c2 0300 	movt	r3, #8192	; 0x2000
20000ac0:	429a      	cmp	r2, r3
20000ac2:	d006      	beq.n	20000ad2 <MSS_UART_polled_tx_string+0x52>
20000ac4:	687a      	ldr	r2, [r7, #4]
20000ac6:	f248 43f4 	movw	r3, #34036	; 0x84f4
20000aca:	f2c2 0300 	movt	r3, #8192	; 0x2000
20000ace:	429a      	cmp	r2, r3
20000ad0:	d138      	bne.n	20000b44 <MSS_UART_polled_tx_string+0xc4>
20000ad2:	683b      	ldr	r3, [r7, #0]
20000ad4:	2b00      	cmp	r3, #0
20000ad6:	d035      	beq.n	20000b44 <MSS_UART_polled_tx_string+0xc4>
          ( p_sz_string != ( (uint8_t *)0 ) ) )
    {
        /* Get the first data byte from the input buffer */
        data_byte = (uint_fast8_t)p_sz_string[char_idx];
20000ad8:	683a      	ldr	r2, [r7, #0]
20000ada:	68bb      	ldr	r3, [r7, #8]
20000adc:	4413      	add	r3, r2
20000ade:	781b      	ldrb	r3, [r3, #0]
20000ae0:	613b      	str	r3, [r7, #16]

        /* First check for the NULL terminator byte.
         * Then remain in this loop until the entire string in the input buffer
         * has been transferred to the UART.
         */
        while ( 0U != data_byte )
20000ae2:	e02c      	b.n	20000b3e <MSS_UART_polled_tx_string+0xbe>
        {
            /* Wait until TX FIFO is empty. */
            do {
                status = this_uart->hw_reg->LSR;
20000ae4:	687b      	ldr	r3, [r7, #4]
20000ae6:	681b      	ldr	r3, [r3, #0]
20000ae8:	7d1b      	ldrb	r3, [r3, #20]
20000aea:	75fb      	strb	r3, [r7, #23]
                this_uart->status |= status;
20000aec:	687b      	ldr	r3, [r7, #4]
20000aee:	7a9a      	ldrb	r2, [r3, #10]
20000af0:	7dfb      	ldrb	r3, [r7, #23]
20000af2:	ea42 0303 	orr.w	r3, r2, r3
20000af6:	b2da      	uxtb	r2, r3
20000af8:	687b      	ldr	r3, [r7, #4]
20000afa:	729a      	strb	r2, [r3, #10]
            } while ( !( status & MSS_UART_THRE ) );
20000afc:	7dfb      	ldrb	r3, [r7, #23]
20000afe:	f003 0320 	and.w	r3, r3, #32
20000b02:	2b00      	cmp	r3, #0
20000b04:	d0ee      	beq.n	20000ae4 <MSS_UART_polled_tx_string+0x64>

            /* Send bytes from the input buffer until the TX FIFO is full
             * or we reach the NULL terminator byte.
             */
            fill_size = 0U;
20000b06:	f04f 0300 	mov.w	r3, #0
20000b0a:	60fb      	str	r3, [r7, #12]
            while ( (0U != data_byte) && (fill_size < TX_FIFO_SIZE) )
20000b0c:	e011      	b.n	20000b32 <MSS_UART_polled_tx_string+0xb2>
            {
                /* Send the data byte */
                this_uart->hw_reg->THR = data_byte;
20000b0e:	687b      	ldr	r3, [r7, #4]
20000b10:	681b      	ldr	r3, [r3, #0]
20000b12:	693a      	ldr	r2, [r7, #16]
20000b14:	b2d2      	uxtb	r2, r2
20000b16:	701a      	strb	r2, [r3, #0]
                ++fill_size;
20000b18:	68fb      	ldr	r3, [r7, #12]
20000b1a:	f103 0301 	add.w	r3, r3, #1
20000b1e:	60fb      	str	r3, [r7, #12]
                char_idx++;
20000b20:	68bb      	ldr	r3, [r7, #8]
20000b22:	f103 0301 	add.w	r3, r3, #1
20000b26:	60bb      	str	r3, [r7, #8]
                /* Get the next data byte from the input buffer */
                data_byte = (uint_fast8_t)p_sz_string[char_idx];
20000b28:	683a      	ldr	r2, [r7, #0]
20000b2a:	68bb      	ldr	r3, [r7, #8]
20000b2c:	4413      	add	r3, r2
20000b2e:	781b      	ldrb	r3, [r3, #0]
20000b30:	613b      	str	r3, [r7, #16]

            /* Send bytes from the input buffer until the TX FIFO is full
             * or we reach the NULL terminator byte.
             */
            fill_size = 0U;
            while ( (0U != data_byte) && (fill_size < TX_FIFO_SIZE) )
20000b32:	693b      	ldr	r3, [r7, #16]
20000b34:	2b00      	cmp	r3, #0
20000b36:	d002      	beq.n	20000b3e <MSS_UART_polled_tx_string+0xbe>
20000b38:	68fb      	ldr	r3, [r7, #12]
20000b3a:	2b0f      	cmp	r3, #15
20000b3c:	d9e7      	bls.n	20000b0e <MSS_UART_polled_tx_string+0x8e>

        /* First check for the NULL terminator byte.
         * Then remain in this loop until the entire string in the input buffer
         * has been transferred to the UART.
         */
        while ( 0U != data_byte )
20000b3e:	693b      	ldr	r3, [r7, #16]
20000b40:	2b00      	cmp	r3, #0
20000b42:	d1cf      	bne.n	20000ae4 <MSS_UART_polled_tx_string+0x64>
                /* Get the next data byte from the input buffer */
                data_byte = (uint_fast8_t)p_sz_string[char_idx];
            }
        }
    }
}
20000b44:	f107 071c 	add.w	r7, r7, #28
20000b48:	46bd      	mov	sp, r7
20000b4a:	bc80      	pop	{r7}
20000b4c:	4770      	bx	lr
20000b4e:	bf00      	nop

20000b50 <MSS_UART_isr>:
static void
MSS_UART_isr
(
    mss_uart_instance_t * this_uart
)
{
20000b50:	b580      	push	{r7, lr}
20000b52:	b084      	sub	sp, #16
20000b54:	af00      	add	r7, sp, #0
20000b56:	6078      	str	r0, [r7, #4]
    uint8_t iirf;

    ASSERT( (this_uart == &g_mss_uart0) || (this_uart == &g_mss_uart1) );
20000b58:	687a      	ldr	r2, [r7, #4]
20000b5a:	f248 531c 	movw	r3, #34076	; 0x851c
20000b5e:	f2c2 0300 	movt	r3, #8192	; 0x2000
20000b62:	429a      	cmp	r2, r3
20000b64:	d007      	beq.n	20000b76 <MSS_UART_isr+0x26>
20000b66:	687a      	ldr	r2, [r7, #4]
20000b68:	f248 43f4 	movw	r3, #34036	; 0x84f4
20000b6c:	f2c2 0300 	movt	r3, #8192	; 0x2000
20000b70:	429a      	cmp	r2, r3
20000b72:	d000      	beq.n	20000b76 <MSS_UART_isr+0x26>
20000b74:	be00      	bkpt	0x0000

    if ( (this_uart == &g_mss_uart0) || (this_uart == &g_mss_uart1) )
20000b76:	687a      	ldr	r2, [r7, #4]
20000b78:	f248 531c 	movw	r3, #34076	; 0x851c
20000b7c:	f2c2 0300 	movt	r3, #8192	; 0x2000
20000b80:	429a      	cmp	r2, r3
20000b82:	d006      	beq.n	20000b92 <MSS_UART_isr+0x42>
20000b84:	687a      	ldr	r2, [r7, #4]
20000b86:	f248 43f4 	movw	r3, #34036	; 0x84f4
20000b8a:	f2c2 0300 	movt	r3, #8192	; 0x2000
20000b8e:	429a      	cmp	r2, r3
20000b90:	d167      	bne.n	20000c62 <MSS_UART_isr+0x112>
    {
        iirf = this_uart->hw_reg->IIR & IIRF_MASK;
20000b92:	687b      	ldr	r3, [r7, #4]
20000b94:	681b      	ldr	r3, [r3, #0]
20000b96:	7a1b      	ldrb	r3, [r3, #8]
20000b98:	b2db      	uxtb	r3, r3
20000b9a:	f003 030f 	and.w	r3, r3, #15
20000b9e:	73fb      	strb	r3, [r7, #15]

        switch ( iirf )
20000ba0:	7bfb      	ldrb	r3, [r7, #15]
20000ba2:	2b0c      	cmp	r3, #12
20000ba4:	d854      	bhi.n	20000c50 <MSS_UART_isr+0x100>
20000ba6:	a201      	add	r2, pc, #4	; (adr r2, 20000bac <MSS_UART_isr+0x5c>)
20000ba8:	f852 f023 	ldr.w	pc, [r2, r3, lsl #2]
20000bac:	20000be1 	.word	0x20000be1
20000bb0:	20000c51 	.word	0x20000c51
20000bb4:	20000bfd 	.word	0x20000bfd
20000bb8:	20000c51 	.word	0x20000c51
20000bbc:	20000c19 	.word	0x20000c19
20000bc0:	20000c51 	.word	0x20000c51
20000bc4:	20000c35 	.word	0x20000c35
20000bc8:	20000c51 	.word	0x20000c51
20000bcc:	20000c51 	.word	0x20000c51
20000bd0:	20000c51 	.word	0x20000c51
20000bd4:	20000c51 	.word	0x20000c51
20000bd8:	20000c51 	.word	0x20000c51
20000bdc:	20000c19 	.word	0x20000c19
        {
            case IIRF_MODEM_STATUS:  /* Modem status interrupt */
            {
                ASSERT( NULL_HANDLER != this_uart->modemsts_handler );
20000be0:	687b      	ldr	r3, [r7, #4]
20000be2:	6a5b      	ldr	r3, [r3, #36]	; 0x24
20000be4:	2b00      	cmp	r3, #0
20000be6:	d100      	bne.n	20000bea <MSS_UART_isr+0x9a>
20000be8:	be00      	bkpt	0x0000
                if( NULL_HANDLER != this_uart->modemsts_handler )
20000bea:	687b      	ldr	r3, [r7, #4]
20000bec:	6a5b      	ldr	r3, [r3, #36]	; 0x24
20000bee:	2b00      	cmp	r3, #0
20000bf0:	d030      	beq.n	20000c54 <MSS_UART_isr+0x104>
                {
                   (*(this_uart->modemsts_handler))( this_uart );
20000bf2:	687b      	ldr	r3, [r7, #4]
20000bf4:	6a5b      	ldr	r3, [r3, #36]	; 0x24
20000bf6:	6878      	ldr	r0, [r7, #4]
20000bf8:	4798      	blx	r3
                }
            }
            break;
20000bfa:	e032      	b.n	20000c62 <MSS_UART_isr+0x112>

            case IIRF_THRE: /* Transmitter Holding Register Empty */
            {
                ASSERT( NULL_HANDLER != this_uart->tx_handler );
20000bfc:	687b      	ldr	r3, [r7, #4]
20000bfe:	6a1b      	ldr	r3, [r3, #32]
20000c00:	2b00      	cmp	r3, #0
20000c02:	d100      	bne.n	20000c06 <MSS_UART_isr+0xb6>
20000c04:	be00      	bkpt	0x0000
                if ( NULL_HANDLER != this_uart->tx_handler )
20000c06:	687b      	ldr	r3, [r7, #4]
20000c08:	6a1b      	ldr	r3, [r3, #32]
20000c0a:	2b00      	cmp	r3, #0
20000c0c:	d024      	beq.n	20000c58 <MSS_UART_isr+0x108>
                {
                    (*(this_uart->tx_handler))( this_uart );
20000c0e:	687b      	ldr	r3, [r7, #4]
20000c10:	6a1b      	ldr	r3, [r3, #32]
20000c12:	6878      	ldr	r0, [r7, #4]
20000c14:	4798      	blx	r3
                }
            }
            break;
20000c16:	e024      	b.n	20000c62 <MSS_UART_isr+0x112>

            case IIRF_RX_DATA:      /* Received Data Available */
            case IIRF_DATA_TIMEOUT: /* Received Data Timed-out */
            {
                ASSERT( NULL_HANDLER != this_uart->rx_handler );
20000c18:	687b      	ldr	r3, [r7, #4]
20000c1a:	69db      	ldr	r3, [r3, #28]
20000c1c:	2b00      	cmp	r3, #0
20000c1e:	d100      	bne.n	20000c22 <MSS_UART_isr+0xd2>
20000c20:	be00      	bkpt	0x0000
                if ( NULL_HANDLER != this_uart->rx_handler )
20000c22:	687b      	ldr	r3, [r7, #4]
20000c24:	69db      	ldr	r3, [r3, #28]
20000c26:	2b00      	cmp	r3, #0
20000c28:	d018      	beq.n	20000c5c <MSS_UART_isr+0x10c>
                {
                    (*(this_uart->rx_handler))( this_uart );
20000c2a:	687b      	ldr	r3, [r7, #4]
20000c2c:	69db      	ldr	r3, [r3, #28]
20000c2e:	6878      	ldr	r0, [r7, #4]
20000c30:	4798      	blx	r3
                }
            }
            break;
20000c32:	e016      	b.n	20000c62 <MSS_UART_isr+0x112>

            case IIRF_RX_LINE_STATUS:  /* Line Status Interrupt */
            {
                ASSERT( NULL_HANDLER != this_uart->linests_handler );
20000c34:	687b      	ldr	r3, [r7, #4]
20000c36:	699b      	ldr	r3, [r3, #24]
20000c38:	2b00      	cmp	r3, #0
20000c3a:	d100      	bne.n	20000c3e <MSS_UART_isr+0xee>
20000c3c:	be00      	bkpt	0x0000
                if ( NULL_HANDLER != this_uart->linests_handler )
20000c3e:	687b      	ldr	r3, [r7, #4]
20000c40:	699b      	ldr	r3, [r3, #24]
20000c42:	2b00      	cmp	r3, #0
20000c44:	d00c      	beq.n	20000c60 <MSS_UART_isr+0x110>
                {
                   (*(this_uart->linests_handler))( this_uart );
20000c46:	687b      	ldr	r3, [r7, #4]
20000c48:	699b      	ldr	r3, [r3, #24]
20000c4a:	6878      	ldr	r0, [r7, #4]
20000c4c:	4798      	blx	r3
                }
            }
            break;
20000c4e:	e008      	b.n	20000c62 <MSS_UART_isr+0x112>

            default:
            {
                ASSERT( INVALID_INTERRUPT );
20000c50:	be00      	bkpt	0x0000
20000c52:	e006      	b.n	20000c62 <MSS_UART_isr+0x112>
                if( NULL_HANDLER != this_uart->modemsts_handler )
                {
                   (*(this_uart->modemsts_handler))( this_uart );
                }
            }
            break;
20000c54:	bf00      	nop
20000c56:	e004      	b.n	20000c62 <MSS_UART_isr+0x112>
                if ( NULL_HANDLER != this_uart->tx_handler )
                {
                    (*(this_uart->tx_handler))( this_uart );
                }
            }
            break;
20000c58:	bf00      	nop
20000c5a:	e002      	b.n	20000c62 <MSS_UART_isr+0x112>
                if ( NULL_HANDLER != this_uart->rx_handler )
                {
                    (*(this_uart->rx_handler))( this_uart );
                }
            }
            break;
20000c5c:	bf00      	nop
20000c5e:	e000      	b.n	20000c62 <MSS_UART_isr+0x112>
                if ( NULL_HANDLER != this_uart->linests_handler )
                {
                   (*(this_uart->linests_handler))( this_uart );
                }
            }
            break;
20000c60:	bf00      	nop
                ASSERT( INVALID_INTERRUPT );
            }
            break;
        }
    }
}
20000c62:	f107 0710 	add.w	r7, r7, #16
20000c66:	46bd      	mov	sp, r7
20000c68:	bd80      	pop	{r7, pc}
20000c6a:	bf00      	nop

20000c6c <default_tx_handler>:
static void
default_tx_handler
(
    mss_uart_instance_t * this_uart
)
{
20000c6c:	b480      	push	{r7}
20000c6e:	b087      	sub	sp, #28
20000c70:	af00      	add	r7, sp, #0
20000c72:	6078      	str	r0, [r7, #4]
    uint8_t status;

    ASSERT( (this_uart == &g_mss_uart0) || (this_uart == &g_mss_uart1) );
20000c74:	687a      	ldr	r2, [r7, #4]
20000c76:	f248 531c 	movw	r3, #34076	; 0x851c
20000c7a:	f2c2 0300 	movt	r3, #8192	; 0x2000
20000c7e:	429a      	cmp	r2, r3
20000c80:	d007      	beq.n	20000c92 <default_tx_handler+0x26>
20000c82:	687a      	ldr	r2, [r7, #4]
20000c84:	f248 43f4 	movw	r3, #34036	; 0x84f4
20000c88:	f2c2 0300 	movt	r3, #8192	; 0x2000
20000c8c:	429a      	cmp	r2, r3
20000c8e:	d000      	beq.n	20000c92 <default_tx_handler+0x26>
20000c90:	be00      	bkpt	0x0000
    ASSERT( ( (uint8_t *)0 ) != this_uart->tx_buffer );
20000c92:	687b      	ldr	r3, [r7, #4]
20000c94:	68db      	ldr	r3, [r3, #12]
20000c96:	2b00      	cmp	r3, #0
20000c98:	d100      	bne.n	20000c9c <default_tx_handler+0x30>
20000c9a:	be00      	bkpt	0x0000
    ASSERT( 0U < this_uart->tx_buff_size );
20000c9c:	687b      	ldr	r3, [r7, #4]
20000c9e:	691b      	ldr	r3, [r3, #16]
20000ca0:	2b00      	cmp	r3, #0
20000ca2:	d100      	bne.n	20000ca6 <default_tx_handler+0x3a>
20000ca4:	be00      	bkpt	0x0000

    if( ( (this_uart == &g_mss_uart0) || (this_uart == &g_mss_uart1) ) &&
20000ca6:	687a      	ldr	r2, [r7, #4]
20000ca8:	f248 531c 	movw	r3, #34076	; 0x851c
20000cac:	f2c2 0300 	movt	r3, #8192	; 0x2000
20000cb0:	429a      	cmp	r2, r3
20000cb2:	d006      	beq.n	20000cc2 <default_tx_handler+0x56>
20000cb4:	687a      	ldr	r2, [r7, #4]
20000cb6:	f248 43f4 	movw	r3, #34036	; 0x84f4
20000cba:	f2c2 0300 	movt	r3, #8192	; 0x2000
20000cbe:	429a      	cmp	r2, r3
20000cc0:	d152      	bne.n	20000d68 <default_tx_handler+0xfc>
        ( ( (uint8_t *)0 ) != this_uart->tx_buffer ) &&
20000cc2:	687b      	ldr	r3, [r7, #4]
20000cc4:	68db      	ldr	r3, [r3, #12]

    ASSERT( (this_uart == &g_mss_uart0) || (this_uart == &g_mss_uart1) );
    ASSERT( ( (uint8_t *)0 ) != this_uart->tx_buffer );
    ASSERT( 0U < this_uart->tx_buff_size );

    if( ( (this_uart == &g_mss_uart0) || (this_uart == &g_mss_uart1) ) &&
20000cc6:	2b00      	cmp	r3, #0
20000cc8:	d04e      	beq.n	20000d68 <default_tx_handler+0xfc>
        ( ( (uint8_t *)0 ) != this_uart->tx_buffer ) &&
        ( 0U < this_uart->tx_buff_size ) )
20000cca:	687b      	ldr	r3, [r7, #4]
20000ccc:	691b      	ldr	r3, [r3, #16]

    ASSERT( (this_uart == &g_mss_uart0) || (this_uart == &g_mss_uart1) );
    ASSERT( ( (uint8_t *)0 ) != this_uart->tx_buffer );
    ASSERT( 0U < this_uart->tx_buff_size );

    if( ( (this_uart == &g_mss_uart0) || (this_uart == &g_mss_uart1) ) &&
20000cce:	2b00      	cmp	r3, #0
20000cd0:	d04a      	beq.n	20000d68 <default_tx_handler+0xfc>
        ( ( (uint8_t *)0 ) != this_uart->tx_buffer ) &&
        ( 0U < this_uart->tx_buff_size ) )
    {
        /* Read the Line Status Register and update the sticky record. */
        status = this_uart->hw_reg->LSR;
20000cd2:	687b      	ldr	r3, [r7, #4]
20000cd4:	681b      	ldr	r3, [r3, #0]
20000cd6:	7d1b      	ldrb	r3, [r3, #20]
20000cd8:	72fb      	strb	r3, [r7, #11]
        this_uart->status |= status;
20000cda:	687b      	ldr	r3, [r7, #4]
20000cdc:	7a9a      	ldrb	r2, [r3, #10]
20000cde:	7afb      	ldrb	r3, [r7, #11]
20000ce0:	ea42 0303 	orr.w	r3, r2, r3
20000ce4:	b2da      	uxtb	r2, r3
20000ce6:	687b      	ldr	r3, [r7, #4]
20000ce8:	729a      	strb	r2, [r3, #10]

        /*
         * This function should only be called as a result of a THRE interrupt.
         * Verify that this is true before proceeding to transmit data.
         */
        if ( status & MSS_UART_THRE )
20000cea:	7afb      	ldrb	r3, [r7, #11]
20000cec:	f003 0320 	and.w	r3, r3, #32
20000cf0:	2b00      	cmp	r3, #0
20000cf2:	d029      	beq.n	20000d48 <default_tx_handler+0xdc>
        {
            uint32_t i;
            uint32_t fill_size = TX_FIFO_SIZE;
20000cf4:	f04f 0310 	mov.w	r3, #16
20000cf8:	613b      	str	r3, [r7, #16]
            uint32_t tx_remain = this_uart->tx_buff_size - this_uart->tx_idx;
20000cfa:	687b      	ldr	r3, [r7, #4]
20000cfc:	691a      	ldr	r2, [r3, #16]
20000cfe:	687b      	ldr	r3, [r7, #4]
20000d00:	695b      	ldr	r3, [r3, #20]
20000d02:	ebc3 0302 	rsb	r3, r3, r2
20000d06:	617b      	str	r3, [r7, #20]

            /* Calculate the number of bytes to transmit. */
            if ( tx_remain < TX_FIFO_SIZE )
20000d08:	697b      	ldr	r3, [r7, #20]
20000d0a:	2b0f      	cmp	r3, #15
20000d0c:	d801      	bhi.n	20000d12 <default_tx_handler+0xa6>
            {
                fill_size = tx_remain;
20000d0e:	697b      	ldr	r3, [r7, #20]
20000d10:	613b      	str	r3, [r7, #16]
            }

            /* Fill the TX FIFO with the calculated the number of bytes. */
            for ( i = 0U; i < fill_size; ++i )
20000d12:	f04f 0300 	mov.w	r3, #0
20000d16:	60fb      	str	r3, [r7, #12]
20000d18:	e012      	b.n	20000d40 <default_tx_handler+0xd4>
            {
                /* Send next character in the buffer. */
                this_uart->hw_reg->THR = this_uart->tx_buffer[this_uart->tx_idx];
20000d1a:	687b      	ldr	r3, [r7, #4]
20000d1c:	681b      	ldr	r3, [r3, #0]
20000d1e:	687a      	ldr	r2, [r7, #4]
20000d20:	68d1      	ldr	r1, [r2, #12]
20000d22:	687a      	ldr	r2, [r7, #4]
20000d24:	6952      	ldr	r2, [r2, #20]
20000d26:	440a      	add	r2, r1
20000d28:	7812      	ldrb	r2, [r2, #0]
20000d2a:	701a      	strb	r2, [r3, #0]
                ++this_uart->tx_idx;
20000d2c:	687b      	ldr	r3, [r7, #4]
20000d2e:	695b      	ldr	r3, [r3, #20]
20000d30:	f103 0201 	add.w	r2, r3, #1
20000d34:	687b      	ldr	r3, [r7, #4]
20000d36:	615a      	str	r2, [r3, #20]
            {
                fill_size = tx_remain;
            }

            /* Fill the TX FIFO with the calculated the number of bytes. */
            for ( i = 0U; i < fill_size; ++i )
20000d38:	68fb      	ldr	r3, [r7, #12]
20000d3a:	f103 0301 	add.w	r3, r3, #1
20000d3e:	60fb      	str	r3, [r7, #12]
20000d40:	68fa      	ldr	r2, [r7, #12]
20000d42:	693b      	ldr	r3, [r7, #16]
20000d44:	429a      	cmp	r2, r3
20000d46:	d3e8      	bcc.n	20000d1a <default_tx_handler+0xae>
                ++this_uart->tx_idx;
            }
        }

        /* Flag Tx as complete if all data has been pushed into the Tx FIFO. */
        if ( this_uart->tx_idx == this_uart->tx_buff_size )
20000d48:	687b      	ldr	r3, [r7, #4]
20000d4a:	695a      	ldr	r2, [r3, #20]
20000d4c:	687b      	ldr	r3, [r7, #4]
20000d4e:	691b      	ldr	r3, [r3, #16]
20000d50:	429a      	cmp	r2, r3
20000d52:	d109      	bne.n	20000d68 <default_tx_handler+0xfc>
        {
            this_uart->tx_buff_size = TX_COMPLETE;
20000d54:	687b      	ldr	r3, [r7, #4]
20000d56:	f04f 0200 	mov.w	r2, #0
20000d5a:	611a      	str	r2, [r3, #16]
            /* disables TX interrupt */
            this_uart->hw_reg_bit->IER_ETBEI = 0U;
20000d5c:	687b      	ldr	r3, [r7, #4]
20000d5e:	685b      	ldr	r3, [r3, #4]
20000d60:	f04f 0200 	mov.w	r2, #0
20000d64:	f8c3 2084 	str.w	r2, [r3, #132]	; 0x84
        }
    }
}
20000d68:	f107 071c 	add.w	r7, r7, #28
20000d6c:	46bd      	mov	sp, r7
20000d6e:	bc80      	pop	{r7}
20000d70:	4770      	bx	lr
20000d72:	bf00      	nop

20000d74 <UART0_IRQHandler>:
#if defined(__GNUC__)
__attribute__((__interrupt__)) void UART0_IRQHandler( void )
#else
void UART0_IRQHandler( void )
#endif
{
20000d74:	4668      	mov	r0, sp
20000d76:	f020 0107 	bic.w	r1, r0, #7
20000d7a:	468d      	mov	sp, r1
20000d7c:	b589      	push	{r0, r3, r7, lr}
20000d7e:	af00      	add	r7, sp, #0
    MSS_UART_isr( &g_mss_uart0 );
20000d80:	f248 501c 	movw	r0, #34076	; 0x851c
20000d84:	f2c2 0000 	movt	r0, #8192	; 0x2000
20000d88:	f7ff fee2 	bl	20000b50 <MSS_UART_isr>
    NVIC_ClearPendingIRQ( UART0_IRQn );
20000d8c:	f04f 000a 	mov.w	r0, #10
20000d90:	f7ff fce4 	bl	2000075c <NVIC_ClearPendingIRQ>
}
20000d94:	46bd      	mov	sp, r7
20000d96:	e8bd 4089 	ldmia.w	sp!, {r0, r3, r7, lr}
20000d9a:	4685      	mov	sp, r0
20000d9c:	4770      	bx	lr
20000d9e:	bf00      	nop

20000da0 <UART1_IRQHandler>:
#if defined(__GNUC__)
__attribute__((__interrupt__)) void UART1_IRQHandler( void )
#else
void UART1_IRQHandler( void )
#endif
{
20000da0:	4668      	mov	r0, sp
20000da2:	f020 0107 	bic.w	r1, r0, #7
20000da6:	468d      	mov	sp, r1
20000da8:	b589      	push	{r0, r3, r7, lr}
20000daa:	af00      	add	r7, sp, #0
    MSS_UART_isr( &g_mss_uart1 );
20000dac:	f248 40f4 	movw	r0, #34036	; 0x84f4
20000db0:	f2c2 0000 	movt	r0, #8192	; 0x2000
20000db4:	f7ff fecc 	bl	20000b50 <MSS_UART_isr>
    NVIC_ClearPendingIRQ( UART1_IRQn );
20000db8:	f04f 000b 	mov.w	r0, #11
20000dbc:	f7ff fcce 	bl	2000075c <NVIC_ClearPendingIRQ>
}
20000dc0:	46bd      	mov	sp, r7
20000dc2:	e8bd 4089 	ldmia.w	sp!, {r0, r3, r7, lr}
20000dc6:	4685      	mov	sp, r0
20000dc8:	4770      	bx	lr
20000dca:	bf00      	nop

20000dcc <NVIC_ClearPendingIRQ>:
 *
 * Clear the pending bit for the specified interrupt. 
 * The interrupt number cannot be a negative value.
 */
static __INLINE void NVIC_ClearPendingIRQ(IRQn_Type IRQn)
{
20000dcc:	b480      	push	{r7}
20000dce:	b083      	sub	sp, #12
20000dd0:	af00      	add	r7, sp, #0
20000dd2:	4603      	mov	r3, r0
20000dd4:	80fb      	strh	r3, [r7, #6]
  NVIC->ICPR[((uint32_t)(IRQn) >> 5)] = (1 << ((uint32_t)(IRQn) & 0x1F)); /* Clear pending interrupt */
20000dd6:	f24e 1300 	movw	r3, #57600	; 0xe100
20000dda:	f2ce 0300 	movt	r3, #57344	; 0xe000
20000dde:	f9b7 2006 	ldrsh.w	r2, [r7, #6]
20000de2:	ea4f 1252 	mov.w	r2, r2, lsr #5
20000de6:	88f9      	ldrh	r1, [r7, #6]
20000de8:	f001 011f 	and.w	r1, r1, #31
20000dec:	f04f 0001 	mov.w	r0, #1
20000df0:	fa00 f101 	lsl.w	r1, r0, r1
20000df4:	f102 0260 	add.w	r2, r2, #96	; 0x60
20000df8:	f843 1022 	str.w	r1, [r3, r2, lsl #2]
}
20000dfc:	f107 070c 	add.w	r7, r7, #12
20000e00:	46bd      	mov	sp, r7
20000e02:	bc80      	pop	{r7}
20000e04:	4770      	bx	lr
20000e06:	bf00      	nop

20000e08 <MSS_GPIO_init>:
/*-------------------------------------------------------------------------*//**
 * MSS_GPIO_init
 * See "mss_gpio.h" for details of how to use this function.
 */
void MSS_GPIO_init( void )
{
20000e08:	b580      	push	{r7, lr}
20000e0a:	b082      	sub	sp, #8
20000e0c:	af00      	add	r7, sp, #0
    uint32_t i;
    
    /* reset MSS GPIO hardware */
    SYSREG->SOFT_RST_CR |= SYSREG_GPIO_SOFTRESET_MASK;
20000e0e:	f242 0300 	movw	r3, #8192	; 0x2000
20000e12:	f2ce 0304 	movt	r3, #57348	; 0xe004
20000e16:	f242 0200 	movw	r2, #8192	; 0x2000
20000e1a:	f2ce 0204 	movt	r2, #57348	; 0xe004
20000e1e:	6b12      	ldr	r2, [r2, #48]	; 0x30
20000e20:	f442 4280 	orr.w	r2, r2, #16384	; 0x4000
20000e24:	631a      	str	r2, [r3, #48]	; 0x30
    /* Clear any previously pended MSS GPIO interrupt */
    for ( i = 0U; i < NB_OF_GPIO; ++i )
20000e26:	f04f 0300 	mov.w	r3, #0
20000e2a:	607b      	str	r3, [r7, #4]
20000e2c:	e00e      	b.n	20000e4c <MSS_GPIO_init+0x44>
    {
        NVIC_ClearPendingIRQ( g_gpio_irqn_lut[i] );
20000e2e:	687a      	ldr	r2, [r7, #4]
20000e30:	f647 0318 	movw	r3, #30744	; 0x7818
20000e34:	f2c2 0300 	movt	r3, #8192	; 0x2000
20000e38:	f833 3012 	ldrh.w	r3, [r3, r2, lsl #1]
20000e3c:	b21b      	sxth	r3, r3
20000e3e:	4618      	mov	r0, r3
20000e40:	f7ff ffc4 	bl	20000dcc <NVIC_ClearPendingIRQ>
    uint32_t i;
    
    /* reset MSS GPIO hardware */
    SYSREG->SOFT_RST_CR |= SYSREG_GPIO_SOFTRESET_MASK;
    /* Clear any previously pended MSS GPIO interrupt */
    for ( i = 0U; i < NB_OF_GPIO; ++i )
20000e44:	687b      	ldr	r3, [r7, #4]
20000e46:	f103 0301 	add.w	r3, r3, #1
20000e4a:	607b      	str	r3, [r7, #4]
20000e4c:	687b      	ldr	r3, [r7, #4]
20000e4e:	2b1f      	cmp	r3, #31
20000e50:	d9ed      	bls.n	20000e2e <MSS_GPIO_init+0x26>
    {
        NVIC_ClearPendingIRQ( g_gpio_irqn_lut[i] );
    }
    /* Take MSS GPIO hardware out of reset. */
    SYSREG->SOFT_RST_CR &= ~SYSREG_GPIO_SOFTRESET_MASK;
20000e52:	f242 0300 	movw	r3, #8192	; 0x2000
20000e56:	f2ce 0304 	movt	r3, #57348	; 0xe004
20000e5a:	f242 0200 	movw	r2, #8192	; 0x2000
20000e5e:	f2ce 0204 	movt	r2, #57348	; 0xe004
20000e62:	6b12      	ldr	r2, [r2, #48]	; 0x30
20000e64:	f422 4280 	bic.w	r2, r2, #16384	; 0x4000
20000e68:	631a      	str	r2, [r3, #48]	; 0x30
}
20000e6a:	f107 0708 	add.w	r7, r7, #8
20000e6e:	46bd      	mov	sp, r7
20000e70:	bd80      	pop	{r7, pc}
20000e72:	bf00      	nop

20000e74 <MSS_GPIO_config>:
void MSS_GPIO_config
(
    mss_gpio_id_t port_id,
    uint32_t config
)
{
20000e74:	b480      	push	{r7}
20000e76:	b085      	sub	sp, #20
20000e78:	af00      	add	r7, sp, #0
20000e7a:	4603      	mov	r3, r0
20000e7c:	6039      	str	r1, [r7, #0]
20000e7e:	71fb      	strb	r3, [r7, #7]
    uint32_t gpio_idx = (uint32_t)port_id;
20000e80:	79fb      	ldrb	r3, [r7, #7]
20000e82:	60fb      	str	r3, [r7, #12]
    
    ASSERT( gpio_idx < NB_OF_GPIO );
20000e84:	68fb      	ldr	r3, [r7, #12]
20000e86:	2b1f      	cmp	r3, #31
20000e88:	d900      	bls.n	20000e8c <MSS_GPIO_config+0x18>
20000e8a:	be00      	bkpt	0x0000

    if ( gpio_idx < NB_OF_GPIO )
20000e8c:	68fb      	ldr	r3, [r7, #12]
20000e8e:	2b1f      	cmp	r3, #31
20000e90:	d808      	bhi.n	20000ea4 <MSS_GPIO_config+0x30>
    {
        *(g_config_reg_lut[gpio_idx]) = config;
20000e92:	68fa      	ldr	r2, [r7, #12]
20000e94:	f247 7398 	movw	r3, #30616	; 0x7798
20000e98:	f2c2 0300 	movt	r3, #8192	; 0x2000
20000e9c:	f853 3022 	ldr.w	r3, [r3, r2, lsl #2]
20000ea0:	683a      	ldr	r2, [r7, #0]
20000ea2:	601a      	str	r2, [r3, #0]
    }
}
20000ea4:	f107 0714 	add.w	r7, r7, #20
20000ea8:	46bd      	mov	sp, r7
20000eaa:	bc80      	pop	{r7}
20000eac:	4770      	bx	lr
20000eae:	bf00      	nop

20000eb0 <ace_init_convert>:

/*-------------------------------------------------------------------------*//**
 *
 */
void ace_init_convert(void)
{
20000eb0:	b480      	push	{r7}
20000eb2:	b087      	sub	sp, #28
20000eb4:	af00      	add	r7, sp, #0
    uint8_t abps_idx;
    int32_t channel;
    uint32_t saved_pc2_ctrl;
    
    /* Pause the SSE PC2 while accesses to ACB from APB3 are taking place. */
    saved_pc2_ctrl = ACE->PC2_CTRL;
20000eb6:	f240 0300 	movw	r3, #0
20000eba:	f2c4 0302 	movt	r3, #16386	; 0x4002
20000ebe:	f8d3 30c8 	ldr.w	r3, [r3, #200]	; 0xc8
20000ec2:	60fb      	str	r3, [r7, #12]
    ACE->PC2_CTRL = 0u;
20000ec4:	f240 0300 	movw	r3, #0
20000ec8:	f2c4 0302 	movt	r3, #16386	; 0x4002
20000ecc:	f04f 0200 	mov.w	r2, #0
20000ed0:	f8c3 20c8 	str.w	r2, [r3, #200]	; 0xc8
    
    /* Populate the g_gdec_lut look-up table. */
    for(abps_idx = 0u; abps_idx < MAX_NB_OF_APBS; ++abps_idx)
20000ed4:	f04f 0300 	mov.w	r3, #0
20000ed8:	71fb      	strb	r3, [r7, #7]
20000eda:	e039      	b.n	20000f50 <ace_init_convert+0xa0>
    {
        uint8_t quad_id;
        uint8_t acb_config_byte;
        uint8_t channel_is_abps2;
        
        quad_id = abps_idx / 2u;
20000edc:	79fb      	ldrb	r3, [r7, #7]
20000ede:	ea4f 0353 	mov.w	r3, r3, lsr #1
20000ee2:	747b      	strb	r3, [r7, #17]
        acb_config_byte = ACE->ACB_DATA[quad_id].b8;
20000ee4:	f240 0200 	movw	r2, #0
20000ee8:	f2c4 0202 	movt	r2, #16386	; 0x4002
20000eec:	7c79      	ldrb	r1, [r7, #17]
20000eee:	460b      	mov	r3, r1
20000ef0:	ea4f 0343 	mov.w	r3, r3, lsl #1
20000ef4:	440b      	add	r3, r1
20000ef6:	ea4f 1303 	mov.w	r3, r3, lsl #4
20000efa:	4413      	add	r3, r2
20000efc:	f503 7308 	add.w	r3, r3, #544	; 0x220
20000f00:	791b      	ldrb	r3, [r3, #4]
20000f02:	74bb      	strb	r3, [r7, #18]
        channel_is_abps2 = abps_idx & 0x01u;
20000f04:	79fb      	ldrb	r3, [r7, #7]
20000f06:	f003 0301 	and.w	r3, r3, #1
20000f0a:	74fb      	strb	r3, [r7, #19]
        if(channel_is_abps2)
20000f0c:	7cfb      	ldrb	r3, [r7, #19]
20000f0e:	2b00      	cmp	r3, #0
20000f10:	d00d      	beq.n	20000f2e <ace_init_convert+0x7e>
        {
            /* ABPS2 */
            g_gdec_lut[abps_idx] = (acb_config_byte >> 5u) & 0x03u;
20000f12:	79f9      	ldrb	r1, [r7, #7]
20000f14:	7cbb      	ldrb	r3, [r7, #18]
20000f16:	ea4f 1353 	mov.w	r3, r3, lsr #5
20000f1a:	b2db      	uxtb	r3, r3
20000f1c:	461a      	mov	r2, r3
20000f1e:	f002 0203 	and.w	r2, r2, #3
20000f22:	f248 1388 	movw	r3, #33160	; 0x8188
20000f26:	f2c2 0300 	movt	r3, #8192	; 0x2000
20000f2a:	545a      	strb	r2, [r3, r1]
20000f2c:	e00c      	b.n	20000f48 <ace_init_convert+0x98>
        }
        else
        {
            /* ABPS1 */
            g_gdec_lut[abps_idx] = (acb_config_byte >> 1u) & 0x03u;
20000f2e:	79f9      	ldrb	r1, [r7, #7]
20000f30:	7cbb      	ldrb	r3, [r7, #18]
20000f32:	ea4f 0353 	mov.w	r3, r3, lsr #1
20000f36:	b2db      	uxtb	r3, r3
20000f38:	461a      	mov	r2, r3
20000f3a:	f002 0203 	and.w	r2, r2, #3
20000f3e:	f248 1388 	movw	r3, #33160	; 0x8188
20000f42:	f2c2 0300 	movt	r3, #8192	; 0x2000
20000f46:	545a      	strb	r2, [r3, r1]
    /* Pause the SSE PC2 while accesses to ACB from APB3 are taking place. */
    saved_pc2_ctrl = ACE->PC2_CTRL;
    ACE->PC2_CTRL = 0u;
    
    /* Populate the g_gdec_lut look-up table. */
    for(abps_idx = 0u; abps_idx < MAX_NB_OF_APBS; ++abps_idx)
20000f48:	79fb      	ldrb	r3, [r7, #7]
20000f4a:	f103 0301 	add.w	r3, r3, #1
20000f4e:	71fb      	strb	r3, [r7, #7]
20000f50:	79fb      	ldrb	r3, [r7, #7]
20000f52:	2b09      	cmp	r3, #9
20000f54:	d9c2      	bls.n	20000edc <ace_init_convert+0x2c>
            g_gdec_lut[abps_idx] = (acb_config_byte >> 1u) & 0x03u;
        }
    }
    
    /* Populate the channel_type_lut_h look-up table. */
    for(channel = 0; channel < ACE_NB_OF_INPUT_CHANNELS; ++channel)
20000f56:	f04f 0300 	mov.w	r3, #0
20000f5a:	60bb      	str	r3, [r7, #8]
20000f5c:	e073      	b.n	20001046 <ace_init_convert+0x196>
        uint8_t quad_id;
        uint8_t acb_config_byte;
        adc_channel_id_t channel_id;
        channel_type_t channel_type;
    
        channel_id = g_ace_channel_desc_table[channel].signal_id;
20000f5e:	68ba      	ldr	r2, [r7, #8]
20000f60:	f647 432c 	movw	r3, #31788	; 0x7c2c
20000f64:	f2c2 0300 	movt	r3, #8192	; 0x2000
20000f68:	ea4f 1202 	mov.w	r2, r2, lsl #4
20000f6c:	4413      	add	r3, r2
20000f6e:	791b      	ldrb	r3, [r3, #4]
20000f70:	75bb      	strb	r3, [r7, #22]
        quad_id = channel_quad_lut[channel_id];
20000f72:	7dba      	ldrb	r2, [r7, #22]
20000f74:	f647 0388 	movw	r3, #30856	; 0x7888
20000f78:	f2c2 0300 	movt	r3, #8192	; 0x2000
20000f7c:	5c9b      	ldrb	r3, [r3, r2]
20000f7e:	753b      	strb	r3, [r7, #20]
        
        switch (channel_type_lut[channel_id])
20000f80:	7dba      	ldrb	r2, [r7, #22]
20000f82:	f647 0358 	movw	r3, #30808	; 0x7858
20000f86:	f2c2 0300 	movt	r3, #8192	; 0x2000
20000f8a:	5c9b      	ldrb	r3, [r3, r2]
20000f8c:	2b01      	cmp	r3, #1
20000f8e:	d007      	beq.n	20000fa0 <ace_init_convert+0xf0>
20000f90:	2b02      	cmp	r3, #2
20000f92:	d027      	beq.n	20000fe4 <ace_init_convert+0x134>
20000f94:	2b00      	cmp	r3, #0
20000f96:	d147      	bne.n	20001028 <ace_init_convert+0x178>
        {
            case VOLTAGE_CHANNEL:
                channel_type = VOLTAGE;
20000f98:	f04f 0300 	mov.w	r3, #0
20000f9c:	75fb      	strb	r3, [r7, #23]
                break;
20000f9e:	e047      	b.n	20001030 <ace_init_convert+0x180>
                
            case CURRENT_CHANNEL:
                ASSERT( quad_id != INVALID_QUAD_ID );
20000fa0:	7d3b      	ldrb	r3, [r7, #20]
20000fa2:	2bff      	cmp	r3, #255	; 0xff
20000fa4:	d100      	bne.n	20000fa8 <ace_init_convert+0xf8>
20000fa6:	be00      	bkpt	0x0000
                acb_config_byte = ACE->ACB_DATA[quad_id].b9;
20000fa8:	f240 0200 	movw	r2, #0
20000fac:	f2c4 0202 	movt	r2, #16386	; 0x4002
20000fb0:	7d39      	ldrb	r1, [r7, #20]
20000fb2:	460b      	mov	r3, r1
20000fb4:	ea4f 0343 	mov.w	r3, r3, lsl #1
20000fb8:	440b      	add	r3, r1
20000fba:	ea4f 1303 	mov.w	r3, r3, lsl #4
20000fbe:	4413      	add	r3, r2
20000fc0:	f503 7308 	add.w	r3, r3, #544	; 0x220
20000fc4:	7a1b      	ldrb	r3, [r3, #8]
20000fc6:	757b      	strb	r3, [r7, #21]
                if ( acb_config_byte & 0x01u )
20000fc8:	7d7b      	ldrb	r3, [r7, #21]
20000fca:	f003 0301 	and.w	r3, r3, #1
20000fce:	b2db      	uxtb	r3, r3
20000fd0:	2b00      	cmp	r3, #0
20000fd2:	d003      	beq.n	20000fdc <ace_init_convert+0x12c>
                {
                    channel_type = VOLTAGE;
20000fd4:	f04f 0300 	mov.w	r3, #0
20000fd8:	75fb      	strb	r3, [r7, #23]
                }
                else
                {
                    channel_type = CURRENT;
                }
                break;
20000fda:	e029      	b.n	20001030 <ace_init_convert+0x180>
                {
                    channel_type = VOLTAGE;
                }
                else
                {
                    channel_type = CURRENT;
20000fdc:	f04f 0301 	mov.w	r3, #1
20000fe0:	75fb      	strb	r3, [r7, #23]
                }
                break;
20000fe2:	e025      	b.n	20001030 <ace_init_convert+0x180>
            
            case TEMPERATURE_CHANNEL:
                ASSERT( quad_id != INVALID_QUAD_ID );
20000fe4:	7d3b      	ldrb	r3, [r7, #20]
20000fe6:	2bff      	cmp	r3, #255	; 0xff
20000fe8:	d100      	bne.n	20000fec <ace_init_convert+0x13c>
20000fea:	be00      	bkpt	0x0000
                acb_config_byte = ACE->ACB_DATA[quad_id].b10;
20000fec:	f240 0200 	movw	r2, #0
20000ff0:	f2c4 0202 	movt	r2, #16386	; 0x4002
20000ff4:	7d39      	ldrb	r1, [r7, #20]
20000ff6:	460b      	mov	r3, r1
20000ff8:	ea4f 0343 	mov.w	r3, r3, lsl #1
20000ffc:	440b      	add	r3, r1
20000ffe:	ea4f 1303 	mov.w	r3, r3, lsl #4
20001002:	4413      	add	r3, r2
20001004:	f503 730a 	add.w	r3, r3, #552	; 0x228
20001008:	791b      	ldrb	r3, [r3, #4]
2000100a:	757b      	strb	r3, [r7, #21]
                if ( acb_config_byte & 0x01u )
2000100c:	7d7b      	ldrb	r3, [r7, #21]
2000100e:	f003 0301 	and.w	r3, r3, #1
20001012:	b2db      	uxtb	r3, r3
20001014:	2b00      	cmp	r3, #0
20001016:	d003      	beq.n	20001020 <ace_init_convert+0x170>
                {
                    channel_type = VOLTAGE;
20001018:	f04f 0300 	mov.w	r3, #0
2000101c:	75fb      	strb	r3, [r7, #23]
                }
                else
                {
                    channel_type = TEMPERATURE;
                }
                break;
2000101e:	e007      	b.n	20001030 <ace_init_convert+0x180>
                {
                    channel_type = VOLTAGE;
                }
                else
                {
                    channel_type = TEMPERATURE;
20001020:	f04f 0302 	mov.w	r3, #2
20001024:	75fb      	strb	r3, [r7, #23]
                }
                break;
20001026:	e003      	b.n	20001030 <ace_init_convert+0x180>
                
            default:
                ASSERT(0);
20001028:	be00      	bkpt	0x0000
                channel_type = VOLTAGE;
2000102a:	f04f 0300 	mov.w	r3, #0
2000102e:	75fb      	strb	r3, [r7, #23]
                break;
        }
        
        channel_type_lut_h[channel] = channel_type;
20001030:	68ba      	ldr	r2, [r7, #8]
20001032:	f248 1394 	movw	r3, #33172	; 0x8194
20001036:	f2c2 0300 	movt	r3, #8192	; 0x2000
2000103a:	7df9      	ldrb	r1, [r7, #23]
2000103c:	5499      	strb	r1, [r3, r2]
            g_gdec_lut[abps_idx] = (acb_config_byte >> 1u) & 0x03u;
        }
    }
    
    /* Populate the channel_type_lut_h look-up table. */
    for(channel = 0; channel < ACE_NB_OF_INPUT_CHANNELS; ++channel)
2000103e:	68bb      	ldr	r3, [r7, #8]
20001040:	f103 0301 	add.w	r3, r3, #1
20001044:	60bb      	str	r3, [r7, #8]
20001046:	68bb      	ldr	r3, [r7, #8]
20001048:	2b00      	cmp	r3, #0
2000104a:	dd88      	ble.n	20000f5e <ace_init_convert+0xae>
        
        channel_type_lut_h[channel] = channel_type;
    }
    
    /* Restore SSE PC2 operations. */
    ACE->PC2_CTRL = saved_pc2_ctrl;
2000104c:	f240 0300 	movw	r3, #0
20001050:	f2c4 0302 	movt	r3, #16386	; 0x4002
20001054:	68fa      	ldr	r2, [r7, #12]
20001056:	f8c3 20c8 	str.w	r2, [r3, #200]	; 0xc8
}
2000105a:	f107 071c 	add.w	r7, r7, #28
2000105e:	46bd      	mov	sp, r7
20001060:	bc80      	pop	{r7}
20001062:	4770      	bx	lr

20001064 <ACE_convert_to_mV>:
int32_t ACE_convert_to_mV
(
    ace_channel_handle_t    channel_handle,
    uint16_t                sample_value
)
{
20001064:	b480      	push	{r7}
20001066:	b08d      	sub	sp, #52	; 0x34
20001068:	af00      	add	r7, sp, #0
2000106a:	4602      	mov	r2, r0
2000106c:	460b      	mov	r3, r1
2000106e:	71fa      	strb	r2, [r7, #7]
20001070:	80bb      	strh	r3, [r7, #4]
    int32_t voltage;
    adc_channel_id_t channel_id;
    uint8_t adc_id;
    
    channel_id = g_ace_channel_desc_table[channel_handle].signal_id;
20001072:	79fa      	ldrb	r2, [r7, #7]
20001074:	f647 432c 	movw	r3, #31788	; 0x7c2c
20001078:	f2c2 0300 	movt	r3, #8192	; 0x2000
2000107c:	ea4f 1202 	mov.w	r2, r2, lsl #4
20001080:	4413      	add	r3, r2
20001082:	791b      	ldrb	r3, [r3, #4]
20001084:	74bb      	strb	r3, [r7, #18]
    adc_id = (uint8_t)channel_id >> 4u;
20001086:	7cbb      	ldrb	r3, [r7, #18]
20001088:	ea4f 1313 	mov.w	r3, r3, lsr #4
2000108c:	74fb      	strb	r3, [r7, #19]
    
    if (NON_ABPS_CHANNEL == abps_channel_lut[channel_id])
2000108e:	7cba      	ldrb	r2, [r7, #18]
20001090:	f647 03b8 	movw	r3, #30904	; 0x78b8
20001094:	f2c2 0300 	movt	r3, #8192	; 0x2000
20001098:	5c9b      	ldrb	r3, [r3, r2]
2000109a:	2bff      	cmp	r3, #255	; 0xff
2000109c:	d11c      	bne.n	200010d8 <ACE_convert_to_mV+0x74>
    {
        uint32_t adc_voltage;
        
        adc_voltage = ( g_ace_adc_config[adc_id].va_ref * (uint32_t)sample_value ) / PPE_SAMPLES_RESOLUTION;
2000109e:	7cfb      	ldrb	r3, [r7, #19]
200010a0:	f647 4224 	movw	r2, #31780	; 0x7c24
200010a4:	f2c2 0200 	movt	r2, #8192	; 0x2000
200010a8:	ea4f 0383 	mov.w	r3, r3, lsl #2
200010ac:	4413      	add	r3, r2
200010ae:	885b      	ldrh	r3, [r3, #2]
200010b0:	88ba      	ldrh	r2, [r7, #4]
200010b2:	fb02 f203 	mul.w	r2, r2, r3
200010b6:	f240 1301 	movw	r3, #257	; 0x101
200010ba:	f2c0 0310 	movt	r3, #16
200010be:	fba3 1302 	umull	r1, r3, r3, r2
200010c2:	ebc3 0202 	rsb	r2, r3, r2
200010c6:	ea4f 0252 	mov.w	r2, r2, lsr #1
200010ca:	4413      	add	r3, r2
200010cc:	ea4f 23d3 	mov.w	r3, r3, lsr #11
200010d0:	617b      	str	r3, [r7, #20]
        voltage = (int32_t)adc_voltage;
200010d2:	697b      	ldr	r3, [r7, #20]
200010d4:	60fb      	str	r3, [r7, #12]
200010d6:	e03d      	b.n	20001154 <ACE_convert_to_mV+0xf0>
        int32_t gain;
        int32_t va_ref;
        int32_t sample;
        int32_t ppe_resolution;
        
        apbs_idx = abps_idx_lut[channel_id];
200010d8:	7cba      	ldrb	r2, [r7, #18]
200010da:	f647 03e8 	movw	r3, #30952	; 0x78e8
200010de:	f2c2 0300 	movt	r3, #8192	; 0x2000
200010e2:	5c9b      	ldrb	r3, [r3, r2]
200010e4:	76fb      	strb	r3, [r7, #27]
        gdec = g_gdec_lut[apbs_idx];
200010e6:	7efa      	ldrb	r2, [r7, #27]
200010e8:	f248 1388 	movw	r3, #33160	; 0x8188
200010ec:	f2c2 0300 	movt	r3, #8192	; 0x2000
200010f0:	5c9b      	ldrb	r3, [r3, r2]
200010f2:	76bb      	strb	r3, [r7, #26]

        sample = (int32_t)sample_value;
200010f4:	88bb      	ldrh	r3, [r7, #4]
200010f6:	62bb      	str	r3, [r7, #40]	; 0x28
        ppe_resolution = (int32_t)PPE_SAMPLES_RESOLUTION;
200010f8:	f640 73ff 	movw	r3, #4095	; 0xfff
200010fc:	62fb      	str	r3, [r7, #44]	; 0x2c
        gain = (int32_t)apbs_gain_lut[gdec];
200010fe:	7eba      	ldrb	r2, [r7, #26]
20001100:	f647 1318 	movw	r3, #31000	; 0x7918
20001104:	f2c2 0300 	movt	r3, #8192	; 0x2000
20001108:	5c9b      	ldrb	r3, [r3, r2]
2000110a:	623b      	str	r3, [r7, #32]
        range = (int32_t)apbs_range[gdec];
2000110c:	7eba      	ldrb	r2, [r7, #26]
2000110e:	f647 131c 	movw	r3, #31004	; 0x791c
20001112:	f2c2 0300 	movt	r3, #8192	; 0x2000
20001116:	f833 3012 	ldrh.w	r3, [r3, r2, lsl #1]
2000111a:	b21b      	sxth	r3, r3
2000111c:	61fb      	str	r3, [r7, #28]
        va_ref = (int32_t)g_ace_adc_config[adc_id].va_ref;
2000111e:	7cfb      	ldrb	r3, [r7, #19]
20001120:	f647 4224 	movw	r2, #31780	; 0x7c24
20001124:	f2c2 0200 	movt	r2, #8192	; 0x2000
20001128:	ea4f 0383 	mov.w	r3, r3, lsl #2
2000112c:	4413      	add	r3, r2
2000112e:	885b      	ldrh	r3, [r3, #2]
20001130:	627b      	str	r3, [r7, #36]	; 0x24
        
        voltage = range - (((ppe_resolution - sample) * (va_ref * gain)) / ppe_resolution);
20001132:	6afa      	ldr	r2, [r7, #44]	; 0x2c
20001134:	6abb      	ldr	r3, [r7, #40]	; 0x28
20001136:	ebc3 0302 	rsb	r3, r3, r2
2000113a:	6a7a      	ldr	r2, [r7, #36]	; 0x24
2000113c:	6a39      	ldr	r1, [r7, #32]
2000113e:	fb01 f202 	mul.w	r2, r1, r2
20001142:	fb02 f203 	mul.w	r2, r2, r3
20001146:	6afb      	ldr	r3, [r7, #44]	; 0x2c
20001148:	fb92 f3f3 	sdiv	r3, r2, r3
2000114c:	69fa      	ldr	r2, [r7, #28]
2000114e:	ebc3 0302 	rsb	r3, r3, r2
20001152:	60fb      	str	r3, [r7, #12]
    }
    return voltage;
20001154:	68fb      	ldr	r3, [r7, #12]
}
20001156:	4618      	mov	r0, r3
20001158:	f107 0734 	add.w	r7, r7, #52	; 0x34
2000115c:	46bd      	mov	sp, r7
2000115e:	bc80      	pop	{r7}
20001160:	4770      	bx	lr
20001162:	bf00      	nop

20001164 <ACE_get_channel_name>:
 */
const uint8_t * ACE_get_channel_name
(
    ace_channel_handle_t    channel_handle
)
{
20001164:	b480      	push	{r7}
20001166:	b085      	sub	sp, #20
20001168:	af00      	add	r7, sp, #0
2000116a:	4603      	mov	r3, r0
2000116c:	71fb      	strb	r3, [r7, #7]
    const uint8_t * p_channel_name = 0;
2000116e:	f04f 0300 	mov.w	r3, #0
20001172:	60fb      	str	r3, [r7, #12]
    
    if ( channel_handle < NB_OF_ACE_CHANNEL_HANDLES)
20001174:	79fb      	ldrb	r3, [r7, #7]
20001176:	2b00      	cmp	r3, #0
20001178:	d109      	bne.n	2000118e <ACE_get_channel_name+0x2a>
    {
        p_channel_name = g_ace_channel_desc_table[channel_handle].p_sz_channel_name;
2000117a:	79fa      	ldrb	r2, [r7, #7]
2000117c:	f647 432c 	movw	r3, #31788	; 0x7c2c
20001180:	f2c2 0300 	movt	r3, #8192	; 0x2000
20001184:	ea4f 1202 	mov.w	r2, r2, lsl #4
20001188:	4413      	add	r3, r2
2000118a:	681b      	ldr	r3, [r3, #0]
2000118c:	60fb      	str	r3, [r7, #12]
    }
    
    return p_channel_name;
2000118e:	68fb      	ldr	r3, [r7, #12]
}
20001190:	4618      	mov	r0, r3
20001192:	f107 0714 	add.w	r7, r7, #20
20001196:	46bd      	mov	sp, r7
20001198:	bc80      	pop	{r7}
2000119a:	4770      	bx	lr

2000119c <NVIC_ClearPendingIRQ>:
 *
 * Clear the pending bit for the specified interrupt. 
 * The interrupt number cannot be a negative value.
 */
static __INLINE void NVIC_ClearPendingIRQ(IRQn_Type IRQn)
{
2000119c:	b480      	push	{r7}
2000119e:	b083      	sub	sp, #12
200011a0:	af00      	add	r7, sp, #0
200011a2:	4603      	mov	r3, r0
200011a4:	80fb      	strh	r3, [r7, #6]
  NVIC->ICPR[((uint32_t)(IRQn) >> 5)] = (1 << ((uint32_t)(IRQn) & 0x1F)); /* Clear pending interrupt */
200011a6:	f24e 1300 	movw	r3, #57600	; 0xe100
200011aa:	f2ce 0300 	movt	r3, #57344	; 0xe000
200011ae:	f9b7 2006 	ldrsh.w	r2, [r7, #6]
200011b2:	ea4f 1252 	mov.w	r2, r2, lsr #5
200011b6:	88f9      	ldrh	r1, [r7, #6]
200011b8:	f001 011f 	and.w	r1, r1, #31
200011bc:	f04f 0001 	mov.w	r0, #1
200011c0:	fa00 f101 	lsl.w	r1, r0, r1
200011c4:	f102 0260 	add.w	r2, r2, #96	; 0x60
200011c8:	f843 1022 	str.w	r1, [r3, r2, lsl #2]
}
200011cc:	f107 070c 	add.w	r7, r7, #12
200011d0:	46bd      	mov	sp, r7
200011d2:	bc80      	pop	{r7}
200011d4:	4770      	bx	lr
200011d6:	bf00      	nop

200011d8 <ace_init_flags>:
/*-------------------------------------------------------------------------*//**
  Intialise the ACE driver's internal data structures used by flag control
  functions.
 */
void ace_init_flags( void )
{
200011d8:	b480      	push	{r7}
200011da:	b083      	sub	sp, #12
200011dc:	af00      	add	r7, sp, #0
#if (ACE_NB_OF_PPE_FLAGS > 0)    
    {
        uint8_t flag_idx;
        uint8_t channel_idx;
        
        for ( flag_idx = 0u; flag_idx < (uint8_t)NB_OF_PPE_FLAGS; ++flag_idx )
200011de:	f04f 0300 	mov.w	r3, #0
200011e2:	71bb      	strb	r3, [r7, #6]
200011e4:	e014      	b.n	20001210 <ace_init_flags+0x38>
        {
            g_ppe_flags_isr_lut[flag_idx] = 0;
200011e6:	79ba      	ldrb	r2, [r7, #6]
200011e8:	f248 2338 	movw	r3, #33336	; 0x8238
200011ec:	f2c2 0300 	movt	r3, #8192	; 0x2000
200011f0:	f04f 0100 	mov.w	r1, #0
200011f4:	f843 1022 	str.w	r1, [r3, r2, lsl #2]
            g_ppe_flag_handles_lut[flag_idx] = INVALID_FLAG_HANDLE;
200011f8:	79ba      	ldrb	r2, [r7, #6]
200011fa:	f248 1398 	movw	r3, #33176	; 0x8198
200011fe:	f2c2 0300 	movt	r3, #8192	; 0x2000
20001202:	f04f 0104 	mov.w	r1, #4
20001206:	5499      	strb	r1, [r3, r2]
#if (ACE_NB_OF_PPE_FLAGS > 0)    
    {
        uint8_t flag_idx;
        uint8_t channel_idx;
        
        for ( flag_idx = 0u; flag_idx < (uint8_t)NB_OF_PPE_FLAGS; ++flag_idx )
20001208:	79bb      	ldrb	r3, [r7, #6]
2000120a:	f103 0301 	add.w	r3, r3, #1
2000120e:	71bb      	strb	r3, [r7, #6]
20001210:	79bb      	ldrb	r3, [r7, #6]
20001212:	2b9f      	cmp	r3, #159	; 0x9f
20001214:	d9e7      	bls.n	200011e6 <ace_init_flags+0xe>
        {
            g_ppe_flags_isr_lut[flag_idx] = 0;
            g_ppe_flag_handles_lut[flag_idx] = INVALID_FLAG_HANDLE;
        }
    
        for ( flag_idx = 0u; flag_idx < (uint8_t)ACE_NB_OF_PPE_FLAGS; ++flag_idx )
20001216:	f04f 0300 	mov.w	r3, #0
2000121a:	71bb      	strb	r3, [r7, #6]
2000121c:	e01f      	b.n	2000125e <ace_init_flags+0x86>
        {
            ASSERT( g_ppe_flags_desc_table[flag_idx].flag_id < NB_OF_PPE_FLAGS );
2000121e:	79ba      	ldrb	r2, [r7, #6]
20001220:	f647 433c 	movw	r3, #31804	; 0x7c3c
20001224:	f2c2 0300 	movt	r3, #8192	; 0x2000
20001228:	ea4f 1202 	mov.w	r2, r2, lsl #4
2000122c:	4413      	add	r3, r2
2000122e:	791b      	ldrb	r3, [r3, #4]
20001230:	2b9f      	cmp	r3, #159	; 0x9f
20001232:	d900      	bls.n	20001236 <ace_init_flags+0x5e>
20001234:	be00      	bkpt	0x0000
            g_ppe_flag_handles_lut[g_ppe_flags_desc_table[flag_idx].flag_id] = (ace_flag_handle_t)flag_idx;
20001236:	79ba      	ldrb	r2, [r7, #6]
20001238:	f647 433c 	movw	r3, #31804	; 0x7c3c
2000123c:	f2c2 0300 	movt	r3, #8192	; 0x2000
20001240:	ea4f 1202 	mov.w	r2, r2, lsl #4
20001244:	4413      	add	r3, r2
20001246:	791b      	ldrb	r3, [r3, #4]
20001248:	461a      	mov	r2, r3
2000124a:	f248 1398 	movw	r3, #33176	; 0x8198
2000124e:	f2c2 0300 	movt	r3, #8192	; 0x2000
20001252:	79b9      	ldrb	r1, [r7, #6]
20001254:	5499      	strb	r1, [r3, r2]
        {
            g_ppe_flags_isr_lut[flag_idx] = 0;
            g_ppe_flag_handles_lut[flag_idx] = INVALID_FLAG_HANDLE;
        }
    
        for ( flag_idx = 0u; flag_idx < (uint8_t)ACE_NB_OF_PPE_FLAGS; ++flag_idx )
20001256:	79bb      	ldrb	r3, [r7, #6]
20001258:	f103 0301 	add.w	r3, r3, #1
2000125c:	71bb      	strb	r3, [r7, #6]
2000125e:	79bb      	ldrb	r3, [r7, #6]
20001260:	2b03      	cmp	r3, #3
20001262:	d9dc      	bls.n	2000121e <ace_init_flags+0x46>
        {
            ASSERT( g_ppe_flags_desc_table[flag_idx].flag_id < NB_OF_PPE_FLAGS );
            g_ppe_flag_handles_lut[g_ppe_flags_desc_table[flag_idx].flag_id] = (ace_flag_handle_t)flag_idx;
        }
        
        for ( channel_idx = 0u; channel_idx < (uint8_t)ACE_NB_OF_INPUT_CHANNELS; ++channel_idx )
20001264:	f04f 0300 	mov.w	r3, #0
20001268:	71fb      	strb	r3, [r7, #7]
2000126a:	e00c      	b.n	20001286 <ace_init_flags+0xae>
        {
            g_ppe_channel_flags_isr_lut[channel_idx] = 0;
2000126c:	79fa      	ldrb	r2, [r7, #7]
2000126e:	f248 43bc 	movw	r3, #33980	; 0x84bc
20001272:	f2c2 0300 	movt	r3, #8192	; 0x2000
20001276:	f04f 0100 	mov.w	r1, #0
2000127a:	f843 1022 	str.w	r1, [r3, r2, lsl #2]
        {
            ASSERT( g_ppe_flags_desc_table[flag_idx].flag_id < NB_OF_PPE_FLAGS );
            g_ppe_flag_handles_lut[g_ppe_flags_desc_table[flag_idx].flag_id] = (ace_flag_handle_t)flag_idx;
        }
        
        for ( channel_idx = 0u; channel_idx < (uint8_t)ACE_NB_OF_INPUT_CHANNELS; ++channel_idx )
2000127e:	79fb      	ldrb	r3, [r7, #7]
20001280:	f103 0301 	add.w	r3, r3, #1
20001284:	71fb      	strb	r3, [r7, #7]
20001286:	79fb      	ldrb	r3, [r7, #7]
20001288:	2b00      	cmp	r3, #0
2000128a:	d0ef      	beq.n	2000126c <ace_init_flags+0x94>
        {
            g_ppe_channel_flags_isr_lut[channel_idx] = 0;
        }
        
        g_ppe_global_flags_isr = 0u;
2000128c:	f248 43b8 	movw	r3, #33976	; 0x84b8
20001290:	f2c2 0300 	movt	r3, #8192	; 0x2000
20001294:	f04f 0200 	mov.w	r2, #0
20001298:	601a      	str	r2, [r3, #0]
    }
#endif
}
2000129a:	f107 070c 	add.w	r7, r7, #12
2000129e:	46bd      	mov	sp, r7
200012a0:	bc80      	pop	{r7}
200012a2:	4770      	bx	lr

200012a4 <ACE_get_flag_status>:
int32_t
ACE_get_flag_status
(
    ace_flag_handle_t   flag_handle
)
{
200012a4:	b480      	push	{r7}
200012a6:	b089      	sub	sp, #36	; 0x24
200012a8:	af00      	add	r7, sp, #0
200012aa:	4603      	mov	r3, r0
200012ac:	71fb      	strb	r3, [r7, #7]
    int32_t flag_state = UNKNOWN_FLAG;
200012ae:	f04f 33ff 	mov.w	r3, #4294967295
200012b2:	60bb      	str	r3, [r7, #8]
#if (ACE_NB_OF_PPE_FLAGS > 0)    
    ppe_flag_id_t flag_id;
    
    ASSERT( flag_handle < NB_OF_ACE_FLAG_HANDLES );
200012b4:	79fb      	ldrb	r3, [r7, #7]
200012b6:	2b03      	cmp	r3, #3
200012b8:	d900      	bls.n	200012bc <ACE_get_flag_status+0x18>
200012ba:	be00      	bkpt	0x0000
    
    if ( flag_handle < NB_OF_ACE_FLAG_HANDLES )
200012bc:	79fb      	ldrb	r3, [r7, #7]
200012be:	2b03      	cmp	r3, #3
200012c0:	d831      	bhi.n	20001326 <ACE_get_flag_status+0x82>
        uint32_t flag_bit_offset;
        uint32_t ppe_flag_group;
        uint32_t flag_id_mask;
        uint32_t flag_status;

        flag_id = g_ppe_flags_desc_table[flag_handle].flag_id;
200012c2:	79fa      	ldrb	r2, [r7, #7]
200012c4:	f647 433c 	movw	r3, #31804	; 0x7c3c
200012c8:	f2c2 0300 	movt	r3, #8192	; 0x2000
200012cc:	ea4f 1202 	mov.w	r2, r2, lsl #4
200012d0:	4413      	add	r3, r2
200012d2:	791b      	ldrb	r3, [r3, #4]
200012d4:	73fb      	strb	r3, [r7, #15]
        
        if ( flag_id < NB_OF_PPE_FLAGS )
200012d6:	7bfb      	ldrb	r3, [r7, #15]
200012d8:	2b9f      	cmp	r3, #159	; 0x9f
200012da:	d824      	bhi.n	20001326 <ACE_get_flag_status+0x82>
        {
            flag_bit_offset = ((uint32_t)flag_id & FLAG_BIT_OFFSET_MASK);
200012dc:	7bfb      	ldrb	r3, [r7, #15]
200012de:	f003 031f 	and.w	r3, r3, #31
200012e2:	613b      	str	r3, [r7, #16]
            ppe_flag_group = ((uint32_t)flag_id >> FLAG_PPE_REG_SHIFT);
200012e4:	7bfb      	ldrb	r3, [r7, #15]
200012e6:	ea4f 1353 	mov.w	r3, r3, lsr #5
200012ea:	b2db      	uxtb	r3, r3
200012ec:	617b      	str	r3, [r7, #20]
            flag_id_mask = 1uL << flag_bit_offset;
200012ee:	693b      	ldr	r3, [r7, #16]
200012f0:	f04f 0201 	mov.w	r2, #1
200012f4:	fa02 f303 	lsl.w	r3, r2, r3
200012f8:	61bb      	str	r3, [r7, #24]
            flag_status = *(g_ppe_flags_regs_lut[ppe_flag_group]) & flag_id_mask;
200012fa:	697a      	ldr	r2, [r7, #20]
200012fc:	f647 1324 	movw	r3, #31012	; 0x7924
20001300:	f2c2 0300 	movt	r3, #8192	; 0x2000
20001304:	f853 3022 	ldr.w	r3, [r3, r2, lsl #2]
20001308:	681a      	ldr	r2, [r3, #0]
2000130a:	69bb      	ldr	r3, [r7, #24]
2000130c:	ea02 0303 	and.w	r3, r2, r3
20001310:	61fb      	str	r3, [r7, #28]
            if ( flag_status > 0u )
20001312:	69fb      	ldr	r3, [r7, #28]
20001314:	2b00      	cmp	r3, #0
20001316:	d003      	beq.n	20001320 <ACE_get_flag_status+0x7c>
            {
                flag_state = FLAG_ASSERTED;
20001318:	f04f 0301 	mov.w	r3, #1
2000131c:	60bb      	str	r3, [r7, #8]
2000131e:	e002      	b.n	20001326 <ACE_get_flag_status+0x82>
            }
            else
            {
                flag_state = FLAG_NOT_ASSERTED;
20001320:	f04f 0300 	mov.w	r3, #0
20001324:	60bb      	str	r3, [r7, #8]
            }
        }

    }
#endif
    return flag_state;
20001326:	68bb      	ldr	r3, [r7, #8]
}
20001328:	4618      	mov	r0, r3
2000132a:	f107 0724 	add.w	r7, r7, #36	; 0x24
2000132e:	46bd      	mov	sp, r7
20001330:	bc80      	pop	{r7}
20001332:	4770      	bx	lr

20001334 <process_flag_irq>:
/*-------------------------------------------------------------------------*//**
 * Actual PPE flag interrupt service routines:
 */

static void process_flag_irq( uint8_t threshold_flag_id )
{
20001334:	b580      	push	{r7, lr}
20001336:	b08a      	sub	sp, #40	; 0x28
20001338:	af00      	add	r7, sp, #0
2000133a:	4603      	mov	r3, r0
2000133c:	71fb      	strb	r3, [r7, #7]
    ppe_flag_id_t flag_id;
    uint32_t irq_enable_reg;
    uint32_t irq_status_reg;
    uint32_t irq_active;
    
    threshold_flag_mask = 1uL << threshold_flag_id;
2000133e:	79fb      	ldrb	r3, [r7, #7]
20001340:	f04f 0201 	mov.w	r2, #1
20001344:	fa02 f303 	lsl.w	r3, r2, r3
20001348:	613b      	str	r3, [r7, #16]
    
    
    for ( flag_group = 0u; flag_group < NB_OF_FLAG_GROUPS; ++flag_group )
2000134a:	f04f 0300 	mov.w	r3, #0
2000134e:	73fb      	strb	r3, [r7, #15]
20001350:	e0a0      	b.n	20001494 <process_flag_irq+0x160>
    {
        irq_enable_reg = *flags_irq_enable_regs_lut[flag_group];
20001352:	7bfa      	ldrb	r2, [r7, #15]
20001354:	f647 1338 	movw	r3, #31032	; 0x7938
20001358:	f2c2 0300 	movt	r3, #8192	; 0x2000
2000135c:	f853 3022 	ldr.w	r3, [r3, r2, lsl #2]
20001360:	681b      	ldr	r3, [r3, #0]
20001362:	61bb      	str	r3, [r7, #24]
        irq_status_reg = *flags_irq_status_regs_lut[flag_group];
20001364:	7bfa      	ldrb	r2, [r7, #15]
20001366:	f647 134c 	movw	r3, #31052	; 0x794c
2000136a:	f2c2 0300 	movt	r3, #8192	; 0x2000
2000136e:	f853 3022 	ldr.w	r3, [r3, r2, lsl #2]
20001372:	681b      	ldr	r3, [r3, #0]
20001374:	61fb      	str	r3, [r7, #28]
        irq_active = threshold_flag_mask & irq_enable_reg & irq_status_reg;
20001376:	693a      	ldr	r2, [r7, #16]
20001378:	69bb      	ldr	r3, [r7, #24]
2000137a:	ea02 0203 	and.w	r2, r2, r3
2000137e:	69fb      	ldr	r3, [r7, #28]
20001380:	ea02 0303 	and.w	r3, r2, r3
20001384:	623b      	str	r3, [r7, #32]
        
        if ( irq_active )
20001386:	6a3b      	ldr	r3, [r7, #32]
20001388:	2b00      	cmp	r3, #0
2000138a:	d07f      	beq.n	2000148c <process_flag_irq+0x158>
        {
            ace_flag_handle_t flag_handle;
            ace_channel_handle_t channel_handle;
            volatile uint32_t dummy_read;
            
            flag_id = (ppe_flag_id_t)((flag_group * NB_OF_FLAGS_PER_GROUP) + threshold_flag_id);
2000138c:	7bfb      	ldrb	r3, [r7, #15]
2000138e:	ea4f 1343 	mov.w	r3, r3, lsl #5
20001392:	b2da      	uxtb	r2, r3
20001394:	79fb      	ldrb	r3, [r7, #7]
20001396:	4413      	add	r3, r2
20001398:	75fb      	strb	r3, [r7, #23]
            flag_handle = g_ppe_flag_handles_lut[flag_id];
2000139a:	7dfa      	ldrb	r2, [r7, #23]
2000139c:	f248 1398 	movw	r3, #33176	; 0x8198
200013a0:	f2c2 0300 	movt	r3, #8192	; 0x2000
200013a4:	5c9b      	ldrb	r3, [r3, r2]
200013a6:	f887 3026 	strb.w	r3, [r7, #38]	; 0x26
            
            /* Call individual flag handler */
            if ( g_ppe_flags_isr_lut[flag_id] != 0 ) 
200013aa:	7dfa      	ldrb	r2, [r7, #23]
200013ac:	f248 2338 	movw	r3, #33336	; 0x8238
200013b0:	f2c2 0300 	movt	r3, #8192	; 0x2000
200013b4:	f853 3022 	ldr.w	r3, [r3, r2, lsl #2]
200013b8:	2b00      	cmp	r3, #0
200013ba:	d00a      	beq.n	200013d2 <process_flag_irq+0x9e>
            {
                g_ppe_flags_isr_lut[flag_id]( flag_handle );
200013bc:	7dfa      	ldrb	r2, [r7, #23]
200013be:	f248 2338 	movw	r3, #33336	; 0x8238
200013c2:	f2c2 0300 	movt	r3, #8192	; 0x2000
200013c6:	f853 3022 	ldr.w	r3, [r3, r2, lsl #2]
200013ca:	f897 2026 	ldrb.w	r2, [r7, #38]	; 0x26
200013ce:	4610      	mov	r0, r2
200013d0:	4798      	blx	r3
            }
            
            /* Call the channel flag handler. */
            channel_handle = g_ppe_flags_desc_table[flag_handle].channel_handle;
200013d2:	f897 3026 	ldrb.w	r3, [r7, #38]	; 0x26
200013d6:	f647 423c 	movw	r2, #31804	; 0x7c3c
200013da:	f2c2 0200 	movt	r2, #8192	; 0x2000
200013de:	ea4f 0343 	mov.w	r3, r3, lsl #1
200013e2:	f103 0301 	add.w	r3, r3, #1
200013e6:	ea4f 03c3 	mov.w	r3, r3, lsl #3
200013ea:	4413      	add	r3, r2
200013ec:	791b      	ldrb	r3, [r3, #4]
200013ee:	f887 3027 	strb.w	r3, [r7, #39]	; 0x27
            if ( channel_handle < NB_OF_ACE_CHANNEL_HANDLES )
200013f2:	f897 3027 	ldrb.w	r3, [r7, #39]	; 0x27
200013f6:	2b00      	cmp	r3, #0
200013f8:	d115      	bne.n	20001426 <process_flag_irq+0xf2>
            {
                if ( g_ppe_channel_flags_isr_lut[channel_handle] != 0 )
200013fa:	f897 2027 	ldrb.w	r2, [r7, #39]	; 0x27
200013fe:	f248 43bc 	movw	r3, #33980	; 0x84bc
20001402:	f2c2 0300 	movt	r3, #8192	; 0x2000
20001406:	f853 3022 	ldr.w	r3, [r3, r2, lsl #2]
2000140a:	2b00      	cmp	r3, #0
2000140c:	d00b      	beq.n	20001426 <process_flag_irq+0xf2>
                {
                    g_ppe_channel_flags_isr_lut[channel_handle]( flag_handle );
2000140e:	f897 2027 	ldrb.w	r2, [r7, #39]	; 0x27
20001412:	f248 43bc 	movw	r3, #33980	; 0x84bc
20001416:	f2c2 0300 	movt	r3, #8192	; 0x2000
2000141a:	f853 3022 	ldr.w	r3, [r3, r2, lsl #2]
2000141e:	f897 2026 	ldrb.w	r2, [r7, #38]	; 0x26
20001422:	4610      	mov	r0, r2
20001424:	4798      	blx	r3
                }
            }
            
            /* Call the global flag handler. */
            if ( g_ppe_global_flags_isr != 0 )
20001426:	f248 43b8 	movw	r3, #33976	; 0x84b8
2000142a:	f2c2 0300 	movt	r3, #8192	; 0x2000
2000142e:	681b      	ldr	r3, [r3, #0]
20001430:	2b00      	cmp	r3, #0
20001432:	d00b      	beq.n	2000144c <process_flag_irq+0x118>
            {
                g_ppe_global_flags_isr( flag_handle, channel_handle );
20001434:	f248 43b8 	movw	r3, #33976	; 0x84b8
20001438:	f2c2 0300 	movt	r3, #8192	; 0x2000
2000143c:	681b      	ldr	r3, [r3, #0]
2000143e:	f897 1026 	ldrb.w	r1, [r7, #38]	; 0x26
20001442:	f897 2027 	ldrb.w	r2, [r7, #39]	; 0x27
20001446:	4608      	mov	r0, r1
20001448:	4611      	mov	r1, r2
2000144a:	4798      	blx	r3
            }
            
            /* Clear the flag interrupt */
            *flags_irq_clear_regs_lut[flag_group] |= threshold_flag_mask;
2000144c:	7bfa      	ldrb	r2, [r7, #15]
2000144e:	f647 1360 	movw	r3, #31072	; 0x7960
20001452:	f2c2 0300 	movt	r3, #8192	; 0x2000
20001456:	f853 2022 	ldr.w	r2, [r3, r2, lsl #2]
2000145a:	7bf9      	ldrb	r1, [r7, #15]
2000145c:	f647 1360 	movw	r3, #31072	; 0x7960
20001460:	f2c2 0300 	movt	r3, #8192	; 0x2000
20001464:	f853 3021 	ldr.w	r3, [r3, r1, lsl #2]
20001468:	6819      	ldr	r1, [r3, #0]
2000146a:	693b      	ldr	r3, [r7, #16]
2000146c:	ea41 0303 	orr.w	r3, r1, r3
20001470:	6013      	str	r3, [r2, #0]
             * Ensure that the posted write to the PPE_FLAGSn_IRQ_CLR register
             * completed before returning from this function. Not doing this may
             * result in the interrupt retriggering if the Cortex-M3 returns from
             * interrupt before the posted write completes.
             */
            dummy_read = *(flags_irq_clear_regs_lut[flag_group]);
20001472:	7bfa      	ldrb	r2, [r7, #15]
20001474:	f647 1360 	movw	r3, #31072	; 0x7960
20001478:	f2c2 0300 	movt	r3, #8192	; 0x2000
2000147c:	f853 3022 	ldr.w	r3, [r3, r2, lsl #2]
20001480:	681b      	ldr	r3, [r3, #0]
20001482:	60bb      	str	r3, [r7, #8]
            ++dummy_read;
20001484:	68bb      	ldr	r3, [r7, #8]
20001486:	f103 0301 	add.w	r3, r3, #1
2000148a:	60bb      	str	r3, [r7, #8]
    uint32_t irq_active;
    
    threshold_flag_mask = 1uL << threshold_flag_id;
    
    
    for ( flag_group = 0u; flag_group < NB_OF_FLAG_GROUPS; ++flag_group )
2000148c:	7bfb      	ldrb	r3, [r7, #15]
2000148e:	f103 0301 	add.w	r3, r3, #1
20001492:	73fb      	strb	r3, [r7, #15]
20001494:	7bfb      	ldrb	r3, [r7, #15]
20001496:	2b04      	cmp	r3, #4
20001498:	f67f af5b 	bls.w	20001352 <process_flag_irq+0x1e>
            dummy_read = *(flags_irq_clear_regs_lut[flag_group]);
            ++dummy_read;
        }
    }
#endif
}
2000149c:	f107 0728 	add.w	r7, r7, #40	; 0x28
200014a0:	46bd      	mov	sp, r7
200014a2:	bd80      	pop	{r7, pc}

200014a4 <ACE_PPE_Flag0_IRQHandler>:
#if defined(__GNUC__)
__attribute__((__interrupt__)) void ACE_PPE_Flag0_IRQHandler( void )
#else
void ACE_PPE_Flag0_IRQHandler( void )
#endif
{
200014a4:	4668      	mov	r0, sp
200014a6:	f020 0107 	bic.w	r1, r0, #7
200014aa:	468d      	mov	sp, r1
200014ac:	b589      	push	{r0, r3, r7, lr}
200014ae:	af00      	add	r7, sp, #0
    process_flag_irq( THRESHOLD_FLAG0 );
200014b0:	f04f 0000 	mov.w	r0, #0
200014b4:	f7ff ff3e 	bl	20001334 <process_flag_irq>
    NVIC_ClearPendingIRQ( ACE_PPE_Flag0_IRQn );
200014b8:	f04f 0076 	mov.w	r0, #118	; 0x76
200014bc:	f7ff fe6e 	bl	2000119c <NVIC_ClearPendingIRQ>
}
200014c0:	46bd      	mov	sp, r7
200014c2:	e8bd 4089 	ldmia.w	sp!, {r0, r3, r7, lr}
200014c6:	4685      	mov	sp, r0
200014c8:	4770      	bx	lr
200014ca:	bf00      	nop

200014cc <ACE_PPE_Flag1_IRQHandler>:
#if defined(__GNUC__)
__attribute__((__interrupt__)) void ACE_PPE_Flag1_IRQHandler( void )
#else
void ACE_PPE_Flag1_IRQHandler( void )
#endif
{
200014cc:	4668      	mov	r0, sp
200014ce:	f020 0107 	bic.w	r1, r0, #7
200014d2:	468d      	mov	sp, r1
200014d4:	b589      	push	{r0, r3, r7, lr}
200014d6:	af00      	add	r7, sp, #0
    process_flag_irq( THRESHOLD_FLAG1 );
200014d8:	f04f 0001 	mov.w	r0, #1
200014dc:	f7ff ff2a 	bl	20001334 <process_flag_irq>
    NVIC_ClearPendingIRQ( ACE_PPE_Flag1_IRQn );
200014e0:	f04f 0077 	mov.w	r0, #119	; 0x77
200014e4:	f7ff fe5a 	bl	2000119c <NVIC_ClearPendingIRQ>
}
200014e8:	46bd      	mov	sp, r7
200014ea:	e8bd 4089 	ldmia.w	sp!, {r0, r3, r7, lr}
200014ee:	4685      	mov	sp, r0
200014f0:	4770      	bx	lr
200014f2:	bf00      	nop

200014f4 <ACE_PPE_Flag2_IRQHandler>:
#if defined(__GNUC__)
__attribute__((__interrupt__)) void ACE_PPE_Flag2_IRQHandler( void )
#else
void ACE_PPE_Flag2_IRQHandler( void )
#endif
{
200014f4:	4668      	mov	r0, sp
200014f6:	f020 0107 	bic.w	r1, r0, #7
200014fa:	468d      	mov	sp, r1
200014fc:	b589      	push	{r0, r3, r7, lr}
200014fe:	af00      	add	r7, sp, #0
    process_flag_irq( THRESHOLD_FLAG2 );
20001500:	f04f 0002 	mov.w	r0, #2
20001504:	f7ff ff16 	bl	20001334 <process_flag_irq>
    NVIC_ClearPendingIRQ( ACE_PPE_Flag2_IRQn );
20001508:	f04f 0078 	mov.w	r0, #120	; 0x78
2000150c:	f7ff fe46 	bl	2000119c <NVIC_ClearPendingIRQ>
}
20001510:	46bd      	mov	sp, r7
20001512:	e8bd 4089 	ldmia.w	sp!, {r0, r3, r7, lr}
20001516:	4685      	mov	sp, r0
20001518:	4770      	bx	lr
2000151a:	bf00      	nop

2000151c <ACE_PPE_Flag3_IRQHandler>:
#if defined(__GNUC__)
__attribute__((__interrupt__)) void ACE_PPE_Flag3_IRQHandler( void )
#else
void ACE_PPE_Flag3_IRQHandler( void )
#endif
{
2000151c:	4668      	mov	r0, sp
2000151e:	f020 0107 	bic.w	r1, r0, #7
20001522:	468d      	mov	sp, r1
20001524:	b589      	push	{r0, r3, r7, lr}
20001526:	af00      	add	r7, sp, #0
    process_flag_irq( THRESHOLD_FLAG3 );
20001528:	f04f 0003 	mov.w	r0, #3
2000152c:	f7ff ff02 	bl	20001334 <process_flag_irq>
    NVIC_ClearPendingIRQ( ACE_PPE_Flag3_IRQn );
20001530:	f04f 0079 	mov.w	r0, #121	; 0x79
20001534:	f7ff fe32 	bl	2000119c <NVIC_ClearPendingIRQ>
}
20001538:	46bd      	mov	sp, r7
2000153a:	e8bd 4089 	ldmia.w	sp!, {r0, r3, r7, lr}
2000153e:	4685      	mov	sp, r0
20001540:	4770      	bx	lr
20001542:	bf00      	nop

20001544 <ACE_PPE_Flag4_IRQHandler>:
#if defined(__GNUC__)
__attribute__((__interrupt__)) void ACE_PPE_Flag4_IRQHandler( void )
#else
void ACE_PPE_Flag4_IRQHandler( void )
#endif
{
20001544:	4668      	mov	r0, sp
20001546:	f020 0107 	bic.w	r1, r0, #7
2000154a:	468d      	mov	sp, r1
2000154c:	b589      	push	{r0, r3, r7, lr}
2000154e:	af00      	add	r7, sp, #0
    process_flag_irq( THRESHOLD_FLAG4 );
20001550:	f04f 0004 	mov.w	r0, #4
20001554:	f7ff feee 	bl	20001334 <process_flag_irq>
    NVIC_ClearPendingIRQ( ACE_PPE_Flag4_IRQn );
20001558:	f04f 007a 	mov.w	r0, #122	; 0x7a
2000155c:	f7ff fe1e 	bl	2000119c <NVIC_ClearPendingIRQ>
}
20001560:	46bd      	mov	sp, r7
20001562:	e8bd 4089 	ldmia.w	sp!, {r0, r3, r7, lr}
20001566:	4685      	mov	sp, r0
20001568:	4770      	bx	lr
2000156a:	bf00      	nop

2000156c <ACE_PPE_Flag5_IRQHandler>:
#if defined(__GNUC__)
__attribute__((__interrupt__)) void ACE_PPE_Flag5_IRQHandler( void )
#else
void ACE_PPE_Flag5_IRQHandler( void )
#endif
{
2000156c:	4668      	mov	r0, sp
2000156e:	f020 0107 	bic.w	r1, r0, #7
20001572:	468d      	mov	sp, r1
20001574:	b589      	push	{r0, r3, r7, lr}
20001576:	af00      	add	r7, sp, #0
    process_flag_irq( THRESHOLD_FLAG5 );
20001578:	f04f 0005 	mov.w	r0, #5
2000157c:	f7ff feda 	bl	20001334 <process_flag_irq>
    NVIC_ClearPendingIRQ( ACE_PPE_Flag5_IRQn );
20001580:	f04f 007b 	mov.w	r0, #123	; 0x7b
20001584:	f7ff fe0a 	bl	2000119c <NVIC_ClearPendingIRQ>
}
20001588:	46bd      	mov	sp, r7
2000158a:	e8bd 4089 	ldmia.w	sp!, {r0, r3, r7, lr}
2000158e:	4685      	mov	sp, r0
20001590:	4770      	bx	lr
20001592:	bf00      	nop

20001594 <ACE_PPE_Flag6_IRQHandler>:
#if defined(__GNUC__)
__attribute__((__interrupt__)) void ACE_PPE_Flag6_IRQHandler( void )
#else
void ACE_PPE_Flag6_IRQHandler( void )
#endif
{
20001594:	4668      	mov	r0, sp
20001596:	f020 0107 	bic.w	r1, r0, #7
2000159a:	468d      	mov	sp, r1
2000159c:	b589      	push	{r0, r3, r7, lr}
2000159e:	af00      	add	r7, sp, #0
    process_flag_irq( THRESHOLD_FLAG6 );
200015a0:	f04f 0006 	mov.w	r0, #6
200015a4:	f7ff fec6 	bl	20001334 <process_flag_irq>
    NVIC_ClearPendingIRQ( ACE_PPE_Flag6_IRQn );
200015a8:	f04f 007c 	mov.w	r0, #124	; 0x7c
200015ac:	f7ff fdf6 	bl	2000119c <NVIC_ClearPendingIRQ>
}
200015b0:	46bd      	mov	sp, r7
200015b2:	e8bd 4089 	ldmia.w	sp!, {r0, r3, r7, lr}
200015b6:	4685      	mov	sp, r0
200015b8:	4770      	bx	lr
200015ba:	bf00      	nop

200015bc <ACE_PPE_Flag7_IRQHandler>:
#if defined(__GNUC__)
__attribute__((__interrupt__)) void ACE_PPE_Flag7_IRQHandler( void )
#else
void ACE_PPE_Flag7_IRQHandler( void )
#endif
{
200015bc:	4668      	mov	r0, sp
200015be:	f020 0107 	bic.w	r1, r0, #7
200015c2:	468d      	mov	sp, r1
200015c4:	b589      	push	{r0, r3, r7, lr}
200015c6:	af00      	add	r7, sp, #0
    process_flag_irq( THRESHOLD_FLAG7 );
200015c8:	f04f 0007 	mov.w	r0, #7
200015cc:	f7ff feb2 	bl	20001334 <process_flag_irq>
    NVIC_ClearPendingIRQ( ACE_PPE_Flag7_IRQn );
200015d0:	f04f 007d 	mov.w	r0, #125	; 0x7d
200015d4:	f7ff fde2 	bl	2000119c <NVIC_ClearPendingIRQ>
}
200015d8:	46bd      	mov	sp, r7
200015da:	e8bd 4089 	ldmia.w	sp!, {r0, r3, r7, lr}
200015de:	4685      	mov	sp, r0
200015e0:	4770      	bx	lr
200015e2:	bf00      	nop

200015e4 <ACE_PPE_Flag8_IRQHandler>:
#if defined(__GNUC__)
__attribute__((__interrupt__)) void ACE_PPE_Flag8_IRQHandler( void )
#else
void ACE_PPE_Flag8_IRQHandler( void )
#endif
{
200015e4:	4668      	mov	r0, sp
200015e6:	f020 0107 	bic.w	r1, r0, #7
200015ea:	468d      	mov	sp, r1
200015ec:	b589      	push	{r0, r3, r7, lr}
200015ee:	af00      	add	r7, sp, #0
    process_flag_irq( THRESHOLD_FLAG8 );
200015f0:	f04f 0008 	mov.w	r0, #8
200015f4:	f7ff fe9e 	bl	20001334 <process_flag_irq>
    NVIC_ClearPendingIRQ( ACE_PPE_Flag8_IRQn );
200015f8:	f04f 007e 	mov.w	r0, #126	; 0x7e
200015fc:	f7ff fdce 	bl	2000119c <NVIC_ClearPendingIRQ>
}
20001600:	46bd      	mov	sp, r7
20001602:	e8bd 4089 	ldmia.w	sp!, {r0, r3, r7, lr}
20001606:	4685      	mov	sp, r0
20001608:	4770      	bx	lr
2000160a:	bf00      	nop

2000160c <ACE_PPE_Flag9_IRQHandler>:
#if defined(__GNUC__)
__attribute__((__interrupt__)) void ACE_PPE_Flag9_IRQHandler( void )
#else
void ACE_PPE_Flag9_IRQHandler( void )
#endif
{
2000160c:	4668      	mov	r0, sp
2000160e:	f020 0107 	bic.w	r1, r0, #7
20001612:	468d      	mov	sp, r1
20001614:	b589      	push	{r0, r3, r7, lr}
20001616:	af00      	add	r7, sp, #0
    process_flag_irq( THRESHOLD_FLAG9 );
20001618:	f04f 0009 	mov.w	r0, #9
2000161c:	f7ff fe8a 	bl	20001334 <process_flag_irq>
    NVIC_ClearPendingIRQ( ACE_PPE_Flag9_IRQn );
20001620:	f04f 007f 	mov.w	r0, #127	; 0x7f
20001624:	f7ff fdba 	bl	2000119c <NVIC_ClearPendingIRQ>
}
20001628:	46bd      	mov	sp, r7
2000162a:	e8bd 4089 	ldmia.w	sp!, {r0, r3, r7, lr}
2000162e:	4685      	mov	sp, r0
20001630:	4770      	bx	lr
20001632:	bf00      	nop

20001634 <ACE_PPE_Flag10_IRQHandler>:
#if defined(__GNUC__)
__attribute__((__interrupt__)) void ACE_PPE_Flag10_IRQHandler( void )
#else
void ACE_PPE_Flag10_IRQHandler( void )
#endif
{
20001634:	4668      	mov	r0, sp
20001636:	f020 0107 	bic.w	r1, r0, #7
2000163a:	468d      	mov	sp, r1
2000163c:	b589      	push	{r0, r3, r7, lr}
2000163e:	af00      	add	r7, sp, #0
    process_flag_irq( THRESHOLD_FLAG10 );
20001640:	f04f 000a 	mov.w	r0, #10
20001644:	f7ff fe76 	bl	20001334 <process_flag_irq>
    NVIC_ClearPendingIRQ( ACE_PPE_Flag10_IRQn );
20001648:	f04f 0080 	mov.w	r0, #128	; 0x80
2000164c:	f7ff fda6 	bl	2000119c <NVIC_ClearPendingIRQ>
}
20001650:	46bd      	mov	sp, r7
20001652:	e8bd 4089 	ldmia.w	sp!, {r0, r3, r7, lr}
20001656:	4685      	mov	sp, r0
20001658:	4770      	bx	lr
2000165a:	bf00      	nop

2000165c <ACE_PPE_Flag11_IRQHandler>:
#if defined(__GNUC__)
__attribute__((__interrupt__)) void ACE_PPE_Flag11_IRQHandler( void )
#else
void ACE_PPE_Flag11_IRQHandler( void )
#endif
{
2000165c:	4668      	mov	r0, sp
2000165e:	f020 0107 	bic.w	r1, r0, #7
20001662:	468d      	mov	sp, r1
20001664:	b589      	push	{r0, r3, r7, lr}
20001666:	af00      	add	r7, sp, #0
    process_flag_irq( THRESHOLD_FLAG11 );
20001668:	f04f 000b 	mov.w	r0, #11
2000166c:	f7ff fe62 	bl	20001334 <process_flag_irq>
    NVIC_ClearPendingIRQ( ACE_PPE_Flag11_IRQn );
20001670:	f04f 0081 	mov.w	r0, #129	; 0x81
20001674:	f7ff fd92 	bl	2000119c <NVIC_ClearPendingIRQ>
}
20001678:	46bd      	mov	sp, r7
2000167a:	e8bd 4089 	ldmia.w	sp!, {r0, r3, r7, lr}
2000167e:	4685      	mov	sp, r0
20001680:	4770      	bx	lr
20001682:	bf00      	nop

20001684 <ACE_PPE_Flag12_IRQHandler>:
#if defined(__GNUC__)
__attribute__((__interrupt__)) void ACE_PPE_Flag12_IRQHandler( void )
#else
void ACE_PPE_Flag12_IRQHandler( void )
#endif
{
20001684:	4668      	mov	r0, sp
20001686:	f020 0107 	bic.w	r1, r0, #7
2000168a:	468d      	mov	sp, r1
2000168c:	b589      	push	{r0, r3, r7, lr}
2000168e:	af00      	add	r7, sp, #0
    process_flag_irq( THRESHOLD_FLAG12 );
20001690:	f04f 000c 	mov.w	r0, #12
20001694:	f7ff fe4e 	bl	20001334 <process_flag_irq>
    NVIC_ClearPendingIRQ( ACE_PPE_Flag12_IRQn );
20001698:	f04f 0082 	mov.w	r0, #130	; 0x82
2000169c:	f7ff fd7e 	bl	2000119c <NVIC_ClearPendingIRQ>
}
200016a0:	46bd      	mov	sp, r7
200016a2:	e8bd 4089 	ldmia.w	sp!, {r0, r3, r7, lr}
200016a6:	4685      	mov	sp, r0
200016a8:	4770      	bx	lr
200016aa:	bf00      	nop

200016ac <ACE_PPE_Flag13_IRQHandler>:
#if defined(__GNUC__)
__attribute__((__interrupt__)) void ACE_PPE_Flag13_IRQHandler( void )
#else
void ACE_PPE_Flag13_IRQHandler( void )
#endif
{
200016ac:	4668      	mov	r0, sp
200016ae:	f020 0107 	bic.w	r1, r0, #7
200016b2:	468d      	mov	sp, r1
200016b4:	b589      	push	{r0, r3, r7, lr}
200016b6:	af00      	add	r7, sp, #0
    process_flag_irq( THRESHOLD_FLAG13 );
200016b8:	f04f 000d 	mov.w	r0, #13
200016bc:	f7ff fe3a 	bl	20001334 <process_flag_irq>
    NVIC_ClearPendingIRQ( ACE_PPE_Flag13_IRQn );
200016c0:	f04f 0083 	mov.w	r0, #131	; 0x83
200016c4:	f7ff fd6a 	bl	2000119c <NVIC_ClearPendingIRQ>
}
200016c8:	46bd      	mov	sp, r7
200016ca:	e8bd 4089 	ldmia.w	sp!, {r0, r3, r7, lr}
200016ce:	4685      	mov	sp, r0
200016d0:	4770      	bx	lr
200016d2:	bf00      	nop

200016d4 <ACE_PPE_Flag14_IRQHandler>:
#if defined(__GNUC__)
__attribute__((__interrupt__)) void ACE_PPE_Flag14_IRQHandler( void )
#else
void ACE_PPE_Flag14_IRQHandler( void )
#endif
{
200016d4:	4668      	mov	r0, sp
200016d6:	f020 0107 	bic.w	r1, r0, #7
200016da:	468d      	mov	sp, r1
200016dc:	b589      	push	{r0, r3, r7, lr}
200016de:	af00      	add	r7, sp, #0
    process_flag_irq( THRESHOLD_FLAG14 );
200016e0:	f04f 000e 	mov.w	r0, #14
200016e4:	f7ff fe26 	bl	20001334 <process_flag_irq>
    NVIC_ClearPendingIRQ( ACE_PPE_Flag14_IRQn );
200016e8:	f04f 0084 	mov.w	r0, #132	; 0x84
200016ec:	f7ff fd56 	bl	2000119c <NVIC_ClearPendingIRQ>
}
200016f0:	46bd      	mov	sp, r7
200016f2:	e8bd 4089 	ldmia.w	sp!, {r0, r3, r7, lr}
200016f6:	4685      	mov	sp, r0
200016f8:	4770      	bx	lr
200016fa:	bf00      	nop

200016fc <ACE_PPE_Flag15_IRQHandler>:
#if defined(__GNUC__)
__attribute__((__interrupt__)) void ACE_PPE_Flag15_IRQHandler( void )
#else
void ACE_PPE_Flag15_IRQHandler( void )
#endif
{
200016fc:	4668      	mov	r0, sp
200016fe:	f020 0107 	bic.w	r1, r0, #7
20001702:	468d      	mov	sp, r1
20001704:	b589      	push	{r0, r3, r7, lr}
20001706:	af00      	add	r7, sp, #0
    process_flag_irq( THRESHOLD_FLAG15 );
20001708:	f04f 000f 	mov.w	r0, #15
2000170c:	f7ff fe12 	bl	20001334 <process_flag_irq>
    NVIC_ClearPendingIRQ( ACE_PPE_Flag15_IRQn );
20001710:	f04f 0085 	mov.w	r0, #133	; 0x85
20001714:	f7ff fd42 	bl	2000119c <NVIC_ClearPendingIRQ>
}
20001718:	46bd      	mov	sp, r7
2000171a:	e8bd 4089 	ldmia.w	sp!, {r0, r3, r7, lr}
2000171e:	4685      	mov	sp, r0
20001720:	4770      	bx	lr
20001722:	bf00      	nop

20001724 <ACE_PPE_Flag16_IRQHandler>:
#if defined(__GNUC__)
__attribute__((__interrupt__)) void ACE_PPE_Flag16_IRQHandler( void )
#else
void ACE_PPE_Flag16_IRQHandler( void )
#endif
{
20001724:	4668      	mov	r0, sp
20001726:	f020 0107 	bic.w	r1, r0, #7
2000172a:	468d      	mov	sp, r1
2000172c:	b589      	push	{r0, r3, r7, lr}
2000172e:	af00      	add	r7, sp, #0
    process_flag_irq( THRESHOLD_FLAG16 );
20001730:	f04f 0010 	mov.w	r0, #16
20001734:	f7ff fdfe 	bl	20001334 <process_flag_irq>
    NVIC_ClearPendingIRQ( ACE_PPE_Flag16_IRQn );
20001738:	f04f 0086 	mov.w	r0, #134	; 0x86
2000173c:	f7ff fd2e 	bl	2000119c <NVIC_ClearPendingIRQ>
}
20001740:	46bd      	mov	sp, r7
20001742:	e8bd 4089 	ldmia.w	sp!, {r0, r3, r7, lr}
20001746:	4685      	mov	sp, r0
20001748:	4770      	bx	lr
2000174a:	bf00      	nop

2000174c <ACE_PPE_Flag17_IRQHandler>:
#if defined(__GNUC__)
__attribute__((__interrupt__)) void ACE_PPE_Flag17_IRQHandler( void )
#else
void ACE_PPE_Flag17_IRQHandler( void )
#endif
{
2000174c:	4668      	mov	r0, sp
2000174e:	f020 0107 	bic.w	r1, r0, #7
20001752:	468d      	mov	sp, r1
20001754:	b589      	push	{r0, r3, r7, lr}
20001756:	af00      	add	r7, sp, #0
    process_flag_irq( THRESHOLD_FLAG17 );
20001758:	f04f 0011 	mov.w	r0, #17
2000175c:	f7ff fdea 	bl	20001334 <process_flag_irq>
    NVIC_ClearPendingIRQ( ACE_PPE_Flag17_IRQn );
20001760:	f04f 0087 	mov.w	r0, #135	; 0x87
20001764:	f7ff fd1a 	bl	2000119c <NVIC_ClearPendingIRQ>
}
20001768:	46bd      	mov	sp, r7
2000176a:	e8bd 4089 	ldmia.w	sp!, {r0, r3, r7, lr}
2000176e:	4685      	mov	sp, r0
20001770:	4770      	bx	lr
20001772:	bf00      	nop

20001774 <ACE_PPE_Flag18_IRQHandler>:
#if defined(__GNUC__)
__attribute__((__interrupt__)) void ACE_PPE_Flag18_IRQHandler( void )
#else
void ACE_PPE_Flag18_IRQHandler( void )
#endif
{
20001774:	4668      	mov	r0, sp
20001776:	f020 0107 	bic.w	r1, r0, #7
2000177a:	468d      	mov	sp, r1
2000177c:	b589      	push	{r0, r3, r7, lr}
2000177e:	af00      	add	r7, sp, #0
    process_flag_irq( THRESHOLD_FLAG18 );
20001780:	f04f 0012 	mov.w	r0, #18
20001784:	f7ff fdd6 	bl	20001334 <process_flag_irq>
    NVIC_ClearPendingIRQ( ACE_PPE_Flag18_IRQn );
20001788:	f04f 0088 	mov.w	r0, #136	; 0x88
2000178c:	f7ff fd06 	bl	2000119c <NVIC_ClearPendingIRQ>
}
20001790:	46bd      	mov	sp, r7
20001792:	e8bd 4089 	ldmia.w	sp!, {r0, r3, r7, lr}
20001796:	4685      	mov	sp, r0
20001798:	4770      	bx	lr
2000179a:	bf00      	nop

2000179c <ACE_PPE_Flag19_IRQHandler>:
#if defined(__GNUC__)
__attribute__((__interrupt__)) void ACE_PPE_Flag19_IRQHandler( void )
#else
void ACE_PPE_Flag19_IRQHandler( void )
#endif
{
2000179c:	4668      	mov	r0, sp
2000179e:	f020 0107 	bic.w	r1, r0, #7
200017a2:	468d      	mov	sp, r1
200017a4:	b589      	push	{r0, r3, r7, lr}
200017a6:	af00      	add	r7, sp, #0
    process_flag_irq( THRESHOLD_FLAG19 );
200017a8:	f04f 0013 	mov.w	r0, #19
200017ac:	f7ff fdc2 	bl	20001334 <process_flag_irq>
    NVIC_ClearPendingIRQ( ACE_PPE_Flag19_IRQn );
200017b0:	f04f 0089 	mov.w	r0, #137	; 0x89
200017b4:	f7ff fcf2 	bl	2000119c <NVIC_ClearPendingIRQ>
}
200017b8:	46bd      	mov	sp, r7
200017ba:	e8bd 4089 	ldmia.w	sp!, {r0, r3, r7, lr}
200017be:	4685      	mov	sp, r0
200017c0:	4770      	bx	lr
200017c2:	bf00      	nop

200017c4 <ACE_PPE_Flag20_IRQHandler>:
#if defined(__GNUC__)
__attribute__((__interrupt__)) void ACE_PPE_Flag20_IRQHandler( void )
#else
void ACE_PPE_Flag20_IRQHandler( void )
#endif
{
200017c4:	4668      	mov	r0, sp
200017c6:	f020 0107 	bic.w	r1, r0, #7
200017ca:	468d      	mov	sp, r1
200017cc:	b589      	push	{r0, r3, r7, lr}
200017ce:	af00      	add	r7, sp, #0
    process_flag_irq( THRESHOLD_FLAG20 );
200017d0:	f04f 0014 	mov.w	r0, #20
200017d4:	f7ff fdae 	bl	20001334 <process_flag_irq>
    NVIC_ClearPendingIRQ( ACE_PPE_Flag20_IRQn );
200017d8:	f04f 008a 	mov.w	r0, #138	; 0x8a
200017dc:	f7ff fcde 	bl	2000119c <NVIC_ClearPendingIRQ>
}
200017e0:	46bd      	mov	sp, r7
200017e2:	e8bd 4089 	ldmia.w	sp!, {r0, r3, r7, lr}
200017e6:	4685      	mov	sp, r0
200017e8:	4770      	bx	lr
200017ea:	bf00      	nop

200017ec <ACE_PPE_Flag21_IRQHandler>:
#if defined(__GNUC__)
__attribute__((__interrupt__)) void ACE_PPE_Flag21_IRQHandler( void )
#else
void ACE_PPE_Flag21_IRQHandler( void )
#endif
{
200017ec:	4668      	mov	r0, sp
200017ee:	f020 0107 	bic.w	r1, r0, #7
200017f2:	468d      	mov	sp, r1
200017f4:	b589      	push	{r0, r3, r7, lr}
200017f6:	af00      	add	r7, sp, #0
    process_flag_irq( THRESHOLD_FLAG21 );
200017f8:	f04f 0015 	mov.w	r0, #21
200017fc:	f7ff fd9a 	bl	20001334 <process_flag_irq>
    NVIC_ClearPendingIRQ( ACE_PPE_Flag21_IRQn );
20001800:	f04f 008b 	mov.w	r0, #139	; 0x8b
20001804:	f7ff fcca 	bl	2000119c <NVIC_ClearPendingIRQ>
}
20001808:	46bd      	mov	sp, r7
2000180a:	e8bd 4089 	ldmia.w	sp!, {r0, r3, r7, lr}
2000180e:	4685      	mov	sp, r0
20001810:	4770      	bx	lr
20001812:	bf00      	nop

20001814 <ACE_PPE_Flag22_IRQHandler>:
#if defined(__GNUC__)
__attribute__((__interrupt__)) void ACE_PPE_Flag22_IRQHandler( void )
#else
void ACE_PPE_Flag22_IRQHandler( void )
#endif
{
20001814:	4668      	mov	r0, sp
20001816:	f020 0107 	bic.w	r1, r0, #7
2000181a:	468d      	mov	sp, r1
2000181c:	b589      	push	{r0, r3, r7, lr}
2000181e:	af00      	add	r7, sp, #0
    process_flag_irq( THRESHOLD_FLAG22 );
20001820:	f04f 0016 	mov.w	r0, #22
20001824:	f7ff fd86 	bl	20001334 <process_flag_irq>
    NVIC_ClearPendingIRQ( ACE_PPE_Flag22_IRQn );
20001828:	f04f 008c 	mov.w	r0, #140	; 0x8c
2000182c:	f7ff fcb6 	bl	2000119c <NVIC_ClearPendingIRQ>
}
20001830:	46bd      	mov	sp, r7
20001832:	e8bd 4089 	ldmia.w	sp!, {r0, r3, r7, lr}
20001836:	4685      	mov	sp, r0
20001838:	4770      	bx	lr
2000183a:	bf00      	nop

2000183c <ACE_PPE_Flag23_IRQHandler>:
#if defined(__GNUC__)
__attribute__((__interrupt__)) void ACE_PPE_Flag23_IRQHandler( void )
#else
void ACE_PPE_Flag23_IRQHandler( void )
#endif
{
2000183c:	4668      	mov	r0, sp
2000183e:	f020 0107 	bic.w	r1, r0, #7
20001842:	468d      	mov	sp, r1
20001844:	b589      	push	{r0, r3, r7, lr}
20001846:	af00      	add	r7, sp, #0
    process_flag_irq( THRESHOLD_FLAG23 );
20001848:	f04f 0017 	mov.w	r0, #23
2000184c:	f7ff fd72 	bl	20001334 <process_flag_irq>
    NVIC_ClearPendingIRQ( ACE_PPE_Flag23_IRQn );
20001850:	f04f 008d 	mov.w	r0, #141	; 0x8d
20001854:	f7ff fca2 	bl	2000119c <NVIC_ClearPendingIRQ>
}
20001858:	46bd      	mov	sp, r7
2000185a:	e8bd 4089 	ldmia.w	sp!, {r0, r3, r7, lr}
2000185e:	4685      	mov	sp, r0
20001860:	4770      	bx	lr
20001862:	bf00      	nop

20001864 <ACE_PPE_Flag24_IRQHandler>:
#if defined(__GNUC__)
__attribute__((__interrupt__)) void ACE_PPE_Flag24_IRQHandler( void )
#else
void ACE_PPE_Flag24_IRQHandler( void )
#endif
{
20001864:	4668      	mov	r0, sp
20001866:	f020 0107 	bic.w	r1, r0, #7
2000186a:	468d      	mov	sp, r1
2000186c:	b589      	push	{r0, r3, r7, lr}
2000186e:	af00      	add	r7, sp, #0
    process_flag_irq( THRESHOLD_FLAG24 );
20001870:	f04f 0018 	mov.w	r0, #24
20001874:	f7ff fd5e 	bl	20001334 <process_flag_irq>
    NVIC_ClearPendingIRQ( ACE_PPE_Flag24_IRQn );
20001878:	f04f 008e 	mov.w	r0, #142	; 0x8e
2000187c:	f7ff fc8e 	bl	2000119c <NVIC_ClearPendingIRQ>
}
20001880:	46bd      	mov	sp, r7
20001882:	e8bd 4089 	ldmia.w	sp!, {r0, r3, r7, lr}
20001886:	4685      	mov	sp, r0
20001888:	4770      	bx	lr
2000188a:	bf00      	nop

2000188c <ACE_PPE_Flag25_IRQHandler>:
#if defined(__GNUC__)
__attribute__((__interrupt__)) void ACE_PPE_Flag25_IRQHandler( void )
#else
void ACE_PPE_Flag25_IRQHandler( void )
#endif
{
2000188c:	4668      	mov	r0, sp
2000188e:	f020 0107 	bic.w	r1, r0, #7
20001892:	468d      	mov	sp, r1
20001894:	b589      	push	{r0, r3, r7, lr}
20001896:	af00      	add	r7, sp, #0
    process_flag_irq( THRESHOLD_FLAG25 );
20001898:	f04f 0019 	mov.w	r0, #25
2000189c:	f7ff fd4a 	bl	20001334 <process_flag_irq>
    NVIC_ClearPendingIRQ( ACE_PPE_Flag25_IRQn );
200018a0:	f04f 008f 	mov.w	r0, #143	; 0x8f
200018a4:	f7ff fc7a 	bl	2000119c <NVIC_ClearPendingIRQ>
}
200018a8:	46bd      	mov	sp, r7
200018aa:	e8bd 4089 	ldmia.w	sp!, {r0, r3, r7, lr}
200018ae:	4685      	mov	sp, r0
200018b0:	4770      	bx	lr
200018b2:	bf00      	nop

200018b4 <ACE_PPE_Flag26_IRQHandler>:
#if defined(__GNUC__)
__attribute__((__interrupt__)) void ACE_PPE_Flag26_IRQHandler( void )
#else
void ACE_PPE_Flag26_IRQHandler( void )
#endif
{
200018b4:	4668      	mov	r0, sp
200018b6:	f020 0107 	bic.w	r1, r0, #7
200018ba:	468d      	mov	sp, r1
200018bc:	b589      	push	{r0, r3, r7, lr}
200018be:	af00      	add	r7, sp, #0
    process_flag_irq( THRESHOLD_FLAG26 );
200018c0:	f04f 001a 	mov.w	r0, #26
200018c4:	f7ff fd36 	bl	20001334 <process_flag_irq>
    NVIC_ClearPendingIRQ( ACE_PPE_Flag26_IRQn );
200018c8:	f04f 0090 	mov.w	r0, #144	; 0x90
200018cc:	f7ff fc66 	bl	2000119c <NVIC_ClearPendingIRQ>
}
200018d0:	46bd      	mov	sp, r7
200018d2:	e8bd 4089 	ldmia.w	sp!, {r0, r3, r7, lr}
200018d6:	4685      	mov	sp, r0
200018d8:	4770      	bx	lr
200018da:	bf00      	nop

200018dc <ACE_PPE_Flag27_IRQHandler>:
#if defined(__GNUC__)
__attribute__((__interrupt__)) void ACE_PPE_Flag27_IRQHandler( void )
#else
void ACE_PPE_Flag27_IRQHandler( void )
#endif
{
200018dc:	4668      	mov	r0, sp
200018de:	f020 0107 	bic.w	r1, r0, #7
200018e2:	468d      	mov	sp, r1
200018e4:	b589      	push	{r0, r3, r7, lr}
200018e6:	af00      	add	r7, sp, #0
    process_flag_irq( THRESHOLD_FLAG27 );
200018e8:	f04f 001b 	mov.w	r0, #27
200018ec:	f7ff fd22 	bl	20001334 <process_flag_irq>
    NVIC_ClearPendingIRQ( ACE_PPE_Flag27_IRQn );
200018f0:	f04f 0091 	mov.w	r0, #145	; 0x91
200018f4:	f7ff fc52 	bl	2000119c <NVIC_ClearPendingIRQ>
}
200018f8:	46bd      	mov	sp, r7
200018fa:	e8bd 4089 	ldmia.w	sp!, {r0, r3, r7, lr}
200018fe:	4685      	mov	sp, r0
20001900:	4770      	bx	lr
20001902:	bf00      	nop

20001904 <ACE_PPE_Flag28_IRQHandler>:
#if defined(__GNUC__)
__attribute__((__interrupt__)) void ACE_PPE_Flag28_IRQHandler( void )
#else
void ACE_PPE_Flag28_IRQHandler( void )
#endif
{
20001904:	4668      	mov	r0, sp
20001906:	f020 0107 	bic.w	r1, r0, #7
2000190a:	468d      	mov	sp, r1
2000190c:	b589      	push	{r0, r3, r7, lr}
2000190e:	af00      	add	r7, sp, #0
    process_flag_irq( THRESHOLD_FLAG28 );
20001910:	f04f 001c 	mov.w	r0, #28
20001914:	f7ff fd0e 	bl	20001334 <process_flag_irq>
    NVIC_ClearPendingIRQ( ACE_PPE_Flag28_IRQn );
20001918:	f04f 0092 	mov.w	r0, #146	; 0x92
2000191c:	f7ff fc3e 	bl	2000119c <NVIC_ClearPendingIRQ>
}
20001920:	46bd      	mov	sp, r7
20001922:	e8bd 4089 	ldmia.w	sp!, {r0, r3, r7, lr}
20001926:	4685      	mov	sp, r0
20001928:	4770      	bx	lr
2000192a:	bf00      	nop

2000192c <ACE_PPE_Flag29_IRQHandler>:
#if defined(__GNUC__)
__attribute__((__interrupt__)) void ACE_PPE_Flag29_IRQHandler( void )
#else
void ACE_PPE_Flag29_IRQHandler( void )
#endif
{
2000192c:	4668      	mov	r0, sp
2000192e:	f020 0107 	bic.w	r1, r0, #7
20001932:	468d      	mov	sp, r1
20001934:	b589      	push	{r0, r3, r7, lr}
20001936:	af00      	add	r7, sp, #0
    process_flag_irq( THRESHOLD_FLAG29 );
20001938:	f04f 001d 	mov.w	r0, #29
2000193c:	f7ff fcfa 	bl	20001334 <process_flag_irq>
    NVIC_ClearPendingIRQ( ACE_PPE_Flag29_IRQn );
20001940:	f04f 0093 	mov.w	r0, #147	; 0x93
20001944:	f7ff fc2a 	bl	2000119c <NVIC_ClearPendingIRQ>
}
20001948:	46bd      	mov	sp, r7
2000194a:	e8bd 4089 	ldmia.w	sp!, {r0, r3, r7, lr}
2000194e:	4685      	mov	sp, r0
20001950:	4770      	bx	lr
20001952:	bf00      	nop

20001954 <ACE_PPE_Flag30_IRQHandler>:
#if defined(__GNUC__)
__attribute__((__interrupt__)) void ACE_PPE_Flag30_IRQHandler( void )
#else
void ACE_PPE_Flag30_IRQHandler( void )
#endif
{
20001954:	4668      	mov	r0, sp
20001956:	f020 0107 	bic.w	r1, r0, #7
2000195a:	468d      	mov	sp, r1
2000195c:	b589      	push	{r0, r3, r7, lr}
2000195e:	af00      	add	r7, sp, #0
    process_flag_irq( THRESHOLD_FLAG30 );
20001960:	f04f 001e 	mov.w	r0, #30
20001964:	f7ff fce6 	bl	20001334 <process_flag_irq>
    NVIC_ClearPendingIRQ( ACE_PPE_Flag30_IRQn );
20001968:	f04f 0094 	mov.w	r0, #148	; 0x94
2000196c:	f7ff fc16 	bl	2000119c <NVIC_ClearPendingIRQ>
}
20001970:	46bd      	mov	sp, r7
20001972:	e8bd 4089 	ldmia.w	sp!, {r0, r3, r7, lr}
20001976:	4685      	mov	sp, r0
20001978:	4770      	bx	lr
2000197a:	bf00      	nop

2000197c <ACE_PPE_Flag31_IRQHandler>:
#if defined(__GNUC__)
__attribute__((__interrupt__)) void ACE_PPE_Flag31_IRQHandler( void )
#else
void ACE_PPE_Flag31_IRQHandler( void )
#endif
{
2000197c:	4668      	mov	r0, sp
2000197e:	f020 0107 	bic.w	r1, r0, #7
20001982:	468d      	mov	sp, r1
20001984:	b589      	push	{r0, r3, r7, lr}
20001986:	af00      	add	r7, sp, #0
    process_flag_irq( THRESHOLD_FLAG31 );
20001988:	f04f 001f 	mov.w	r0, #31
2000198c:	f7ff fcd2 	bl	20001334 <process_flag_irq>
    NVIC_ClearPendingIRQ( ACE_PPE_Flag31_IRQn );
20001990:	f04f 0095 	mov.w	r0, #149	; 0x95
20001994:	f7ff fc02 	bl	2000119c <NVIC_ClearPendingIRQ>
}
20001998:	46bd      	mov	sp, r7
2000199a:	e8bd 4089 	ldmia.w	sp!, {r0, r3, r7, lr}
2000199e:	4685      	mov	sp, r0
200019a0:	4770      	bx	lr
200019a2:	bf00      	nop

200019a4 <ACE_init>:

/*-------------------------------------------------------------------------*//**
  See "mss_ace.h" for details of how to use this function.
 */
void ACE_init( void )
{
200019a4:	b580      	push	{r7, lr}
200019a6:	af00      	add	r7, sp, #0
    /* Initialize driver's internal data. */
    ace_init_flags();
200019a8:	f7ff fc16 	bl	200011d8 <ace_init_flags>
    
    /* Initialize the data structures used by conversion functions. */
    ace_init_convert();
200019ac:	f7ff fa80 	bl	20000eb0 <ace_init_convert>
}
200019b0:	bd80      	pop	{r7, pc}
200019b2:	bf00      	nop

200019b4 <ACE_get_ppe_sample>:
uint16_t
ACE_get_ppe_sample
(
    ace_channel_handle_t channel_handle
)
{
200019b4:	b480      	push	{r7}
200019b6:	b085      	sub	sp, #20
200019b8:	af00      	add	r7, sp, #0
200019ba:	4603      	mov	r3, r0
200019bc:	71fb      	strb	r3, [r7, #7]
    uint16_t sample;
    uint16_t ppe_offset;
    
    ppe_offset = g_ace_channel_desc_table[channel_handle].signal_ppe_offset;
200019be:	79fa      	ldrb	r2, [r7, #7]
200019c0:	f647 432c 	movw	r3, #31788	; 0x7c2c
200019c4:	f2c2 0300 	movt	r3, #8192	; 0x2000
200019c8:	ea4f 1202 	mov.w	r2, r2, lsl #4
200019cc:	4413      	add	r3, r2
200019ce:	88db      	ldrh	r3, [r3, #6]
200019d0:	81fb      	strh	r3, [r7, #14]
    sample = (uint16_t)(ACE->PPE_RAM_DATA[ppe_offset] >> 16u);
200019d2:	f240 0300 	movw	r3, #0
200019d6:	f2c4 0302 	movt	r3, #16386	; 0x4002
200019da:	89fa      	ldrh	r2, [r7, #14]
200019dc:	f502 62c0 	add.w	r2, r2, #1536	; 0x600
200019e0:	f853 3022 	ldr.w	r3, [r3, r2, lsl #2]
200019e4:	ea4f 4313 	mov.w	r3, r3, lsr #16
200019e8:	81bb      	strh	r3, [r7, #12]
    
    /* Check that the PPE processing did not result into a negative value.*/
    if((sample & 0x8000u) > 0u)
200019ea:	89bb      	ldrh	r3, [r7, #12]
200019ec:	b21b      	sxth	r3, r3
200019ee:	2b00      	cmp	r3, #0
200019f0:	da02      	bge.n	200019f8 <ACE_get_ppe_sample+0x44>
    {
        /* Normalize negative value to zero. */
        sample = 0u;
200019f2:	f04f 0300 	mov.w	r3, #0
200019f6:	81bb      	strh	r3, [r7, #12]
    }
    
    return sample;
200019f8:	89bb      	ldrh	r3, [r7, #12]
}
200019fa:	4618      	mov	r0, r3
200019fc:	f107 0714 	add.w	r7, r7, #20
20001a00:	46bd      	mov	sp, r7
20001a02:	bc80      	pop	{r7}
20001a04:	4770      	bx	lr
20001a06:	bf00      	nop

20001a08 <SystemInit>:

/***************************************************************************//**
 * See system_a2fxxxm3f.h for details.
 */
void SystemInit(void)
{
20001a08:	b480      	push	{r7}
20001a0a:	af00      	add	r7, sp, #0
    /*
     * Do not make use of global variables or make any asumptions regarding
     * memory content if modifying this function. The memory content has not been
     * initialised by the time this function is called by the start-up code.
     */
}
20001a0c:	46bd      	mov	sp, r7
20001a0e:	bc80      	pop	{r7}
20001a10:	4770      	bx	lr
20001a12:	bf00      	nop

20001a14 <SystemCoreClockUpdate>:

/***************************************************************************//**
 *
 */
void SystemCoreClockUpdate (void)
{
20001a14:	b580      	push	{r7, lr}
20001a16:	b08a      	sub	sp, #40	; 0x28
20001a18:	af00      	add	r7, sp, #0
    uint32_t PclkDiv0;
    uint32_t PclkDiv1;
    uint32_t AceDiv;
    uint32_t FabDiv;

    const uint32_t pclk_div_lut[4] = { 1uL, 2uL, 4uL, 1uL };
20001a1a:	f647 1374 	movw	r3, #31092	; 0x7974
20001a1e:	f2c2 0300 	movt	r3, #8192	; 0x2000
20001a22:	46bc      	mov	ip, r7
20001a24:	cb0f      	ldmia	r3!, {r0, r1, r2, r3}
20001a26:	e88c 000f 	stmia.w	ip, {r0, r1, r2, r3}

    /* Read PCLK dividers from system registers. Multiply the value read from
     * system register by two to get actual divider value. */
    PclkDiv0 = pclk_div_lut[((SYSREG->MSS_CLK_CR >> PCLK0_DIV_SHIFT) & PCLK_DIV_MASK)];
20001a2a:	f242 0300 	movw	r3, #8192	; 0x2000
20001a2e:	f2ce 0304 	movt	r3, #57348	; 0xe004
20001a32:	6c9b      	ldr	r3, [r3, #72]	; 0x48
20001a34:	ea4f 0393 	mov.w	r3, r3, lsr #2
20001a38:	f003 0303 	and.w	r3, r3, #3
20001a3c:	ea4f 0383 	mov.w	r3, r3, lsl #2
20001a40:	f107 0228 	add.w	r2, r7, #40	; 0x28
20001a44:	4413      	add	r3, r2
20001a46:	f853 3c28 	ldr.w	r3, [r3, #-40]
20001a4a:	613b      	str	r3, [r7, #16]
    PclkDiv1 = pclk_div_lut[((SYSREG->MSS_CLK_CR >> PCLK1_DIV_SHIFT) & PCLK_DIV_MASK)];
20001a4c:	f242 0300 	movw	r3, #8192	; 0x2000
20001a50:	f2ce 0304 	movt	r3, #57348	; 0xe004
20001a54:	6c9b      	ldr	r3, [r3, #72]	; 0x48
20001a56:	ea4f 1313 	mov.w	r3, r3, lsr #4
20001a5a:	f003 0303 	and.w	r3, r3, #3
20001a5e:	ea4f 0383 	mov.w	r3, r3, lsl #2
20001a62:	f107 0228 	add.w	r2, r7, #40	; 0x28
20001a66:	4413      	add	r3, r2
20001a68:	f853 3c28 	ldr.w	r3, [r3, #-40]
20001a6c:	617b      	str	r3, [r7, #20]
    AceDiv = pclk_div_lut[((SYSREG->MSS_CLK_CR >> ACE_DIV_SHIFT) & PCLK_DIV_MASK)];
20001a6e:	f242 0300 	movw	r3, #8192	; 0x2000
20001a72:	f2ce 0304 	movt	r3, #57348	; 0xe004
20001a76:	6c9b      	ldr	r3, [r3, #72]	; 0x48
20001a78:	ea4f 1393 	mov.w	r3, r3, lsr #6
20001a7c:	f003 0303 	and.w	r3, r3, #3
20001a80:	ea4f 0383 	mov.w	r3, r3, lsl #2
20001a84:	f107 0228 	add.w	r2, r7, #40	; 0x28
20001a88:	4413      	add	r3, r2
20001a8a:	f853 3c28 	ldr.w	r3, [r3, #-40]
20001a8e:	61bb      	str	r3, [r7, #24]
    {
        /* Compute the FPGA fabric frequency divider. */
        uint32_t obdiv;
        uint32_t obdivhalf;
        
        obdiv = (SYSREG->MSS_CCC_DIV_CR >> OBDIV_SHIFT) & OBDIV_MASK;
20001a90:	f242 0300 	movw	r3, #8192	; 0x2000
20001a94:	f2ce 0304 	movt	r3, #57348	; 0xe004
20001a98:	6cdb      	ldr	r3, [r3, #76]	; 0x4c
20001a9a:	ea4f 2313 	mov.w	r3, r3, lsr #8
20001a9e:	f003 031f 	and.w	r3, r3, #31
20001aa2:	623b      	str	r3, [r7, #32]
        obdivhalf = (SYSREG->MSS_CCC_DIV_CR >> OBDIVHALF_SHIFT) & OBDIVHALF_MASK;
20001aa4:	f242 0300 	movw	r3, #8192	; 0x2000
20001aa8:	f2ce 0304 	movt	r3, #57348	; 0xe004
20001aac:	6cdb      	ldr	r3, [r3, #76]	; 0x4c
20001aae:	ea4f 3353 	mov.w	r3, r3, lsr #13
20001ab2:	f003 0301 	and.w	r3, r3, #1
20001ab6:	627b      	str	r3, [r7, #36]	; 0x24
        FabDiv = obdiv + 1uL;
20001ab8:	6a3b      	ldr	r3, [r7, #32]
20001aba:	f103 0301 	add.w	r3, r3, #1
20001abe:	61fb      	str	r3, [r7, #28]
        if ( obdivhalf != 0uL )
20001ac0:	6a7b      	ldr	r3, [r7, #36]	; 0x24
20001ac2:	2b00      	cmp	r3, #0
20001ac4:	d003      	beq.n	20001ace <SystemCoreClockUpdate+0xba>
        {
            FabDiv = FabDiv * 2uL;
20001ac6:	69fb      	ldr	r3, [r7, #28]
20001ac8:	ea4f 0343 	mov.w	r3, r3, lsl #1
20001acc:	61fb      	str	r3, [r7, #28]
    }
    
    /* Retrieve FCLK from eNVM spare pages if Actel system boot programmed as part of the system. */
    
    /* Read system clock from eNVM spare pages. */
    SystemCoreClock = GetSystemClock();
20001ace:	f000 f849 	bl	20001b64 <GetSystemClock>
20001ad2:	4602      	mov	r2, r0
20001ad4:	f647 4310 	movw	r3, #31760	; 0x7c10
20001ad8:	f2c2 0300 	movt	r3, #8192	; 0x2000
20001adc:	601a      	str	r2, [r3, #0]
    g_FrequencyPCLK0 = SystemCoreClock / PclkDiv0;
20001ade:	f647 4310 	movw	r3, #31760	; 0x7c10
20001ae2:	f2c2 0300 	movt	r3, #8192	; 0x2000
20001ae6:	681a      	ldr	r2, [r3, #0]
20001ae8:	693b      	ldr	r3, [r7, #16]
20001aea:	fbb2 f2f3 	udiv	r2, r2, r3
20001aee:	f647 4314 	movw	r3, #31764	; 0x7c14
20001af2:	f2c2 0300 	movt	r3, #8192	; 0x2000
20001af6:	601a      	str	r2, [r3, #0]
    g_FrequencyPCLK1 = SystemCoreClock / PclkDiv1;
20001af8:	f647 4310 	movw	r3, #31760	; 0x7c10
20001afc:	f2c2 0300 	movt	r3, #8192	; 0x2000
20001b00:	681a      	ldr	r2, [r3, #0]
20001b02:	697b      	ldr	r3, [r7, #20]
20001b04:	fbb2 f2f3 	udiv	r2, r2, r3
20001b08:	f647 4318 	movw	r3, #31768	; 0x7c18
20001b0c:	f2c2 0300 	movt	r3, #8192	; 0x2000
20001b10:	601a      	str	r2, [r3, #0]
    g_FrequencyACE = SystemCoreClock / AceDiv;
20001b12:	f647 4310 	movw	r3, #31760	; 0x7c10
20001b16:	f2c2 0300 	movt	r3, #8192	; 0x2000
20001b1a:	681a      	ldr	r2, [r3, #0]
20001b1c:	69bb      	ldr	r3, [r7, #24]
20001b1e:	fbb2 f2f3 	udiv	r2, r2, r3
20001b22:	f647 431c 	movw	r3, #31772	; 0x7c1c
20001b26:	f2c2 0300 	movt	r3, #8192	; 0x2000
20001b2a:	601a      	str	r2, [r3, #0]
    g_FrequencyFPGA = SystemCoreClock / FabDiv;
20001b2c:	f647 4310 	movw	r3, #31760	; 0x7c10
20001b30:	f2c2 0300 	movt	r3, #8192	; 0x2000
20001b34:	681a      	ldr	r2, [r3, #0]
20001b36:	69fb      	ldr	r3, [r7, #28]
20001b38:	fbb2 f2f3 	udiv	r2, r2, r3
20001b3c:	f647 4320 	movw	r3, #31776	; 0x7c20
20001b40:	f2c2 0300 	movt	r3, #8192	; 0x2000
20001b44:	601a      	str	r2, [r3, #0]
    
    /* Keep SystemFrequency as well as SystemCoreClock for legacy reasons. */
    SystemFrequency = SystemCoreClock;
20001b46:	f647 4310 	movw	r3, #31760	; 0x7c10
20001b4a:	f2c2 0300 	movt	r3, #8192	; 0x2000
20001b4e:	681a      	ldr	r2, [r3, #0]
20001b50:	f647 430c 	movw	r3, #31756	; 0x7c0c
20001b54:	f2c2 0300 	movt	r3, #8192	; 0x2000
20001b58:	601a      	str	r2, [r3, #0]
}
20001b5a:	f107 0728 	add.w	r7, r7, #40	; 0x28
20001b5e:	46bd      	mov	sp, r7
20001b60:	bd80      	pop	{r7, pc}
20001b62:	bf00      	nop

20001b64 <GetSystemClock>:
 * retrieved from eNVM spare pages.
 * The FCLK frequency value selected in the MSS Configurator software tool is
 * stored in eNVM spare pages as part of the Actel system boot configuration data.
 */
uint32_t GetSystemClock( void )
{
20001b64:	b480      	push	{r7}
20001b66:	b08b      	sub	sp, #44	; 0x2c
20001b68:	af00      	add	r7, sp, #0
    uint32_t fclk = 0uL;
20001b6a:	f04f 0300 	mov.w	r3, #0
20001b6e:	607b      	str	r3, [r7, #4]
    
    uint32_t * p_sysboot_key = SYSBOOT_KEY_ADDR;
20001b70:	f640 031c 	movw	r3, #2076	; 0x81c
20001b74:	f2c6 0308 	movt	r3, #24584	; 0x6008
20001b78:	60bb      	str	r3, [r7, #8]
    uint32_t * p_idcode = IDCODE_LOCATION;
20001b7a:	f240 2330 	movw	r3, #560	; 0x230
20001b7e:	f2c6 0308 	movt	r3, #24584	; 0x6008
20001b82:	60fb      	str	r3, [r7, #12]
    uint32_t idcode;
	
    idcode = *p_idcode & ~IDCODE_DEV_REV_MASK;
20001b84:	68fb      	ldr	r3, [r7, #12]
20001b86:	681b      	ldr	r3, [r3, #0]
20001b88:	f023 4370 	bic.w	r3, r3, #4026531840	; 0xf0000000
20001b8c:	613b      	str	r3, [r7, #16]
	
    if ( A2F060IFX_ID == idcode )
20001b8e:	693a      	ldr	r2, [r7, #16]
20001b90:	f241 13cf 	movw	r3, #4559	; 0x11cf
20001b94:	f2c0 53a1 	movt	r3, #1441	; 0x5a1
20001b98:	429a      	cmp	r2, r3
20001b9a:	d108      	bne.n	20001bae <GetSystemClock+0x4a>
    {
        uint32_t *p_fclk = SYSBOOT_A2F060_FCLK_ADDR;
20001b9c:	f64e 732c 	movw	r3, #61228	; 0xef2c
20001ba0:	f2c6 0301 	movt	r3, #24577	; 0x6001
20001ba4:	617b      	str	r3, [r7, #20]
        fclk = *p_fclk;
20001ba6:	697b      	ldr	r3, [r7, #20]
20001ba8:	681b      	ldr	r3, [r3, #0]
20001baa:	607b      	str	r3, [r7, #4]
20001bac:	e03d      	b.n	20001c2a <GetSystemClock+0xc6>
    }
    else if ( SYSBOOT_KEY_VALUE == *p_sysboot_key )
20001bae:	68bb      	ldr	r3, [r7, #8]
20001bb0:	681a      	ldr	r2, [r3, #0]
20001bb2:	f244 3341 	movw	r3, #17217	; 0x4341
20001bb6:	f6c4 4354 	movt	r3, #19540	; 0x4c54
20001bba:	429a      	cmp	r2, r3
20001bbc:	d135      	bne.n	20001c2a <GetSystemClock+0xc6>
    {
        /* Actel system boot programmed, check if it has the FCLK value stored. */
        uint32_t *p_sysboot_version = SYSBOOT_VERSION_ADDR;
20001bbe:	f640 0340 	movw	r3, #2112	; 0x840
20001bc2:	f2c6 0308 	movt	r3, #24584	; 0x6008
20001bc6:	61bb      	str	r3, [r7, #24]
        uint32_t sysboot_version = *p_sysboot_version;
20001bc8:	69bb      	ldr	r3, [r7, #24]
20001bca:	681b      	ldr	r3, [r3, #0]
20001bcc:	61fb      	str	r3, [r7, #28]
        
        sysboot_version &= SYSBOOT_VERSION_MASK;
20001bce:	69fb      	ldr	r3, [r7, #28]
20001bd0:	f023 437f 	bic.w	r3, r3, #4278190080	; 0xff000000
20001bd4:	61fb      	str	r3, [r7, #28]
        
        if ( sysboot_version >= MIN_SYSBOOT_VERSION )
20001bd6:	69fa      	ldr	r2, [r7, #28]
20001bd8:	f240 3300 	movw	r3, #768	; 0x300
20001bdc:	f2c0 0301 	movt	r3, #1
20001be0:	429a      	cmp	r2, r3
20001be2:	d922      	bls.n	20001c2a <GetSystemClock+0xc6>
        {
            /* Handle change of eNVM location of FCLK between 1.3.x and 2.x.x versions of the system boot. */
            if ( sysboot_version < SYSBOOT_VERSION_2_X )
20001be4:	69fa      	ldr	r2, [r7, #28]
20001be6:	f64f 73ff 	movw	r3, #65535	; 0xffff
20001bea:	f2c0 0301 	movt	r3, #1
20001bee:	429a      	cmp	r2, r3
20001bf0:	d808      	bhi.n	20001c04 <GetSystemClock+0xa0>
            {
                /* Read FCLK value from MSS configurator generated configuration
                 * data stored in eNVM spare pages as part of system boot version 1.3.x
                 * configuration tables. */
                uint32_t *p_fclk = SYSBOOT_1_3_FCLK_ADDR;
20001bf2:	f241 632c 	movw	r3, #5676	; 0x162c
20001bf6:	f2c6 0308 	movt	r3, #24584	; 0x6008
20001bfa:	623b      	str	r3, [r7, #32]
                fclk = *p_fclk;
20001bfc:	6a3b      	ldr	r3, [r7, #32]
20001bfe:	681b      	ldr	r3, [r3, #0]
20001c00:	607b      	str	r3, [r7, #4]
20001c02:	e012      	b.n	20001c2a <GetSystemClock+0xc6>
            }
            else if ( sysboot_version < MAX_SYSBOOT_VERSION )
20001c04:	69fa      	ldr	r2, [r7, #28]
20001c06:	f64f 73ff 	movw	r3, #65535	; 0xffff
20001c0a:	f2c0 0302 	movt	r3, #2
20001c0e:	429a      	cmp	r2, r3
20001c10:	d808      	bhi.n	20001c24 <GetSystemClock+0xc0>
            {
                /* Read FCLK value from MSS configurator generated configuration
                 * data stored in eNVM spare pages as part of system boot version 2.x.x
                 * configuration tables. */
                uint32_t *p_fclk = SYSBOOT_2_x_FCLK_ADDR;
20001c12:	f641 63ac 	movw	r3, #7852	; 0x1eac
20001c16:	f2c6 0308 	movt	r3, #24584	; 0x6008
20001c1a:	627b      	str	r3, [r7, #36]	; 0x24
                fclk = *p_fclk;
20001c1c:	6a7b      	ldr	r3, [r7, #36]	; 0x24
20001c1e:	681b      	ldr	r3, [r3, #0]
20001c20:	607b      	str	r3, [r7, #4]
20001c22:	e002      	b.n	20001c2a <GetSystemClock+0xc6>
            }
            else
            {
                fclk = 0uL;
20001c24:	f04f 0300 	mov.w	r3, #0
20001c28:	607b      	str	r3, [r7, #4]
            }
        }
    }
    
    if ( 0uL == fclk )
20001c2a:	687b      	ldr	r3, [r7, #4]
20001c2c:	2b00      	cmp	r3, #0
20001c2e:	d105      	bne.n	20001c3c <GetSystemClock+0xd8>
        /* 
         * Could not retrieve FCLK from system boot configuration data. Fall back
         * to using SMARTFUSION_FCLK_FREQ which must then be defined as part of
         * project settings.
         */
        ASSERT( SMARTFUSION_FCLK_FREQ_DEFINED );
20001c30:	be00      	bkpt	0x0000
        fclk = SMARTFUSION_FCLK_FREQ;
20001c32:	f647 0340 	movw	r3, #30784	; 0x7840
20001c36:	f2c0 137d 	movt	r3, #381	; 0x17d
20001c3a:	607b      	str	r3, [r7, #4]
    }
    
    return fclk;
20001c3c:	687b      	ldr	r3, [r7, #4]
}
20001c3e:	4618      	mov	r0, r3
20001c40:	f107 072c 	add.w	r7, r7, #44	; 0x2c
20001c44:	46bd      	mov	sp, r7
20001c46:	bc80      	pop	{r7}
20001c48:	4770      	bx	lr
20001c4a:	bf00      	nop

20001c4c <__aeabi_drsub>:
20001c4c:	f081 4100 	eor.w	r1, r1, #2147483648	; 0x80000000
20001c50:	e002      	b.n	20001c58 <__adddf3>
20001c52:	bf00      	nop

20001c54 <__aeabi_dsub>:
20001c54:	f083 4300 	eor.w	r3, r3, #2147483648	; 0x80000000

20001c58 <__adddf3>:
20001c58:	b530      	push	{r4, r5, lr}
20001c5a:	ea4f 0441 	mov.w	r4, r1, lsl #1
20001c5e:	ea4f 0543 	mov.w	r5, r3, lsl #1
20001c62:	ea94 0f05 	teq	r4, r5
20001c66:	bf08      	it	eq
20001c68:	ea90 0f02 	teqeq	r0, r2
20001c6c:	bf1f      	itttt	ne
20001c6e:	ea54 0c00 	orrsne.w	ip, r4, r0
20001c72:	ea55 0c02 	orrsne.w	ip, r5, r2
20001c76:	ea7f 5c64 	mvnsne.w	ip, r4, asr #21
20001c7a:	ea7f 5c65 	mvnsne.w	ip, r5, asr #21
20001c7e:	f000 80e2 	beq.w	20001e46 <__adddf3+0x1ee>
20001c82:	ea4f 5454 	mov.w	r4, r4, lsr #21
20001c86:	ebd4 5555 	rsbs	r5, r4, r5, lsr #21
20001c8a:	bfb8      	it	lt
20001c8c:	426d      	neglt	r5, r5
20001c8e:	dd0c      	ble.n	20001caa <__adddf3+0x52>
20001c90:	442c      	add	r4, r5
20001c92:	ea80 0202 	eor.w	r2, r0, r2
20001c96:	ea81 0303 	eor.w	r3, r1, r3
20001c9a:	ea82 0000 	eor.w	r0, r2, r0
20001c9e:	ea83 0101 	eor.w	r1, r3, r1
20001ca2:	ea80 0202 	eor.w	r2, r0, r2
20001ca6:	ea81 0303 	eor.w	r3, r1, r3
20001caa:	2d36      	cmp	r5, #54	; 0x36
20001cac:	bf88      	it	hi
20001cae:	bd30      	pophi	{r4, r5, pc}
20001cb0:	f011 4f00 	tst.w	r1, #2147483648	; 0x80000000
20001cb4:	ea4f 3101 	mov.w	r1, r1, lsl #12
20001cb8:	f44f 1c80 	mov.w	ip, #1048576	; 0x100000
20001cbc:	ea4c 3111 	orr.w	r1, ip, r1, lsr #12
20001cc0:	d002      	beq.n	20001cc8 <__adddf3+0x70>
20001cc2:	4240      	negs	r0, r0
20001cc4:	eb61 0141 	sbc.w	r1, r1, r1, lsl #1
20001cc8:	f013 4f00 	tst.w	r3, #2147483648	; 0x80000000
20001ccc:	ea4f 3303 	mov.w	r3, r3, lsl #12
20001cd0:	ea4c 3313 	orr.w	r3, ip, r3, lsr #12
20001cd4:	d002      	beq.n	20001cdc <__adddf3+0x84>
20001cd6:	4252      	negs	r2, r2
20001cd8:	eb63 0343 	sbc.w	r3, r3, r3, lsl #1
20001cdc:	ea94 0f05 	teq	r4, r5
20001ce0:	f000 80a7 	beq.w	20001e32 <__adddf3+0x1da>
20001ce4:	f1a4 0401 	sub.w	r4, r4, #1
20001ce8:	f1d5 0e20 	rsbs	lr, r5, #32
20001cec:	db0d      	blt.n	20001d0a <__adddf3+0xb2>
20001cee:	fa02 fc0e 	lsl.w	ip, r2, lr
20001cf2:	fa22 f205 	lsr.w	r2, r2, r5
20001cf6:	1880      	adds	r0, r0, r2
20001cf8:	f141 0100 	adc.w	r1, r1, #0
20001cfc:	fa03 f20e 	lsl.w	r2, r3, lr
20001d00:	1880      	adds	r0, r0, r2
20001d02:	fa43 f305 	asr.w	r3, r3, r5
20001d06:	4159      	adcs	r1, r3
20001d08:	e00e      	b.n	20001d28 <__adddf3+0xd0>
20001d0a:	f1a5 0520 	sub.w	r5, r5, #32
20001d0e:	f10e 0e20 	add.w	lr, lr, #32
20001d12:	2a01      	cmp	r2, #1
20001d14:	fa03 fc0e 	lsl.w	ip, r3, lr
20001d18:	bf28      	it	cs
20001d1a:	f04c 0c02 	orrcs.w	ip, ip, #2
20001d1e:	fa43 f305 	asr.w	r3, r3, r5
20001d22:	18c0      	adds	r0, r0, r3
20001d24:	eb51 71e3 	adcs.w	r1, r1, r3, asr #31
20001d28:	f001 4500 	and.w	r5, r1, #2147483648	; 0x80000000
20001d2c:	d507      	bpl.n	20001d3e <__adddf3+0xe6>
20001d2e:	f04f 0e00 	mov.w	lr, #0
20001d32:	f1dc 0c00 	rsbs	ip, ip, #0
20001d36:	eb7e 0000 	sbcs.w	r0, lr, r0
20001d3a:	eb6e 0101 	sbc.w	r1, lr, r1
20001d3e:	f5b1 1f80 	cmp.w	r1, #1048576	; 0x100000
20001d42:	d31b      	bcc.n	20001d7c <__adddf3+0x124>
20001d44:	f5b1 1f00 	cmp.w	r1, #2097152	; 0x200000
20001d48:	d30c      	bcc.n	20001d64 <__adddf3+0x10c>
20001d4a:	0849      	lsrs	r1, r1, #1
20001d4c:	ea5f 0030 	movs.w	r0, r0, rrx
20001d50:	ea4f 0c3c 	mov.w	ip, ip, rrx
20001d54:	f104 0401 	add.w	r4, r4, #1
20001d58:	ea4f 5244 	mov.w	r2, r4, lsl #21
20001d5c:	f512 0f80 	cmn.w	r2, #4194304	; 0x400000
20001d60:	f080 809a 	bcs.w	20001e98 <__adddf3+0x240>
20001d64:	f1bc 4f00 	cmp.w	ip, #2147483648	; 0x80000000
20001d68:	bf08      	it	eq
20001d6a:	ea5f 0c50 	movseq.w	ip, r0, lsr #1
20001d6e:	f150 0000 	adcs.w	r0, r0, #0
20001d72:	eb41 5104 	adc.w	r1, r1, r4, lsl #20
20001d76:	ea41 0105 	orr.w	r1, r1, r5
20001d7a:	bd30      	pop	{r4, r5, pc}
20001d7c:	ea5f 0c4c 	movs.w	ip, ip, lsl #1
20001d80:	4140      	adcs	r0, r0
20001d82:	eb41 0101 	adc.w	r1, r1, r1
20001d86:	f411 1f80 	tst.w	r1, #1048576	; 0x100000
20001d8a:	f1a4 0401 	sub.w	r4, r4, #1
20001d8e:	d1e9      	bne.n	20001d64 <__adddf3+0x10c>
20001d90:	f091 0f00 	teq	r1, #0
20001d94:	bf04      	itt	eq
20001d96:	4601      	moveq	r1, r0
20001d98:	2000      	moveq	r0, #0
20001d9a:	fab1 f381 	clz	r3, r1
20001d9e:	bf08      	it	eq
20001da0:	3320      	addeq	r3, #32
20001da2:	f1a3 030b 	sub.w	r3, r3, #11
20001da6:	f1b3 0220 	subs.w	r2, r3, #32
20001daa:	da0c      	bge.n	20001dc6 <__adddf3+0x16e>
20001dac:	320c      	adds	r2, #12
20001dae:	dd08      	ble.n	20001dc2 <__adddf3+0x16a>
20001db0:	f102 0c14 	add.w	ip, r2, #20
20001db4:	f1c2 020c 	rsb	r2, r2, #12
20001db8:	fa01 f00c 	lsl.w	r0, r1, ip
20001dbc:	fa21 f102 	lsr.w	r1, r1, r2
20001dc0:	e00c      	b.n	20001ddc <__adddf3+0x184>
20001dc2:	f102 0214 	add.w	r2, r2, #20
20001dc6:	bfd8      	it	le
20001dc8:	f1c2 0c20 	rsble	ip, r2, #32
20001dcc:	fa01 f102 	lsl.w	r1, r1, r2
20001dd0:	fa20 fc0c 	lsr.w	ip, r0, ip
20001dd4:	bfdc      	itt	le
20001dd6:	ea41 010c 	orrle.w	r1, r1, ip
20001dda:	4090      	lslle	r0, r2
20001ddc:	1ae4      	subs	r4, r4, r3
20001dde:	bfa2      	ittt	ge
20001de0:	eb01 5104 	addge.w	r1, r1, r4, lsl #20
20001de4:	4329      	orrge	r1, r5
20001de6:	bd30      	popge	{r4, r5, pc}
20001de8:	ea6f 0404 	mvn.w	r4, r4
20001dec:	3c1f      	subs	r4, #31
20001dee:	da1c      	bge.n	20001e2a <__adddf3+0x1d2>
20001df0:	340c      	adds	r4, #12
20001df2:	dc0e      	bgt.n	20001e12 <__adddf3+0x1ba>
20001df4:	f104 0414 	add.w	r4, r4, #20
20001df8:	f1c4 0220 	rsb	r2, r4, #32
20001dfc:	fa20 f004 	lsr.w	r0, r0, r4
20001e00:	fa01 f302 	lsl.w	r3, r1, r2
20001e04:	ea40 0003 	orr.w	r0, r0, r3
20001e08:	fa21 f304 	lsr.w	r3, r1, r4
20001e0c:	ea45 0103 	orr.w	r1, r5, r3
20001e10:	bd30      	pop	{r4, r5, pc}
20001e12:	f1c4 040c 	rsb	r4, r4, #12
20001e16:	f1c4 0220 	rsb	r2, r4, #32
20001e1a:	fa20 f002 	lsr.w	r0, r0, r2
20001e1e:	fa01 f304 	lsl.w	r3, r1, r4
20001e22:	ea40 0003 	orr.w	r0, r0, r3
20001e26:	4629      	mov	r1, r5
20001e28:	bd30      	pop	{r4, r5, pc}
20001e2a:	fa21 f004 	lsr.w	r0, r1, r4
20001e2e:	4629      	mov	r1, r5
20001e30:	bd30      	pop	{r4, r5, pc}
20001e32:	f094 0f00 	teq	r4, #0
20001e36:	f483 1380 	eor.w	r3, r3, #1048576	; 0x100000
20001e3a:	bf06      	itte	eq
20001e3c:	f481 1180 	eoreq.w	r1, r1, #1048576	; 0x100000
20001e40:	3401      	addeq	r4, #1
20001e42:	3d01      	subne	r5, #1
20001e44:	e74e      	b.n	20001ce4 <__adddf3+0x8c>
20001e46:	ea7f 5c64 	mvns.w	ip, r4, asr #21
20001e4a:	bf18      	it	ne
20001e4c:	ea7f 5c65 	mvnsne.w	ip, r5, asr #21
20001e50:	d029      	beq.n	20001ea6 <__adddf3+0x24e>
20001e52:	ea94 0f05 	teq	r4, r5
20001e56:	bf08      	it	eq
20001e58:	ea90 0f02 	teqeq	r0, r2
20001e5c:	d005      	beq.n	20001e6a <__adddf3+0x212>
20001e5e:	ea54 0c00 	orrs.w	ip, r4, r0
20001e62:	bf04      	itt	eq
20001e64:	4619      	moveq	r1, r3
20001e66:	4610      	moveq	r0, r2
20001e68:	bd30      	pop	{r4, r5, pc}
20001e6a:	ea91 0f03 	teq	r1, r3
20001e6e:	bf1e      	ittt	ne
20001e70:	2100      	movne	r1, #0
20001e72:	2000      	movne	r0, #0
20001e74:	bd30      	popne	{r4, r5, pc}
20001e76:	ea5f 5c54 	movs.w	ip, r4, lsr #21
20001e7a:	d105      	bne.n	20001e88 <__adddf3+0x230>
20001e7c:	0040      	lsls	r0, r0, #1
20001e7e:	4149      	adcs	r1, r1
20001e80:	bf28      	it	cs
20001e82:	f041 4100 	orrcs.w	r1, r1, #2147483648	; 0x80000000
20001e86:	bd30      	pop	{r4, r5, pc}
20001e88:	f514 0480 	adds.w	r4, r4, #4194304	; 0x400000
20001e8c:	bf3c      	itt	cc
20001e8e:	f501 1180 	addcc.w	r1, r1, #1048576	; 0x100000
20001e92:	bd30      	popcc	{r4, r5, pc}
20001e94:	f001 4500 	and.w	r5, r1, #2147483648	; 0x80000000
20001e98:	f045 41fe 	orr.w	r1, r5, #2130706432	; 0x7f000000
20001e9c:	f441 0170 	orr.w	r1, r1, #15728640	; 0xf00000
20001ea0:	f04f 0000 	mov.w	r0, #0
20001ea4:	bd30      	pop	{r4, r5, pc}
20001ea6:	ea7f 5c64 	mvns.w	ip, r4, asr #21
20001eaa:	bf1a      	itte	ne
20001eac:	4619      	movne	r1, r3
20001eae:	4610      	movne	r0, r2
20001eb0:	ea7f 5c65 	mvnseq.w	ip, r5, asr #21
20001eb4:	bf1c      	itt	ne
20001eb6:	460b      	movne	r3, r1
20001eb8:	4602      	movne	r2, r0
20001eba:	ea50 3401 	orrs.w	r4, r0, r1, lsl #12
20001ebe:	bf06      	itte	eq
20001ec0:	ea52 3503 	orrseq.w	r5, r2, r3, lsl #12
20001ec4:	ea91 0f03 	teqeq	r1, r3
20001ec8:	f441 2100 	orrne.w	r1, r1, #524288	; 0x80000
20001ecc:	bd30      	pop	{r4, r5, pc}
20001ece:	bf00      	nop

20001ed0 <__aeabi_ui2d>:
20001ed0:	f090 0f00 	teq	r0, #0
20001ed4:	bf04      	itt	eq
20001ed6:	2100      	moveq	r1, #0
20001ed8:	4770      	bxeq	lr
20001eda:	b530      	push	{r4, r5, lr}
20001edc:	f44f 6480 	mov.w	r4, #1024	; 0x400
20001ee0:	f104 0432 	add.w	r4, r4, #50	; 0x32
20001ee4:	f04f 0500 	mov.w	r5, #0
20001ee8:	f04f 0100 	mov.w	r1, #0
20001eec:	e750      	b.n	20001d90 <__adddf3+0x138>
20001eee:	bf00      	nop

20001ef0 <__aeabi_i2d>:
20001ef0:	f090 0f00 	teq	r0, #0
20001ef4:	bf04      	itt	eq
20001ef6:	2100      	moveq	r1, #0
20001ef8:	4770      	bxeq	lr
20001efa:	b530      	push	{r4, r5, lr}
20001efc:	f44f 6480 	mov.w	r4, #1024	; 0x400
20001f00:	f104 0432 	add.w	r4, r4, #50	; 0x32
20001f04:	f010 4500 	ands.w	r5, r0, #2147483648	; 0x80000000
20001f08:	bf48      	it	mi
20001f0a:	4240      	negmi	r0, r0
20001f0c:	f04f 0100 	mov.w	r1, #0
20001f10:	e73e      	b.n	20001d90 <__adddf3+0x138>
20001f12:	bf00      	nop

20001f14 <__aeabi_f2d>:
20001f14:	0042      	lsls	r2, r0, #1
20001f16:	ea4f 01e2 	mov.w	r1, r2, asr #3
20001f1a:	ea4f 0131 	mov.w	r1, r1, rrx
20001f1e:	ea4f 7002 	mov.w	r0, r2, lsl #28
20001f22:	bf1f      	itttt	ne
20001f24:	f012 437f 	andsne.w	r3, r2, #4278190080	; 0xff000000
20001f28:	f093 4f7f 	teqne	r3, #4278190080	; 0xff000000
20001f2c:	f081 5160 	eorne.w	r1, r1, #939524096	; 0x38000000
20001f30:	4770      	bxne	lr
20001f32:	f092 0f00 	teq	r2, #0
20001f36:	bf14      	ite	ne
20001f38:	f093 4f7f 	teqne	r3, #4278190080	; 0xff000000
20001f3c:	4770      	bxeq	lr
20001f3e:	b530      	push	{r4, r5, lr}
20001f40:	f44f 7460 	mov.w	r4, #896	; 0x380
20001f44:	f001 4500 	and.w	r5, r1, #2147483648	; 0x80000000
20001f48:	f021 4100 	bic.w	r1, r1, #2147483648	; 0x80000000
20001f4c:	e720      	b.n	20001d90 <__adddf3+0x138>
20001f4e:	bf00      	nop

20001f50 <__aeabi_ul2d>:
20001f50:	ea50 0201 	orrs.w	r2, r0, r1
20001f54:	bf08      	it	eq
20001f56:	4770      	bxeq	lr
20001f58:	b530      	push	{r4, r5, lr}
20001f5a:	f04f 0500 	mov.w	r5, #0
20001f5e:	e00a      	b.n	20001f76 <__aeabi_l2d+0x16>

20001f60 <__aeabi_l2d>:
20001f60:	ea50 0201 	orrs.w	r2, r0, r1
20001f64:	bf08      	it	eq
20001f66:	4770      	bxeq	lr
20001f68:	b530      	push	{r4, r5, lr}
20001f6a:	f011 4500 	ands.w	r5, r1, #2147483648	; 0x80000000
20001f6e:	d502      	bpl.n	20001f76 <__aeabi_l2d+0x16>
20001f70:	4240      	negs	r0, r0
20001f72:	eb61 0141 	sbc.w	r1, r1, r1, lsl #1
20001f76:	f44f 6480 	mov.w	r4, #1024	; 0x400
20001f7a:	f104 0432 	add.w	r4, r4, #50	; 0x32
20001f7e:	ea5f 5c91 	movs.w	ip, r1, lsr #22
20001f82:	f43f aedc 	beq.w	20001d3e <__adddf3+0xe6>
20001f86:	f04f 0203 	mov.w	r2, #3
20001f8a:	ea5f 0cdc 	movs.w	ip, ip, lsr #3
20001f8e:	bf18      	it	ne
20001f90:	3203      	addne	r2, #3
20001f92:	ea5f 0cdc 	movs.w	ip, ip, lsr #3
20001f96:	bf18      	it	ne
20001f98:	3203      	addne	r2, #3
20001f9a:	eb02 02dc 	add.w	r2, r2, ip, lsr #3
20001f9e:	f1c2 0320 	rsb	r3, r2, #32
20001fa2:	fa00 fc03 	lsl.w	ip, r0, r3
20001fa6:	fa20 f002 	lsr.w	r0, r0, r2
20001faa:	fa01 fe03 	lsl.w	lr, r1, r3
20001fae:	ea40 000e 	orr.w	r0, r0, lr
20001fb2:	fa21 f102 	lsr.w	r1, r1, r2
20001fb6:	4414      	add	r4, r2
20001fb8:	e6c1      	b.n	20001d3e <__adddf3+0xe6>
20001fba:	bf00      	nop

20001fbc <__aeabi_frsub>:
20001fbc:	f080 4000 	eor.w	r0, r0, #2147483648	; 0x80000000
20001fc0:	e002      	b.n	20001fc8 <__addsf3>
20001fc2:	bf00      	nop

20001fc4 <__aeabi_fsub>:
20001fc4:	f081 4100 	eor.w	r1, r1, #2147483648	; 0x80000000

20001fc8 <__addsf3>:
20001fc8:	0042      	lsls	r2, r0, #1
20001fca:	bf1f      	itttt	ne
20001fcc:	ea5f 0341 	movsne.w	r3, r1, lsl #1
20001fd0:	ea92 0f03 	teqne	r2, r3
20001fd4:	ea7f 6c22 	mvnsne.w	ip, r2, asr #24
20001fd8:	ea7f 6c23 	mvnsne.w	ip, r3, asr #24
20001fdc:	d06a      	beq.n	200020b4 <__addsf3+0xec>
20001fde:	ea4f 6212 	mov.w	r2, r2, lsr #24
20001fe2:	ebd2 6313 	rsbs	r3, r2, r3, lsr #24
20001fe6:	bfc1      	itttt	gt
20001fe8:	18d2      	addgt	r2, r2, r3
20001fea:	4041      	eorgt	r1, r0
20001fec:	4048      	eorgt	r0, r1
20001fee:	4041      	eorgt	r1, r0
20001ff0:	bfb8      	it	lt
20001ff2:	425b      	neglt	r3, r3
20001ff4:	2b19      	cmp	r3, #25
20001ff6:	bf88      	it	hi
20001ff8:	4770      	bxhi	lr
20001ffa:	f010 4f00 	tst.w	r0, #2147483648	; 0x80000000
20001ffe:	f440 0000 	orr.w	r0, r0, #8388608	; 0x800000
20002002:	f020 407f 	bic.w	r0, r0, #4278190080	; 0xff000000
20002006:	bf18      	it	ne
20002008:	4240      	negne	r0, r0
2000200a:	f011 4f00 	tst.w	r1, #2147483648	; 0x80000000
2000200e:	f441 0100 	orr.w	r1, r1, #8388608	; 0x800000
20002012:	f021 417f 	bic.w	r1, r1, #4278190080	; 0xff000000
20002016:	bf18      	it	ne
20002018:	4249      	negne	r1, r1
2000201a:	ea92 0f03 	teq	r2, r3
2000201e:	d03f      	beq.n	200020a0 <__addsf3+0xd8>
20002020:	f1a2 0201 	sub.w	r2, r2, #1
20002024:	fa41 fc03 	asr.w	ip, r1, r3
20002028:	eb10 000c 	adds.w	r0, r0, ip
2000202c:	f1c3 0320 	rsb	r3, r3, #32
20002030:	fa01 f103 	lsl.w	r1, r1, r3
20002034:	f000 4300 	and.w	r3, r0, #2147483648	; 0x80000000
20002038:	d502      	bpl.n	20002040 <__addsf3+0x78>
2000203a:	4249      	negs	r1, r1
2000203c:	eb60 0040 	sbc.w	r0, r0, r0, lsl #1
20002040:	f5b0 0f00 	cmp.w	r0, #8388608	; 0x800000
20002044:	d313      	bcc.n	2000206e <__addsf3+0xa6>
20002046:	f1b0 7f80 	cmp.w	r0, #16777216	; 0x1000000
2000204a:	d306      	bcc.n	2000205a <__addsf3+0x92>
2000204c:	0840      	lsrs	r0, r0, #1
2000204e:	ea4f 0131 	mov.w	r1, r1, rrx
20002052:	f102 0201 	add.w	r2, r2, #1
20002056:	2afe      	cmp	r2, #254	; 0xfe
20002058:	d251      	bcs.n	200020fe <__addsf3+0x136>
2000205a:	f1b1 4f00 	cmp.w	r1, #2147483648	; 0x80000000
2000205e:	eb40 50c2 	adc.w	r0, r0, r2, lsl #23
20002062:	bf08      	it	eq
20002064:	f020 0001 	biceq.w	r0, r0, #1
20002068:	ea40 0003 	orr.w	r0, r0, r3
2000206c:	4770      	bx	lr
2000206e:	0049      	lsls	r1, r1, #1
20002070:	eb40 0000 	adc.w	r0, r0, r0
20002074:	f410 0f00 	tst.w	r0, #8388608	; 0x800000
20002078:	f1a2 0201 	sub.w	r2, r2, #1
2000207c:	d1ed      	bne.n	2000205a <__addsf3+0x92>
2000207e:	fab0 fc80 	clz	ip, r0
20002082:	f1ac 0c08 	sub.w	ip, ip, #8
20002086:	ebb2 020c 	subs.w	r2, r2, ip
2000208a:	fa00 f00c 	lsl.w	r0, r0, ip
2000208e:	bfaa      	itet	ge
20002090:	eb00 50c2 	addge.w	r0, r0, r2, lsl #23
20002094:	4252      	neglt	r2, r2
20002096:	4318      	orrge	r0, r3
20002098:	bfbc      	itt	lt
2000209a:	40d0      	lsrlt	r0, r2
2000209c:	4318      	orrlt	r0, r3
2000209e:	4770      	bx	lr
200020a0:	f092 0f00 	teq	r2, #0
200020a4:	f481 0100 	eor.w	r1, r1, #8388608	; 0x800000
200020a8:	bf06      	itte	eq
200020aa:	f480 0000 	eoreq.w	r0, r0, #8388608	; 0x800000
200020ae:	3201      	addeq	r2, #1
200020b0:	3b01      	subne	r3, #1
200020b2:	e7b5      	b.n	20002020 <__addsf3+0x58>
200020b4:	ea4f 0341 	mov.w	r3, r1, lsl #1
200020b8:	ea7f 6c22 	mvns.w	ip, r2, asr #24
200020bc:	bf18      	it	ne
200020be:	ea7f 6c23 	mvnsne.w	ip, r3, asr #24
200020c2:	d021      	beq.n	20002108 <__addsf3+0x140>
200020c4:	ea92 0f03 	teq	r2, r3
200020c8:	d004      	beq.n	200020d4 <__addsf3+0x10c>
200020ca:	f092 0f00 	teq	r2, #0
200020ce:	bf08      	it	eq
200020d0:	4608      	moveq	r0, r1
200020d2:	4770      	bx	lr
200020d4:	ea90 0f01 	teq	r0, r1
200020d8:	bf1c      	itt	ne
200020da:	2000      	movne	r0, #0
200020dc:	4770      	bxne	lr
200020de:	f012 4f7f 	tst.w	r2, #4278190080	; 0xff000000
200020e2:	d104      	bne.n	200020ee <__addsf3+0x126>
200020e4:	0040      	lsls	r0, r0, #1
200020e6:	bf28      	it	cs
200020e8:	f040 4000 	orrcs.w	r0, r0, #2147483648	; 0x80000000
200020ec:	4770      	bx	lr
200020ee:	f112 7200 	adds.w	r2, r2, #33554432	; 0x2000000
200020f2:	bf3c      	itt	cc
200020f4:	f500 0000 	addcc.w	r0, r0, #8388608	; 0x800000
200020f8:	4770      	bxcc	lr
200020fa:	f000 4300 	and.w	r3, r0, #2147483648	; 0x80000000
200020fe:	f043 40fe 	orr.w	r0, r3, #2130706432	; 0x7f000000
20002102:	f440 0000 	orr.w	r0, r0, #8388608	; 0x800000
20002106:	4770      	bx	lr
20002108:	ea7f 6222 	mvns.w	r2, r2, asr #24
2000210c:	bf16      	itet	ne
2000210e:	4608      	movne	r0, r1
20002110:	ea7f 6323 	mvnseq.w	r3, r3, asr #24
20002114:	4601      	movne	r1, r0
20002116:	0242      	lsls	r2, r0, #9
20002118:	bf06      	itte	eq
2000211a:	ea5f 2341 	movseq.w	r3, r1, lsl #9
2000211e:	ea90 0f01 	teqeq	r0, r1
20002122:	f440 0080 	orrne.w	r0, r0, #4194304	; 0x400000
20002126:	4770      	bx	lr

20002128 <__aeabi_ui2f>:
20002128:	f04f 0300 	mov.w	r3, #0
2000212c:	e004      	b.n	20002138 <__aeabi_i2f+0x8>
2000212e:	bf00      	nop

20002130 <__aeabi_i2f>:
20002130:	f010 4300 	ands.w	r3, r0, #2147483648	; 0x80000000
20002134:	bf48      	it	mi
20002136:	4240      	negmi	r0, r0
20002138:	ea5f 0c00 	movs.w	ip, r0
2000213c:	bf08      	it	eq
2000213e:	4770      	bxeq	lr
20002140:	f043 4396 	orr.w	r3, r3, #1258291200	; 0x4b000000
20002144:	4601      	mov	r1, r0
20002146:	f04f 0000 	mov.w	r0, #0
2000214a:	e01c      	b.n	20002186 <__aeabi_l2f+0x2a>

2000214c <__aeabi_ul2f>:
2000214c:	ea50 0201 	orrs.w	r2, r0, r1
20002150:	bf08      	it	eq
20002152:	4770      	bxeq	lr
20002154:	f04f 0300 	mov.w	r3, #0
20002158:	e00a      	b.n	20002170 <__aeabi_l2f+0x14>
2000215a:	bf00      	nop

2000215c <__aeabi_l2f>:
2000215c:	ea50 0201 	orrs.w	r2, r0, r1
20002160:	bf08      	it	eq
20002162:	4770      	bxeq	lr
20002164:	f011 4300 	ands.w	r3, r1, #2147483648	; 0x80000000
20002168:	d502      	bpl.n	20002170 <__aeabi_l2f+0x14>
2000216a:	4240      	negs	r0, r0
2000216c:	eb61 0141 	sbc.w	r1, r1, r1, lsl #1
20002170:	ea5f 0c01 	movs.w	ip, r1
20002174:	bf02      	ittt	eq
20002176:	4684      	moveq	ip, r0
20002178:	4601      	moveq	r1, r0
2000217a:	2000      	moveq	r0, #0
2000217c:	f043 43b6 	orr.w	r3, r3, #1526726656	; 0x5b000000
20002180:	bf08      	it	eq
20002182:	f1a3 5380 	subeq.w	r3, r3, #268435456	; 0x10000000
20002186:	f5a3 0300 	sub.w	r3, r3, #8388608	; 0x800000
2000218a:	fabc f28c 	clz	r2, ip
2000218e:	3a08      	subs	r2, #8
20002190:	eba3 53c2 	sub.w	r3, r3, r2, lsl #23
20002194:	db10      	blt.n	200021b8 <__aeabi_l2f+0x5c>
20002196:	fa01 fc02 	lsl.w	ip, r1, r2
2000219a:	4463      	add	r3, ip
2000219c:	fa00 fc02 	lsl.w	ip, r0, r2
200021a0:	f1c2 0220 	rsb	r2, r2, #32
200021a4:	f1bc 4f00 	cmp.w	ip, #2147483648	; 0x80000000
200021a8:	fa20 f202 	lsr.w	r2, r0, r2
200021ac:	eb43 0002 	adc.w	r0, r3, r2
200021b0:	bf08      	it	eq
200021b2:	f020 0001 	biceq.w	r0, r0, #1
200021b6:	4770      	bx	lr
200021b8:	f102 0220 	add.w	r2, r2, #32
200021bc:	fa01 fc02 	lsl.w	ip, r1, r2
200021c0:	f1c2 0220 	rsb	r2, r2, #32
200021c4:	ea50 004c 	orrs.w	r0, r0, ip, lsl #1
200021c8:	fa21 f202 	lsr.w	r2, r1, r2
200021cc:	eb43 0002 	adc.w	r0, r3, r2
200021d0:	bf08      	it	eq
200021d2:	ea20 70dc 	biceq.w	r0, r0, ip, lsr #31
200021d6:	4770      	bx	lr

200021d8 <__aeabi_fmul>:
200021d8:	f04f 0cff 	mov.w	ip, #255	; 0xff
200021dc:	ea1c 52d0 	ands.w	r2, ip, r0, lsr #23
200021e0:	bf1e      	ittt	ne
200021e2:	ea1c 53d1 	andsne.w	r3, ip, r1, lsr #23
200021e6:	ea92 0f0c 	teqne	r2, ip
200021ea:	ea93 0f0c 	teqne	r3, ip
200021ee:	d06f      	beq.n	200022d0 <__aeabi_fmul+0xf8>
200021f0:	441a      	add	r2, r3
200021f2:	ea80 0c01 	eor.w	ip, r0, r1
200021f6:	0240      	lsls	r0, r0, #9
200021f8:	bf18      	it	ne
200021fa:	ea5f 2141 	movsne.w	r1, r1, lsl #9
200021fe:	d01e      	beq.n	2000223e <__aeabi_fmul+0x66>
20002200:	f04f 6300 	mov.w	r3, #134217728	; 0x8000000
20002204:	ea43 1050 	orr.w	r0, r3, r0, lsr #5
20002208:	ea43 1151 	orr.w	r1, r3, r1, lsr #5
2000220c:	fba0 3101 	umull	r3, r1, r0, r1
20002210:	f00c 4000 	and.w	r0, ip, #2147483648	; 0x80000000
20002214:	f5b1 0f00 	cmp.w	r1, #8388608	; 0x800000
20002218:	bf3e      	ittt	cc
2000221a:	0049      	lslcc	r1, r1, #1
2000221c:	ea41 71d3 	orrcc.w	r1, r1, r3, lsr #31
20002220:	005b      	lslcc	r3, r3, #1
20002222:	ea40 0001 	orr.w	r0, r0, r1
20002226:	f162 027f 	sbc.w	r2, r2, #127	; 0x7f
2000222a:	2afd      	cmp	r2, #253	; 0xfd
2000222c:	d81d      	bhi.n	2000226a <__aeabi_fmul+0x92>
2000222e:	f1b3 4f00 	cmp.w	r3, #2147483648	; 0x80000000
20002232:	eb40 50c2 	adc.w	r0, r0, r2, lsl #23
20002236:	bf08      	it	eq
20002238:	f020 0001 	biceq.w	r0, r0, #1
2000223c:	4770      	bx	lr
2000223e:	f090 0f00 	teq	r0, #0
20002242:	f00c 4c00 	and.w	ip, ip, #2147483648	; 0x80000000
20002246:	bf08      	it	eq
20002248:	0249      	lsleq	r1, r1, #9
2000224a:	ea4c 2050 	orr.w	r0, ip, r0, lsr #9
2000224e:	ea40 2051 	orr.w	r0, r0, r1, lsr #9
20002252:	3a7f      	subs	r2, #127	; 0x7f
20002254:	bfc2      	ittt	gt
20002256:	f1d2 03ff 	rsbsgt	r3, r2, #255	; 0xff
2000225a:	ea40 50c2 	orrgt.w	r0, r0, r2, lsl #23
2000225e:	4770      	bxgt	lr
20002260:	f440 0000 	orr.w	r0, r0, #8388608	; 0x800000
20002264:	f04f 0300 	mov.w	r3, #0
20002268:	3a01      	subs	r2, #1
2000226a:	dc5d      	bgt.n	20002328 <__aeabi_fmul+0x150>
2000226c:	f112 0f19 	cmn.w	r2, #25
20002270:	bfdc      	itt	le
20002272:	f000 4000 	andle.w	r0, r0, #2147483648	; 0x80000000
20002276:	4770      	bxle	lr
20002278:	f1c2 0200 	rsb	r2, r2, #0
2000227c:	0041      	lsls	r1, r0, #1
2000227e:	fa21 f102 	lsr.w	r1, r1, r2
20002282:	f1c2 0220 	rsb	r2, r2, #32
20002286:	fa00 fc02 	lsl.w	ip, r0, r2
2000228a:	ea5f 0031 	movs.w	r0, r1, rrx
2000228e:	f140 0000 	adc.w	r0, r0, #0
20002292:	ea53 034c 	orrs.w	r3, r3, ip, lsl #1
20002296:	bf08      	it	eq
20002298:	ea20 70dc 	biceq.w	r0, r0, ip, lsr #31
2000229c:	4770      	bx	lr
2000229e:	f092 0f00 	teq	r2, #0
200022a2:	f000 4c00 	and.w	ip, r0, #2147483648	; 0x80000000
200022a6:	bf02      	ittt	eq
200022a8:	0040      	lsleq	r0, r0, #1
200022aa:	f410 0f00 	tsteq.w	r0, #8388608	; 0x800000
200022ae:	3a01      	subeq	r2, #1
200022b0:	d0f9      	beq.n	200022a6 <__aeabi_fmul+0xce>
200022b2:	ea40 000c 	orr.w	r0, r0, ip
200022b6:	f093 0f00 	teq	r3, #0
200022ba:	f001 4c00 	and.w	ip, r1, #2147483648	; 0x80000000
200022be:	bf02      	ittt	eq
200022c0:	0049      	lsleq	r1, r1, #1
200022c2:	f411 0f00 	tsteq.w	r1, #8388608	; 0x800000
200022c6:	3b01      	subeq	r3, #1
200022c8:	d0f9      	beq.n	200022be <__aeabi_fmul+0xe6>
200022ca:	ea41 010c 	orr.w	r1, r1, ip
200022ce:	e78f      	b.n	200021f0 <__aeabi_fmul+0x18>
200022d0:	ea0c 53d1 	and.w	r3, ip, r1, lsr #23
200022d4:	ea92 0f0c 	teq	r2, ip
200022d8:	bf18      	it	ne
200022da:	ea93 0f0c 	teqne	r3, ip
200022de:	d00a      	beq.n	200022f6 <__aeabi_fmul+0x11e>
200022e0:	f030 4c00 	bics.w	ip, r0, #2147483648	; 0x80000000
200022e4:	bf18      	it	ne
200022e6:	f031 4c00 	bicsne.w	ip, r1, #2147483648	; 0x80000000
200022ea:	d1d8      	bne.n	2000229e <__aeabi_fmul+0xc6>
200022ec:	ea80 0001 	eor.w	r0, r0, r1
200022f0:	f000 4000 	and.w	r0, r0, #2147483648	; 0x80000000
200022f4:	4770      	bx	lr
200022f6:	f090 0f00 	teq	r0, #0
200022fa:	bf17      	itett	ne
200022fc:	f090 4f00 	teqne	r0, #2147483648	; 0x80000000
20002300:	4608      	moveq	r0, r1
20002302:	f091 0f00 	teqne	r1, #0
20002306:	f091 4f00 	teqne	r1, #2147483648	; 0x80000000
2000230a:	d014      	beq.n	20002336 <__aeabi_fmul+0x15e>
2000230c:	ea92 0f0c 	teq	r2, ip
20002310:	d101      	bne.n	20002316 <__aeabi_fmul+0x13e>
20002312:	0242      	lsls	r2, r0, #9
20002314:	d10f      	bne.n	20002336 <__aeabi_fmul+0x15e>
20002316:	ea93 0f0c 	teq	r3, ip
2000231a:	d103      	bne.n	20002324 <__aeabi_fmul+0x14c>
2000231c:	024b      	lsls	r3, r1, #9
2000231e:	bf18      	it	ne
20002320:	4608      	movne	r0, r1
20002322:	d108      	bne.n	20002336 <__aeabi_fmul+0x15e>
20002324:	ea80 0001 	eor.w	r0, r0, r1
20002328:	f000 4000 	and.w	r0, r0, #2147483648	; 0x80000000
2000232c:	f040 40fe 	orr.w	r0, r0, #2130706432	; 0x7f000000
20002330:	f440 0000 	orr.w	r0, r0, #8388608	; 0x800000
20002334:	4770      	bx	lr
20002336:	f040 40fe 	orr.w	r0, r0, #2130706432	; 0x7f000000
2000233a:	f440 0040 	orr.w	r0, r0, #12582912	; 0xc00000
2000233e:	4770      	bx	lr

20002340 <__aeabi_fdiv>:
20002340:	f04f 0cff 	mov.w	ip, #255	; 0xff
20002344:	ea1c 52d0 	ands.w	r2, ip, r0, lsr #23
20002348:	bf1e      	ittt	ne
2000234a:	ea1c 53d1 	andsne.w	r3, ip, r1, lsr #23
2000234e:	ea92 0f0c 	teqne	r2, ip
20002352:	ea93 0f0c 	teqne	r3, ip
20002356:	d069      	beq.n	2000242c <__aeabi_fdiv+0xec>
20002358:	eba2 0203 	sub.w	r2, r2, r3
2000235c:	ea80 0c01 	eor.w	ip, r0, r1
20002360:	0249      	lsls	r1, r1, #9
20002362:	ea4f 2040 	mov.w	r0, r0, lsl #9
20002366:	d037      	beq.n	200023d8 <__aeabi_fdiv+0x98>
20002368:	f04f 5380 	mov.w	r3, #268435456	; 0x10000000
2000236c:	ea43 1111 	orr.w	r1, r3, r1, lsr #4
20002370:	ea43 1310 	orr.w	r3, r3, r0, lsr #4
20002374:	f00c 4000 	and.w	r0, ip, #2147483648	; 0x80000000
20002378:	428b      	cmp	r3, r1
2000237a:	bf38      	it	cc
2000237c:	005b      	lslcc	r3, r3, #1
2000237e:	f142 027d 	adc.w	r2, r2, #125	; 0x7d
20002382:	f44f 0c00 	mov.w	ip, #8388608	; 0x800000
20002386:	428b      	cmp	r3, r1
20002388:	bf24      	itt	cs
2000238a:	1a5b      	subcs	r3, r3, r1
2000238c:	ea40 000c 	orrcs.w	r0, r0, ip
20002390:	ebb3 0f51 	cmp.w	r3, r1, lsr #1
20002394:	bf24      	itt	cs
20002396:	eba3 0351 	subcs.w	r3, r3, r1, lsr #1
2000239a:	ea40 005c 	orrcs.w	r0, r0, ip, lsr #1
2000239e:	ebb3 0f91 	cmp.w	r3, r1, lsr #2
200023a2:	bf24      	itt	cs
200023a4:	eba3 0391 	subcs.w	r3, r3, r1, lsr #2
200023a8:	ea40 009c 	orrcs.w	r0, r0, ip, lsr #2
200023ac:	ebb3 0fd1 	cmp.w	r3, r1, lsr #3
200023b0:	bf24      	itt	cs
200023b2:	eba3 03d1 	subcs.w	r3, r3, r1, lsr #3
200023b6:	ea40 00dc 	orrcs.w	r0, r0, ip, lsr #3
200023ba:	011b      	lsls	r3, r3, #4
200023bc:	bf18      	it	ne
200023be:	ea5f 1c1c 	movsne.w	ip, ip, lsr #4
200023c2:	d1e0      	bne.n	20002386 <__aeabi_fdiv+0x46>
200023c4:	2afd      	cmp	r2, #253	; 0xfd
200023c6:	f63f af50 	bhi.w	2000226a <__aeabi_fmul+0x92>
200023ca:	428b      	cmp	r3, r1
200023cc:	eb40 50c2 	adc.w	r0, r0, r2, lsl #23
200023d0:	bf08      	it	eq
200023d2:	f020 0001 	biceq.w	r0, r0, #1
200023d6:	4770      	bx	lr
200023d8:	f00c 4c00 	and.w	ip, ip, #2147483648	; 0x80000000
200023dc:	ea4c 2050 	orr.w	r0, ip, r0, lsr #9
200023e0:	327f      	adds	r2, #127	; 0x7f
200023e2:	bfc2      	ittt	gt
200023e4:	f1d2 03ff 	rsbsgt	r3, r2, #255	; 0xff
200023e8:	ea40 50c2 	orrgt.w	r0, r0, r2, lsl #23
200023ec:	4770      	bxgt	lr
200023ee:	f440 0000 	orr.w	r0, r0, #8388608	; 0x800000
200023f2:	f04f 0300 	mov.w	r3, #0
200023f6:	3a01      	subs	r2, #1
200023f8:	e737      	b.n	2000226a <__aeabi_fmul+0x92>
200023fa:	f092 0f00 	teq	r2, #0
200023fe:	f000 4c00 	and.w	ip, r0, #2147483648	; 0x80000000
20002402:	bf02      	ittt	eq
20002404:	0040      	lsleq	r0, r0, #1
20002406:	f410 0f00 	tsteq.w	r0, #8388608	; 0x800000
2000240a:	3a01      	subeq	r2, #1
2000240c:	d0f9      	beq.n	20002402 <__aeabi_fdiv+0xc2>
2000240e:	ea40 000c 	orr.w	r0, r0, ip
20002412:	f093 0f00 	teq	r3, #0
20002416:	f001 4c00 	and.w	ip, r1, #2147483648	; 0x80000000
2000241a:	bf02      	ittt	eq
2000241c:	0049      	lsleq	r1, r1, #1
2000241e:	f411 0f00 	tsteq.w	r1, #8388608	; 0x800000
20002422:	3b01      	subeq	r3, #1
20002424:	d0f9      	beq.n	2000241a <__aeabi_fdiv+0xda>
20002426:	ea41 010c 	orr.w	r1, r1, ip
2000242a:	e795      	b.n	20002358 <__aeabi_fdiv+0x18>
2000242c:	ea0c 53d1 	and.w	r3, ip, r1, lsr #23
20002430:	ea92 0f0c 	teq	r2, ip
20002434:	d108      	bne.n	20002448 <__aeabi_fdiv+0x108>
20002436:	0242      	lsls	r2, r0, #9
20002438:	f47f af7d 	bne.w	20002336 <__aeabi_fmul+0x15e>
2000243c:	ea93 0f0c 	teq	r3, ip
20002440:	f47f af70 	bne.w	20002324 <__aeabi_fmul+0x14c>
20002444:	4608      	mov	r0, r1
20002446:	e776      	b.n	20002336 <__aeabi_fmul+0x15e>
20002448:	ea93 0f0c 	teq	r3, ip
2000244c:	d104      	bne.n	20002458 <__aeabi_fdiv+0x118>
2000244e:	024b      	lsls	r3, r1, #9
20002450:	f43f af4c 	beq.w	200022ec <__aeabi_fmul+0x114>
20002454:	4608      	mov	r0, r1
20002456:	e76e      	b.n	20002336 <__aeabi_fmul+0x15e>
20002458:	f030 4c00 	bics.w	ip, r0, #2147483648	; 0x80000000
2000245c:	bf18      	it	ne
2000245e:	f031 4c00 	bicsne.w	ip, r1, #2147483648	; 0x80000000
20002462:	d1ca      	bne.n	200023fa <__aeabi_fdiv+0xba>
20002464:	f030 4200 	bics.w	r2, r0, #2147483648	; 0x80000000
20002468:	f47f af5c 	bne.w	20002324 <__aeabi_fmul+0x14c>
2000246c:	f031 4300 	bics.w	r3, r1, #2147483648	; 0x80000000
20002470:	f47f af3c 	bne.w	200022ec <__aeabi_fmul+0x114>
20002474:	e75f      	b.n	20002336 <__aeabi_fmul+0x15e>
20002476:	bf00      	nop

20002478 <__libc_init_array>:
20002478:	b570      	push	{r4, r5, r6, lr}
2000247a:	f647 36f8 	movw	r6, #31736	; 0x7bf8
2000247e:	f647 35f8 	movw	r5, #31736	; 0x7bf8
20002482:	f2c2 0600 	movt	r6, #8192	; 0x2000
20002486:	f2c2 0500 	movt	r5, #8192	; 0x2000
2000248a:	1b76      	subs	r6, r6, r5
2000248c:	10b6      	asrs	r6, r6, #2
2000248e:	d006      	beq.n	2000249e <__libc_init_array+0x26>
20002490:	2400      	movs	r4, #0
20002492:	f855 3024 	ldr.w	r3, [r5, r4, lsl #2]
20002496:	3401      	adds	r4, #1
20002498:	4798      	blx	r3
2000249a:	42a6      	cmp	r6, r4
2000249c:	d8f9      	bhi.n	20002492 <__libc_init_array+0x1a>
2000249e:	f647 35f8 	movw	r5, #31736	; 0x7bf8
200024a2:	f647 36fc 	movw	r6, #31740	; 0x7bfc
200024a6:	f2c2 0500 	movt	r5, #8192	; 0x2000
200024aa:	f2c2 0600 	movt	r6, #8192	; 0x2000
200024ae:	1b76      	subs	r6, r6, r5
200024b0:	f005 fb96 	bl	20007be0 <_init>
200024b4:	10b6      	asrs	r6, r6, #2
200024b6:	d006      	beq.n	200024c6 <__libc_init_array+0x4e>
200024b8:	2400      	movs	r4, #0
200024ba:	f855 3024 	ldr.w	r3, [r5, r4, lsl #2]
200024be:	3401      	adds	r4, #1
200024c0:	4798      	blx	r3
200024c2:	42a6      	cmp	r6, r4
200024c4:	d8f9      	bhi.n	200024ba <__libc_init_array+0x42>
200024c6:	bd70      	pop	{r4, r5, r6, pc}

200024c8 <snprintf>:
200024c8:	b40c      	push	{r2, r3}
200024ca:	f647 437c 	movw	r3, #31868	; 0x7c7c
200024ce:	b5f0      	push	{r4, r5, r6, r7, lr}
200024d0:	f2c2 0300 	movt	r3, #8192	; 0x2000
200024d4:	1e0c      	subs	r4, r1, #0
200024d6:	b09d      	sub	sp, #116	; 0x74
200024d8:	4605      	mov	r5, r0
200024da:	681e      	ldr	r6, [r3, #0]
200024dc:	db28      	blt.n	20002530 <snprintf+0x68>
200024de:	af23      	add	r7, sp, #140	; 0x8c
200024e0:	9a22      	ldr	r2, [sp, #136]	; 0x88
200024e2:	463b      	mov	r3, r7
200024e4:	4630      	mov	r0, r6
200024e6:	a901      	add	r1, sp, #4
200024e8:	bf0c      	ite	eq
200024ea:	46a4      	moveq	ip, r4
200024ec:	f104 3cff 	addne.w	ip, r4, #4294967295
200024f0:	f44f 7e02 	mov.w	lr, #520	; 0x208
200024f4:	9505      	str	r5, [sp, #20]
200024f6:	f8ad e010 	strh.w	lr, [sp, #16]
200024fa:	f04f 3eff 	mov.w	lr, #4294967295
200024fe:	f8cd c018 	str.w	ip, [sp, #24]
20002502:	9501      	str	r5, [sp, #4]
20002504:	f8ad e012 	strh.w	lr, [sp, #18]
20002508:	f8cd c00c 	str.w	ip, [sp, #12]
2000250c:	971b      	str	r7, [sp, #108]	; 0x6c
2000250e:	f000 f8d7 	bl	200026c0 <_svfprintf_r>
20002512:	f1b0 3fff 	cmp.w	r0, #4294967295
20002516:	db08      	blt.n	2000252a <snprintf+0x62>
20002518:	b114      	cbz	r4, 20002520 <snprintf+0x58>
2000251a:	9b01      	ldr	r3, [sp, #4]
2000251c:	2200      	movs	r2, #0
2000251e:	701a      	strb	r2, [r3, #0]
20002520:	b01d      	add	sp, #116	; 0x74
20002522:	e8bd 40f0 	ldmia.w	sp!, {r4, r5, r6, r7, lr}
20002526:	b002      	add	sp, #8
20002528:	4770      	bx	lr
2000252a:	238b      	movs	r3, #139	; 0x8b
2000252c:	6033      	str	r3, [r6, #0]
2000252e:	e7f3      	b.n	20002518 <snprintf+0x50>
20002530:	238b      	movs	r3, #139	; 0x8b
20002532:	f04f 30ff 	mov.w	r0, #4294967295
20002536:	6033      	str	r3, [r6, #0]
20002538:	e7f2      	b.n	20002520 <snprintf+0x58>
2000253a:	bf00      	nop

2000253c <_snprintf_r>:
2000253c:	b408      	push	{r3}
2000253e:	b5f0      	push	{r4, r5, r6, r7, lr}
20002540:	1e14      	subs	r4, r2, #0
20002542:	b09c      	sub	sp, #112	; 0x70
20002544:	4606      	mov	r6, r0
20002546:	460d      	mov	r5, r1
20002548:	db27      	blt.n	2000259a <_snprintf_r+0x5e>
2000254a:	af22      	add	r7, sp, #136	; 0x88
2000254c:	9a21      	ldr	r2, [sp, #132]	; 0x84
2000254e:	463b      	mov	r3, r7
20002550:	a901      	add	r1, sp, #4
20002552:	bf0c      	ite	eq
20002554:	46a4      	moveq	ip, r4
20002556:	f104 3cff 	addne.w	ip, r4, #4294967295
2000255a:	f44f 7e02 	mov.w	lr, #520	; 0x208
2000255e:	9505      	str	r5, [sp, #20]
20002560:	f8ad e010 	strh.w	lr, [sp, #16]
20002564:	f04f 3eff 	mov.w	lr, #4294967295
20002568:	f8cd c018 	str.w	ip, [sp, #24]
2000256c:	9501      	str	r5, [sp, #4]
2000256e:	f8ad e012 	strh.w	lr, [sp, #18]
20002572:	f8cd c00c 	str.w	ip, [sp, #12]
20002576:	971b      	str	r7, [sp, #108]	; 0x6c
20002578:	f000 f8a2 	bl	200026c0 <_svfprintf_r>
2000257c:	f1b0 3fff 	cmp.w	r0, #4294967295
20002580:	db08      	blt.n	20002594 <_snprintf_r+0x58>
20002582:	b114      	cbz	r4, 2000258a <_snprintf_r+0x4e>
20002584:	9b01      	ldr	r3, [sp, #4]
20002586:	2200      	movs	r2, #0
20002588:	701a      	strb	r2, [r3, #0]
2000258a:	b01c      	add	sp, #112	; 0x70
2000258c:	e8bd 40f0 	ldmia.w	sp!, {r4, r5, r6, r7, lr}
20002590:	b001      	add	sp, #4
20002592:	4770      	bx	lr
20002594:	238b      	movs	r3, #139	; 0x8b
20002596:	6033      	str	r3, [r6, #0]
20002598:	e7f3      	b.n	20002582 <_snprintf_r+0x46>
2000259a:	238b      	movs	r3, #139	; 0x8b
2000259c:	6003      	str	r3, [r0, #0]
2000259e:	f04f 30ff 	mov.w	r0, #4294967295
200025a2:	e7f2      	b.n	2000258a <_snprintf_r+0x4e>

200025a4 <__sprint_r>:
200025a4:	e92d 4ff0 	stmdb	sp!, {r4, r5, r6, r7, r8, r9, sl, fp, lr}
200025a8:	b085      	sub	sp, #20
200025aa:	4692      	mov	sl, r2
200025ac:	460c      	mov	r4, r1
200025ae:	9003      	str	r0, [sp, #12]
200025b0:	6890      	ldr	r0, [r2, #8]
200025b2:	6817      	ldr	r7, [r2, #0]
200025b4:	2800      	cmp	r0, #0
200025b6:	f000 8081 	beq.w	200026bc <__sprint_r+0x118>
200025ba:	f04f 0900 	mov.w	r9, #0
200025be:	680b      	ldr	r3, [r1, #0]
200025c0:	464d      	mov	r5, r9
200025c2:	2d00      	cmp	r5, #0
200025c4:	d054      	beq.n	20002670 <__sprint_r+0xcc>
200025c6:	68a6      	ldr	r6, [r4, #8]
200025c8:	42b5      	cmp	r5, r6
200025ca:	46b0      	mov	r8, r6
200025cc:	bf3e      	ittt	cc
200025ce:	4618      	movcc	r0, r3
200025d0:	462e      	movcc	r6, r5
200025d2:	46a8      	movcc	r8, r5
200025d4:	d33c      	bcc.n	20002650 <__sprint_r+0xac>
200025d6:	89a0      	ldrh	r0, [r4, #12]
200025d8:	f410 6f90 	tst.w	r0, #1152	; 0x480
200025dc:	bf08      	it	eq
200025de:	4618      	moveq	r0, r3
200025e0:	d036      	beq.n	20002650 <__sprint_r+0xac>
200025e2:	6962      	ldr	r2, [r4, #20]
200025e4:	6921      	ldr	r1, [r4, #16]
200025e6:	eb02 0b42 	add.w	fp, r2, r2, lsl #1
200025ea:	1a5b      	subs	r3, r3, r1
200025ec:	f103 0c01 	add.w	ip, r3, #1
200025f0:	eb0b 7bdb 	add.w	fp, fp, fp, lsr #31
200025f4:	44ac      	add	ip, r5
200025f6:	ea4f 0b6b 	mov.w	fp, fp, asr #1
200025fa:	45e3      	cmp	fp, ip
200025fc:	465a      	mov	r2, fp
200025fe:	bf3c      	itt	cc
20002600:	46e3      	movcc	fp, ip
20002602:	465a      	movcc	r2, fp
20002604:	f410 6f80 	tst.w	r0, #1024	; 0x400
20002608:	d037      	beq.n	2000267a <__sprint_r+0xd6>
2000260a:	4611      	mov	r1, r2
2000260c:	9803      	ldr	r0, [sp, #12]
2000260e:	9301      	str	r3, [sp, #4]
20002610:	f002 fbf8 	bl	20004e04 <_malloc_r>
20002614:	9b01      	ldr	r3, [sp, #4]
20002616:	2800      	cmp	r0, #0
20002618:	d03b      	beq.n	20002692 <__sprint_r+0xee>
2000261a:	461a      	mov	r2, r3
2000261c:	6921      	ldr	r1, [r4, #16]
2000261e:	9301      	str	r3, [sp, #4]
20002620:	9002      	str	r0, [sp, #8]
20002622:	f002 fefb 	bl	2000541c <memcpy>
20002626:	89a2      	ldrh	r2, [r4, #12]
20002628:	9b01      	ldr	r3, [sp, #4]
2000262a:	f8dd c008 	ldr.w	ip, [sp, #8]
2000262e:	f422 6290 	bic.w	r2, r2, #1152	; 0x480
20002632:	f042 0280 	orr.w	r2, r2, #128	; 0x80
20002636:	81a2      	strh	r2, [r4, #12]
20002638:	462e      	mov	r6, r5
2000263a:	46a8      	mov	r8, r5
2000263c:	ebc3 020b 	rsb	r2, r3, fp
20002640:	eb0c 0003 	add.w	r0, ip, r3
20002644:	60a2      	str	r2, [r4, #8]
20002646:	f8c4 c010 	str.w	ip, [r4, #16]
2000264a:	6020      	str	r0, [r4, #0]
2000264c:	f8c4 b014 	str.w	fp, [r4, #20]
20002650:	4642      	mov	r2, r8
20002652:	4649      	mov	r1, r9
20002654:	f002 ffaa 	bl	200055ac <memmove>
20002658:	68a2      	ldr	r2, [r4, #8]
2000265a:	6823      	ldr	r3, [r4, #0]
2000265c:	1b96      	subs	r6, r2, r6
2000265e:	60a6      	str	r6, [r4, #8]
20002660:	f8da 2008 	ldr.w	r2, [sl, #8]
20002664:	4443      	add	r3, r8
20002666:	6023      	str	r3, [r4, #0]
20002668:	1b55      	subs	r5, r2, r5
2000266a:	f8ca 5008 	str.w	r5, [sl, #8]
2000266e:	b1fd      	cbz	r5, 200026b0 <__sprint_r+0x10c>
20002670:	f8d7 9000 	ldr.w	r9, [r7]
20002674:	687d      	ldr	r5, [r7, #4]
20002676:	3708      	adds	r7, #8
20002678:	e7a3      	b.n	200025c2 <__sprint_r+0x1e>
2000267a:	9803      	ldr	r0, [sp, #12]
2000267c:	9301      	str	r3, [sp, #4]
2000267e:	f003 fca1 	bl	20005fc4 <_realloc_r>
20002682:	9b01      	ldr	r3, [sp, #4]
20002684:	4684      	mov	ip, r0
20002686:	2800      	cmp	r0, #0
20002688:	d1d6      	bne.n	20002638 <__sprint_r+0x94>
2000268a:	9803      	ldr	r0, [sp, #12]
2000268c:	6921      	ldr	r1, [r4, #16]
2000268e:	f002 fa8f 	bl	20004bb0 <_free_r>
20002692:	9a03      	ldr	r2, [sp, #12]
20002694:	230c      	movs	r3, #12
20002696:	f04f 30ff 	mov.w	r0, #4294967295
2000269a:	6013      	str	r3, [r2, #0]
2000269c:	2300      	movs	r3, #0
2000269e:	89a2      	ldrh	r2, [r4, #12]
200026a0:	f8ca 3004 	str.w	r3, [sl, #4]
200026a4:	f042 0240 	orr.w	r2, r2, #64	; 0x40
200026a8:	f8ca 3008 	str.w	r3, [sl, #8]
200026ac:	81a2      	strh	r2, [r4, #12]
200026ae:	e002      	b.n	200026b6 <__sprint_r+0x112>
200026b0:	4628      	mov	r0, r5
200026b2:	f8ca 5004 	str.w	r5, [sl, #4]
200026b6:	b005      	add	sp, #20
200026b8:	e8bd 8ff0 	ldmia.w	sp!, {r4, r5, r6, r7, r8, r9, sl, fp, pc}
200026bc:	6050      	str	r0, [r2, #4]
200026be:	e7fa      	b.n	200026b6 <__sprint_r+0x112>

200026c0 <_svfprintf_r>:
200026c0:	e92d 4ff0 	stmdb	sp!, {r4, r5, r6, r7, r8, r9, sl, fp, lr}
200026c4:	b0c5      	sub	sp, #276	; 0x114
200026c6:	460e      	mov	r6, r1
200026c8:	469a      	mov	sl, r3
200026ca:	4615      	mov	r5, r2
200026cc:	9009      	str	r0, [sp, #36]	; 0x24
200026ce:	f002 fb55 	bl	20004d7c <_localeconv_r>
200026d2:	89b3      	ldrh	r3, [r6, #12]
200026d4:	f013 0f80 	tst.w	r3, #128	; 0x80
200026d8:	6800      	ldr	r0, [r0, #0]
200026da:	901b      	str	r0, [sp, #108]	; 0x6c
200026dc:	d003      	beq.n	200026e6 <_svfprintf_r+0x26>
200026de:	6933      	ldr	r3, [r6, #16]
200026e0:	2b00      	cmp	r3, #0
200026e2:	f001 808c 	beq.w	200037fe <_svfprintf_r+0x113e>
200026e6:	f10d 0974 	add.w	r9, sp, #116	; 0x74
200026ea:	46b3      	mov	fp, r6
200026ec:	464c      	mov	r4, r9
200026ee:	2200      	movs	r2, #0
200026f0:	9210      	str	r2, [sp, #64]	; 0x40
200026f2:	2300      	movs	r3, #0
200026f4:	9218      	str	r2, [sp, #96]	; 0x60
200026f6:	9217      	str	r2, [sp, #92]	; 0x5c
200026f8:	921a      	str	r2, [sp, #104]	; 0x68
200026fa:	920d      	str	r2, [sp, #52]	; 0x34
200026fc:	aa2d      	add	r2, sp, #180	; 0xb4
200026fe:	9319      	str	r3, [sp, #100]	; 0x64
20002700:	3228      	adds	r2, #40	; 0x28
20002702:	f10d 03f7 	add.w	r3, sp, #247	; 0xf7
20002706:	9216      	str	r2, [sp, #88]	; 0x58
20002708:	9307      	str	r3, [sp, #28]
2000270a:	2300      	movs	r3, #0
2000270c:	f8cd 90dc 	str.w	r9, [sp, #220]	; 0xdc
20002710:	9338      	str	r3, [sp, #224]	; 0xe0
20002712:	9339      	str	r3, [sp, #228]	; 0xe4
20002714:	782b      	ldrb	r3, [r5, #0]
20002716:	f1b3 0225 	subs.w	r2, r3, #37	; 0x25
2000271a:	bf18      	it	ne
2000271c:	2201      	movne	r2, #1
2000271e:	2b00      	cmp	r3, #0
20002720:	bf0c      	ite	eq
20002722:	2200      	moveq	r2, #0
20002724:	f002 0201 	andne.w	r2, r2, #1
20002728:	b302      	cbz	r2, 2000276c <_svfprintf_r+0xac>
2000272a:	462e      	mov	r6, r5
2000272c:	f816 3f01 	ldrb.w	r3, [r6, #1]!
20002730:	1e1a      	subs	r2, r3, #0
20002732:	bf18      	it	ne
20002734:	2201      	movne	r2, #1
20002736:	2b25      	cmp	r3, #37	; 0x25
20002738:	bf0c      	ite	eq
2000273a:	2200      	moveq	r2, #0
2000273c:	f002 0201 	andne.w	r2, r2, #1
20002740:	2a00      	cmp	r2, #0
20002742:	d1f3      	bne.n	2000272c <_svfprintf_r+0x6c>
20002744:	1b77      	subs	r7, r6, r5
20002746:	bf08      	it	eq
20002748:	4635      	moveq	r5, r6
2000274a:	d00f      	beq.n	2000276c <_svfprintf_r+0xac>
2000274c:	6067      	str	r7, [r4, #4]
2000274e:	9b38      	ldr	r3, [sp, #224]	; 0xe0
20002750:	9a39      	ldr	r2, [sp, #228]	; 0xe4
20002752:	3301      	adds	r3, #1
20002754:	6025      	str	r5, [r4, #0]
20002756:	19d2      	adds	r2, r2, r7
20002758:	2b07      	cmp	r3, #7
2000275a:	9239      	str	r2, [sp, #228]	; 0xe4
2000275c:	9338      	str	r3, [sp, #224]	; 0xe0
2000275e:	dc79      	bgt.n	20002854 <_svfprintf_r+0x194>
20002760:	3408      	adds	r4, #8
20002762:	980d      	ldr	r0, [sp, #52]	; 0x34
20002764:	4635      	mov	r5, r6
20002766:	19c0      	adds	r0, r0, r7
20002768:	900d      	str	r0, [sp, #52]	; 0x34
2000276a:	7833      	ldrb	r3, [r6, #0]
2000276c:	2b00      	cmp	r3, #0
2000276e:	f000 8737 	beq.w	200035e0 <_svfprintf_r+0xf20>
20002772:	2100      	movs	r1, #0
20002774:	f04f 0200 	mov.w	r2, #0
20002778:	f8cd a028 	str.w	sl, [sp, #40]	; 0x28
2000277c:	1c6b      	adds	r3, r5, #1
2000277e:	910c      	str	r1, [sp, #48]	; 0x30
20002780:	f04f 38ff 	mov.w	r8, #4294967295
20002784:	f88d 210f 	strb.w	r2, [sp, #271]	; 0x10f
20002788:	468a      	mov	sl, r1
2000278a:	786a      	ldrb	r2, [r5, #1]
2000278c:	202b      	movs	r0, #43	; 0x2b
2000278e:	f04f 0c20 	mov.w	ip, #32
20002792:	1c5d      	adds	r5, r3, #1
20002794:	f1a2 0320 	sub.w	r3, r2, #32
20002798:	2b58      	cmp	r3, #88	; 0x58
2000279a:	f200 8219 	bhi.w	20002bd0 <_svfprintf_r+0x510>
2000279e:	e8df f013 	tbh	[pc, r3, lsl #1]
200027a2:	0229      	.short	0x0229
200027a4:	02170217 	.word	0x02170217
200027a8:	02170235 	.word	0x02170235
200027ac:	02170217 	.word	0x02170217
200027b0:	02170217 	.word	0x02170217
200027b4:	023c0217 	.word	0x023c0217
200027b8:	02170248 	.word	0x02170248
200027bc:	02cf02c8 	.word	0x02cf02c8
200027c0:	02ef0217 	.word	0x02ef0217
200027c4:	02f602f6 	.word	0x02f602f6
200027c8:	02f602f6 	.word	0x02f602f6
200027cc:	02f602f6 	.word	0x02f602f6
200027d0:	02f602f6 	.word	0x02f602f6
200027d4:	021702f6 	.word	0x021702f6
200027d8:	02170217 	.word	0x02170217
200027dc:	02170217 	.word	0x02170217
200027e0:	02170217 	.word	0x02170217
200027e4:	02170217 	.word	0x02170217
200027e8:	024f0217 	.word	0x024f0217
200027ec:	02170288 	.word	0x02170288
200027f0:	02170288 	.word	0x02170288
200027f4:	02170217 	.word	0x02170217
200027f8:	02c10217 	.word	0x02c10217
200027fc:	02170217 	.word	0x02170217
20002800:	021703ee 	.word	0x021703ee
20002804:	02170217 	.word	0x02170217
20002808:	02170217 	.word	0x02170217
2000280c:	02170393 	.word	0x02170393
20002810:	03ad0217 	.word	0x03ad0217
20002814:	02170217 	.word	0x02170217
20002818:	02170217 	.word	0x02170217
2000281c:	02170217 	.word	0x02170217
20002820:	02170217 	.word	0x02170217
20002824:	02170217 	.word	0x02170217
20002828:	03d803c7 	.word	0x03d803c7
2000282c:	02880288 	.word	0x02880288
20002830:	030b0288 	.word	0x030b0288
20002834:	021703d8 	.word	0x021703d8
20002838:	030f0217 	.word	0x030f0217
2000283c:	03190217 	.word	0x03190217
20002840:	033e0329 	.word	0x033e0329
20002844:	0217038c 	.word	0x0217038c
20002848:	02170359 	.word	0x02170359
2000284c:	02170384 	.word	0x02170384
20002850:	00ea0217 	.word	0x00ea0217
20002854:	9809      	ldr	r0, [sp, #36]	; 0x24
20002856:	4659      	mov	r1, fp
20002858:	aa37      	add	r2, sp, #220	; 0xdc
2000285a:	f7ff fea3 	bl	200025a4 <__sprint_r>
2000285e:	2800      	cmp	r0, #0
20002860:	d17c      	bne.n	2000295c <_svfprintf_r+0x29c>
20002862:	464c      	mov	r4, r9
20002864:	e77d      	b.n	20002762 <_svfprintf_r+0xa2>
20002866:	9918      	ldr	r1, [sp, #96]	; 0x60
20002868:	2901      	cmp	r1, #1
2000286a:	f340 8452 	ble.w	20003112 <_svfprintf_r+0xa52>
2000286e:	9a11      	ldr	r2, [sp, #68]	; 0x44
20002870:	2301      	movs	r3, #1
20002872:	6063      	str	r3, [r4, #4]
20002874:	9b38      	ldr	r3, [sp, #224]	; 0xe0
20002876:	6022      	str	r2, [r4, #0]
20002878:	9a39      	ldr	r2, [sp, #228]	; 0xe4
2000287a:	3301      	adds	r3, #1
2000287c:	9338      	str	r3, [sp, #224]	; 0xe0
2000287e:	3201      	adds	r2, #1
20002880:	2b07      	cmp	r3, #7
20002882:	9239      	str	r2, [sp, #228]	; 0xe4
20002884:	f300 8596 	bgt.w	200033b4 <_svfprintf_r+0xcf4>
20002888:	3408      	adds	r4, #8
2000288a:	2301      	movs	r3, #1
2000288c:	6063      	str	r3, [r4, #4]
2000288e:	9b38      	ldr	r3, [sp, #224]	; 0xe0
20002890:	9a39      	ldr	r2, [sp, #228]	; 0xe4
20002892:	3301      	adds	r3, #1
20002894:	981b      	ldr	r0, [sp, #108]	; 0x6c
20002896:	3201      	adds	r2, #1
20002898:	2b07      	cmp	r3, #7
2000289a:	9239      	str	r2, [sp, #228]	; 0xe4
2000289c:	6020      	str	r0, [r4, #0]
2000289e:	9338      	str	r3, [sp, #224]	; 0xe0
200028a0:	f300 857d 	bgt.w	2000339e <_svfprintf_r+0xcde>
200028a4:	3408      	adds	r4, #8
200028a6:	9810      	ldr	r0, [sp, #64]	; 0x40
200028a8:	2200      	movs	r2, #0
200028aa:	2300      	movs	r3, #0
200028ac:	9919      	ldr	r1, [sp, #100]	; 0x64
200028ae:	f004 faf5 	bl	20006e9c <__aeabi_dcmpeq>
200028b2:	2800      	cmp	r0, #0
200028b4:	f040 8503 	bne.w	200032be <_svfprintf_r+0xbfe>
200028b8:	9918      	ldr	r1, [sp, #96]	; 0x60
200028ba:	9b11      	ldr	r3, [sp, #68]	; 0x44
200028bc:	1e4a      	subs	r2, r1, #1
200028be:	6062      	str	r2, [r4, #4]
200028c0:	1c59      	adds	r1, r3, #1
200028c2:	9b38      	ldr	r3, [sp, #224]	; 0xe0
200028c4:	6021      	str	r1, [r4, #0]
200028c6:	9939      	ldr	r1, [sp, #228]	; 0xe4
200028c8:	3301      	adds	r3, #1
200028ca:	9338      	str	r3, [sp, #224]	; 0xe0
200028cc:	188a      	adds	r2, r1, r2
200028ce:	2b07      	cmp	r3, #7
200028d0:	9239      	str	r2, [sp, #228]	; 0xe4
200028d2:	f300 842f 	bgt.w	20003134 <_svfprintf_r+0xa74>
200028d6:	3408      	adds	r4, #8
200028d8:	9a1a      	ldr	r2, [sp, #104]	; 0x68
200028da:	981a      	ldr	r0, [sp, #104]	; 0x68
200028dc:	6062      	str	r2, [r4, #4]
200028de:	aa3e      	add	r2, sp, #248	; 0xf8
200028e0:	9b38      	ldr	r3, [sp, #224]	; 0xe0
200028e2:	6022      	str	r2, [r4, #0]
200028e4:	9a39      	ldr	r2, [sp, #228]	; 0xe4
200028e6:	3301      	adds	r3, #1
200028e8:	9338      	str	r3, [sp, #224]	; 0xe0
200028ea:	1812      	adds	r2, r2, r0
200028ec:	2b07      	cmp	r3, #7
200028ee:	9239      	str	r2, [sp, #228]	; 0xe4
200028f0:	f300 814f 	bgt.w	20002b92 <_svfprintf_r+0x4d2>
200028f4:	f104 0308 	add.w	r3, r4, #8
200028f8:	f01a 0f04 	tst.w	sl, #4
200028fc:	f000 8156 	beq.w	20002bac <_svfprintf_r+0x4ec>
20002900:	990c      	ldr	r1, [sp, #48]	; 0x30
20002902:	9a0b      	ldr	r2, [sp, #44]	; 0x2c
20002904:	1a8e      	subs	r6, r1, r2
20002906:	2e00      	cmp	r6, #0
20002908:	f340 8150 	ble.w	20002bac <_svfprintf_r+0x4ec>
2000290c:	2e10      	cmp	r6, #16
2000290e:	f647 17fc 	movw	r7, #31228	; 0x79fc
20002912:	bfd8      	it	le
20002914:	f2c2 0700 	movtle	r7, #8192	; 0x2000
20002918:	f340 83de 	ble.w	200030d8 <_svfprintf_r+0xa18>
2000291c:	2410      	movs	r4, #16
2000291e:	f2c2 0700 	movt	r7, #8192	; 0x2000
20002922:	f10d 08dc 	add.w	r8, sp, #220	; 0xdc
20002926:	f8dd a024 	ldr.w	sl, [sp, #36]	; 0x24
2000292a:	e003      	b.n	20002934 <_svfprintf_r+0x274>
2000292c:	3e10      	subs	r6, #16
2000292e:	2e10      	cmp	r6, #16
20002930:	f340 83d2 	ble.w	200030d8 <_svfprintf_r+0xa18>
20002934:	605c      	str	r4, [r3, #4]
20002936:	9a38      	ldr	r2, [sp, #224]	; 0xe0
20002938:	9939      	ldr	r1, [sp, #228]	; 0xe4
2000293a:	3201      	adds	r2, #1
2000293c:	601f      	str	r7, [r3, #0]
2000293e:	3110      	adds	r1, #16
20002940:	2a07      	cmp	r2, #7
20002942:	9139      	str	r1, [sp, #228]	; 0xe4
20002944:	f103 0308 	add.w	r3, r3, #8
20002948:	9238      	str	r2, [sp, #224]	; 0xe0
2000294a:	ddef      	ble.n	2000292c <_svfprintf_r+0x26c>
2000294c:	4650      	mov	r0, sl
2000294e:	4659      	mov	r1, fp
20002950:	4642      	mov	r2, r8
20002952:	f7ff fe27 	bl	200025a4 <__sprint_r>
20002956:	464b      	mov	r3, r9
20002958:	2800      	cmp	r0, #0
2000295a:	d0e7      	beq.n	2000292c <_svfprintf_r+0x26c>
2000295c:	465e      	mov	r6, fp
2000295e:	89b3      	ldrh	r3, [r6, #12]
20002960:	980d      	ldr	r0, [sp, #52]	; 0x34
20002962:	f013 0f40 	tst.w	r3, #64	; 0x40
20002966:	bf18      	it	ne
20002968:	f04f 30ff 	movne.w	r0, #4294967295
2000296c:	900d      	str	r0, [sp, #52]	; 0x34
2000296e:	980d      	ldr	r0, [sp, #52]	; 0x34
20002970:	b045      	add	sp, #276	; 0x114
20002972:	e8bd 8ff0 	ldmia.w	sp!, {r4, r5, r6, r7, r8, r9, sl, fp, pc}
20002976:	f01a 0f20 	tst.w	sl, #32
2000297a:	f647 2040 	movw	r0, #31296	; 0x7a40
2000297e:	f2c2 0000 	movt	r0, #8192	; 0x2000
20002982:	9214      	str	r2, [sp, #80]	; 0x50
20002984:	9017      	str	r0, [sp, #92]	; 0x5c
20002986:	f000 82c3 	beq.w	20002f10 <_svfprintf_r+0x850>
2000298a:	990a      	ldr	r1, [sp, #40]	; 0x28
2000298c:	1dcb      	adds	r3, r1, #7
2000298e:	f023 0307 	bic.w	r3, r3, #7
20002992:	f103 0208 	add.w	r2, r3, #8
20002996:	920a      	str	r2, [sp, #40]	; 0x28
20002998:	e9d3 6700 	ldrd	r6, r7, [r3]
2000299c:	ea56 0107 	orrs.w	r1, r6, r7
200029a0:	bf0c      	ite	eq
200029a2:	2200      	moveq	r2, #0
200029a4:	2201      	movne	r2, #1
200029a6:	ea1a 0f02 	tst.w	sl, r2
200029aa:	f040 84bc 	bne.w	20003326 <_svfprintf_r+0xc66>
200029ae:	2302      	movs	r3, #2
200029b0:	f04f 0100 	mov.w	r1, #0
200029b4:	f88d 110f 	strb.w	r1, [sp, #271]	; 0x10f
200029b8:	f1b8 0f00 	cmp.w	r8, #0
200029bc:	bfa8      	it	ge
200029be:	f02a 0a80 	bicge.w	sl, sl, #128	; 0x80
200029c2:	f1b8 0f00 	cmp.w	r8, #0
200029c6:	bf18      	it	ne
200029c8:	f042 0201 	orrne.w	r2, r2, #1
200029cc:	2a00      	cmp	r2, #0
200029ce:	f000 8160 	beq.w	20002c92 <_svfprintf_r+0x5d2>
200029d2:	2b01      	cmp	r3, #1
200029d4:	f000 8434 	beq.w	20003240 <_svfprintf_r+0xb80>
200029d8:	2b02      	cmp	r3, #2
200029da:	f000 8417 	beq.w	2000320c <_svfprintf_r+0xb4c>
200029de:	9916      	ldr	r1, [sp, #88]	; 0x58
200029e0:	f8cd 802c 	str.w	r8, [sp, #44]	; 0x2c
200029e4:	9111      	str	r1, [sp, #68]	; 0x44
200029e6:	ea4f 08d6 	mov.w	r8, r6, lsr #3
200029ea:	ea4f 0cd7 	mov.w	ip, r7, lsr #3
200029ee:	ea48 7847 	orr.w	r8, r8, r7, lsl #29
200029f2:	f006 0007 	and.w	r0, r6, #7
200029f6:	4667      	mov	r7, ip
200029f8:	4646      	mov	r6, r8
200029fa:	3030      	adds	r0, #48	; 0x30
200029fc:	ea56 0207 	orrs.w	r2, r6, r7
20002a00:	f801 0d01 	strb.w	r0, [r1, #-1]!
20002a04:	d1ef      	bne.n	200029e6 <_svfprintf_r+0x326>
20002a06:	f01a 0f01 	tst.w	sl, #1
20002a0a:	f8dd 802c 	ldr.w	r8, [sp, #44]	; 0x2c
20002a0e:	9111      	str	r1, [sp, #68]	; 0x44
20002a10:	f040 84db 	bne.w	200033ca <_svfprintf_r+0xd0a>
20002a14:	9b16      	ldr	r3, [sp, #88]	; 0x58
20002a16:	1a5b      	subs	r3, r3, r1
20002a18:	930e      	str	r3, [sp, #56]	; 0x38
20002a1a:	9b0e      	ldr	r3, [sp, #56]	; 0x38
20002a1c:	f8cd 8054 	str.w	r8, [sp, #84]	; 0x54
20002a20:	4543      	cmp	r3, r8
20002a22:	bfb8      	it	lt
20002a24:	4643      	movlt	r3, r8
20002a26:	930b      	str	r3, [sp, #44]	; 0x2c
20002a28:	f89d 310f 	ldrb.w	r3, [sp, #271]	; 0x10f
20002a2c:	b113      	cbz	r3, 20002a34 <_svfprintf_r+0x374>
20002a2e:	990b      	ldr	r1, [sp, #44]	; 0x2c
20002a30:	3101      	adds	r1, #1
20002a32:	910b      	str	r1, [sp, #44]	; 0x2c
20002a34:	f01a 0202 	ands.w	r2, sl, #2
20002a38:	9213      	str	r2, [sp, #76]	; 0x4c
20002a3a:	d002      	beq.n	20002a42 <_svfprintf_r+0x382>
20002a3c:	9b0b      	ldr	r3, [sp, #44]	; 0x2c
20002a3e:	3302      	adds	r3, #2
20002a40:	930b      	str	r3, [sp, #44]	; 0x2c
20002a42:	f01a 0084 	ands.w	r0, sl, #132	; 0x84
20002a46:	9012      	str	r0, [sp, #72]	; 0x48
20002a48:	d138      	bne.n	20002abc <_svfprintf_r+0x3fc>
20002a4a:	990c      	ldr	r1, [sp, #48]	; 0x30
20002a4c:	9a0b      	ldr	r2, [sp, #44]	; 0x2c
20002a4e:	1a8e      	subs	r6, r1, r2
20002a50:	2e00      	cmp	r6, #0
20002a52:	dd33      	ble.n	20002abc <_svfprintf_r+0x3fc>
20002a54:	2e10      	cmp	r6, #16
20002a56:	f647 17fc 	movw	r7, #31228	; 0x79fc
20002a5a:	bfd8      	it	le
20002a5c:	f2c2 0700 	movtle	r7, #8192	; 0x2000
20002a60:	dd20      	ble.n	20002aa4 <_svfprintf_r+0x3e4>
20002a62:	f04f 0810 	mov.w	r8, #16
20002a66:	f2c2 0700 	movt	r7, #8192	; 0x2000
20002a6a:	e002      	b.n	20002a72 <_svfprintf_r+0x3b2>
20002a6c:	3e10      	subs	r6, #16
20002a6e:	2e10      	cmp	r6, #16
20002a70:	dd18      	ble.n	20002aa4 <_svfprintf_r+0x3e4>
20002a72:	f8c4 8004 	str.w	r8, [r4, #4]
20002a76:	9b38      	ldr	r3, [sp, #224]	; 0xe0
20002a78:	9a39      	ldr	r2, [sp, #228]	; 0xe4
20002a7a:	3301      	adds	r3, #1
20002a7c:	6027      	str	r7, [r4, #0]
20002a7e:	3210      	adds	r2, #16
20002a80:	2b07      	cmp	r3, #7
20002a82:	9239      	str	r2, [sp, #228]	; 0xe4
20002a84:	f104 0408 	add.w	r4, r4, #8
20002a88:	9338      	str	r3, [sp, #224]	; 0xe0
20002a8a:	ddef      	ble.n	20002a6c <_svfprintf_r+0x3ac>
20002a8c:	9809      	ldr	r0, [sp, #36]	; 0x24
20002a8e:	4659      	mov	r1, fp
20002a90:	aa37      	add	r2, sp, #220	; 0xdc
20002a92:	464c      	mov	r4, r9
20002a94:	f7ff fd86 	bl	200025a4 <__sprint_r>
20002a98:	2800      	cmp	r0, #0
20002a9a:	f47f af5f 	bne.w	2000295c <_svfprintf_r+0x29c>
20002a9e:	3e10      	subs	r6, #16
20002aa0:	2e10      	cmp	r6, #16
20002aa2:	dce6      	bgt.n	20002a72 <_svfprintf_r+0x3b2>
20002aa4:	6066      	str	r6, [r4, #4]
20002aa6:	9b38      	ldr	r3, [sp, #224]	; 0xe0
20002aa8:	6027      	str	r7, [r4, #0]
20002aaa:	1c5a      	adds	r2, r3, #1
20002aac:	9b39      	ldr	r3, [sp, #228]	; 0xe4
20002aae:	9238      	str	r2, [sp, #224]	; 0xe0
20002ab0:	199b      	adds	r3, r3, r6
20002ab2:	2a07      	cmp	r2, #7
20002ab4:	9339      	str	r3, [sp, #228]	; 0xe4
20002ab6:	f300 83f7 	bgt.w	200032a8 <_svfprintf_r+0xbe8>
20002aba:	3408      	adds	r4, #8
20002abc:	f89d 310f 	ldrb.w	r3, [sp, #271]	; 0x10f
20002ac0:	b173      	cbz	r3, 20002ae0 <_svfprintf_r+0x420>
20002ac2:	2301      	movs	r3, #1
20002ac4:	6063      	str	r3, [r4, #4]
20002ac6:	9b38      	ldr	r3, [sp, #224]	; 0xe0
20002ac8:	aa43      	add	r2, sp, #268	; 0x10c
20002aca:	3203      	adds	r2, #3
20002acc:	6022      	str	r2, [r4, #0]
20002ace:	9a39      	ldr	r2, [sp, #228]	; 0xe4
20002ad0:	3301      	adds	r3, #1
20002ad2:	9338      	str	r3, [sp, #224]	; 0xe0
20002ad4:	3201      	adds	r2, #1
20002ad6:	2b07      	cmp	r3, #7
20002ad8:	9239      	str	r2, [sp, #228]	; 0xe4
20002ada:	f300 8340 	bgt.w	2000315e <_svfprintf_r+0xa9e>
20002ade:	3408      	adds	r4, #8
20002ae0:	9b13      	ldr	r3, [sp, #76]	; 0x4c
20002ae2:	b16b      	cbz	r3, 20002b00 <_svfprintf_r+0x440>
20002ae4:	2302      	movs	r3, #2
20002ae6:	6063      	str	r3, [r4, #4]
20002ae8:	9b38      	ldr	r3, [sp, #224]	; 0xe0
20002aea:	aa43      	add	r2, sp, #268	; 0x10c
20002aec:	6022      	str	r2, [r4, #0]
20002aee:	9a39      	ldr	r2, [sp, #228]	; 0xe4
20002af0:	3301      	adds	r3, #1
20002af2:	9338      	str	r3, [sp, #224]	; 0xe0
20002af4:	3202      	adds	r2, #2
20002af6:	2b07      	cmp	r3, #7
20002af8:	9239      	str	r2, [sp, #228]	; 0xe4
20002afa:	f300 833a 	bgt.w	20003172 <_svfprintf_r+0xab2>
20002afe:	3408      	adds	r4, #8
20002b00:	9812      	ldr	r0, [sp, #72]	; 0x48
20002b02:	2880      	cmp	r0, #128	; 0x80
20002b04:	f000 82b2 	beq.w	2000306c <_svfprintf_r+0x9ac>
20002b08:	9815      	ldr	r0, [sp, #84]	; 0x54
20002b0a:	9b0e      	ldr	r3, [sp, #56]	; 0x38
20002b0c:	1ac6      	subs	r6, r0, r3
20002b0e:	2e00      	cmp	r6, #0
20002b10:	dd2e      	ble.n	20002b70 <_svfprintf_r+0x4b0>
20002b12:	2e10      	cmp	r6, #16
20002b14:	4fa7      	ldr	r7, [pc, #668]	; (20002db4 <_svfprintf_r+0x6f4>)
20002b16:	bfc8      	it	gt
20002b18:	f04f 0810 	movgt.w	r8, #16
20002b1c:	dc03      	bgt.n	20002b26 <_svfprintf_r+0x466>
20002b1e:	e01b      	b.n	20002b58 <_svfprintf_r+0x498>
20002b20:	3e10      	subs	r6, #16
20002b22:	2e10      	cmp	r6, #16
20002b24:	dd18      	ble.n	20002b58 <_svfprintf_r+0x498>
20002b26:	f8c4 8004 	str.w	r8, [r4, #4]
20002b2a:	9b38      	ldr	r3, [sp, #224]	; 0xe0
20002b2c:	9a39      	ldr	r2, [sp, #228]	; 0xe4
20002b2e:	3301      	adds	r3, #1
20002b30:	6027      	str	r7, [r4, #0]
20002b32:	3210      	adds	r2, #16
20002b34:	2b07      	cmp	r3, #7
20002b36:	9239      	str	r2, [sp, #228]	; 0xe4
20002b38:	f104 0408 	add.w	r4, r4, #8
20002b3c:	9338      	str	r3, [sp, #224]	; 0xe0
20002b3e:	ddef      	ble.n	20002b20 <_svfprintf_r+0x460>
20002b40:	9809      	ldr	r0, [sp, #36]	; 0x24
20002b42:	4659      	mov	r1, fp
20002b44:	aa37      	add	r2, sp, #220	; 0xdc
20002b46:	464c      	mov	r4, r9
20002b48:	f7ff fd2c 	bl	200025a4 <__sprint_r>
20002b4c:	2800      	cmp	r0, #0
20002b4e:	f47f af05 	bne.w	2000295c <_svfprintf_r+0x29c>
20002b52:	3e10      	subs	r6, #16
20002b54:	2e10      	cmp	r6, #16
20002b56:	dce6      	bgt.n	20002b26 <_svfprintf_r+0x466>
20002b58:	6066      	str	r6, [r4, #4]
20002b5a:	9b38      	ldr	r3, [sp, #224]	; 0xe0
20002b5c:	6027      	str	r7, [r4, #0]
20002b5e:	1c5a      	adds	r2, r3, #1
20002b60:	9b39      	ldr	r3, [sp, #228]	; 0xe4
20002b62:	9238      	str	r2, [sp, #224]	; 0xe0
20002b64:	199b      	adds	r3, r3, r6
20002b66:	2a07      	cmp	r2, #7
20002b68:	9339      	str	r3, [sp, #228]	; 0xe4
20002b6a:	f300 82ee 	bgt.w	2000314a <_svfprintf_r+0xa8a>
20002b6e:	3408      	adds	r4, #8
20002b70:	f41a 7f80 	tst.w	sl, #256	; 0x100
20002b74:	f040 8219 	bne.w	20002faa <_svfprintf_r+0x8ea>
20002b78:	990e      	ldr	r1, [sp, #56]	; 0x38
20002b7a:	9a11      	ldr	r2, [sp, #68]	; 0x44
20002b7c:	6061      	str	r1, [r4, #4]
20002b7e:	9b38      	ldr	r3, [sp, #224]	; 0xe0
20002b80:	6022      	str	r2, [r4, #0]
20002b82:	9a39      	ldr	r2, [sp, #228]	; 0xe4
20002b84:	3301      	adds	r3, #1
20002b86:	9338      	str	r3, [sp, #224]	; 0xe0
20002b88:	1852      	adds	r2, r2, r1
20002b8a:	2b07      	cmp	r3, #7
20002b8c:	9239      	str	r2, [sp, #228]	; 0xe4
20002b8e:	f77f aeb1 	ble.w	200028f4 <_svfprintf_r+0x234>
20002b92:	9809      	ldr	r0, [sp, #36]	; 0x24
20002b94:	4659      	mov	r1, fp
20002b96:	aa37      	add	r2, sp, #220	; 0xdc
20002b98:	f7ff fd04 	bl	200025a4 <__sprint_r>
20002b9c:	2800      	cmp	r0, #0
20002b9e:	f47f aedd 	bne.w	2000295c <_svfprintf_r+0x29c>
20002ba2:	f01a 0f04 	tst.w	sl, #4
20002ba6:	464b      	mov	r3, r9
20002ba8:	f47f aeaa 	bne.w	20002900 <_svfprintf_r+0x240>
20002bac:	9b39      	ldr	r3, [sp, #228]	; 0xe4
20002bae:	980d      	ldr	r0, [sp, #52]	; 0x34
20002bb0:	9a0b      	ldr	r2, [sp, #44]	; 0x2c
20002bb2:	990c      	ldr	r1, [sp, #48]	; 0x30
20002bb4:	428a      	cmp	r2, r1
20002bb6:	bfac      	ite	ge
20002bb8:	1880      	addge	r0, r0, r2
20002bba:	1840      	addlt	r0, r0, r1
20002bbc:	900d      	str	r0, [sp, #52]	; 0x34
20002bbe:	2b00      	cmp	r3, #0
20002bc0:	f040 829e 	bne.w	20003100 <_svfprintf_r+0xa40>
20002bc4:	2300      	movs	r3, #0
20002bc6:	f8dd a028 	ldr.w	sl, [sp, #40]	; 0x28
20002bca:	9338      	str	r3, [sp, #224]	; 0xe0
20002bcc:	464c      	mov	r4, r9
20002bce:	e5a1      	b.n	20002714 <_svfprintf_r+0x54>
20002bd0:	9214      	str	r2, [sp, #80]	; 0x50
20002bd2:	2a00      	cmp	r2, #0
20002bd4:	f000 8504 	beq.w	200035e0 <_svfprintf_r+0xf20>
20002bd8:	2001      	movs	r0, #1
20002bda:	f88d 20b4 	strb.w	r2, [sp, #180]	; 0xb4
20002bde:	f04f 0100 	mov.w	r1, #0
20002be2:	aa2d      	add	r2, sp, #180	; 0xb4
20002be4:	900b      	str	r0, [sp, #44]	; 0x2c
20002be6:	f88d 110f 	strb.w	r1, [sp, #271]	; 0x10f
20002bea:	9211      	str	r2, [sp, #68]	; 0x44
20002bec:	900e      	str	r0, [sp, #56]	; 0x38
20002bee:	2100      	movs	r1, #0
20002bf0:	9115      	str	r1, [sp, #84]	; 0x54
20002bf2:	e71f      	b.n	20002a34 <_svfprintf_r+0x374>
20002bf4:	f89d 310f 	ldrb.w	r3, [sp, #271]	; 0x10f
20002bf8:	2b00      	cmp	r3, #0
20002bfa:	f040 840c 	bne.w	20003416 <_svfprintf_r+0xd56>
20002bfe:	990a      	ldr	r1, [sp, #40]	; 0x28
20002c00:	462b      	mov	r3, r5
20002c02:	f88d c10f 	strb.w	ip, [sp, #271]	; 0x10f
20002c06:	782a      	ldrb	r2, [r5, #0]
20002c08:	910a      	str	r1, [sp, #40]	; 0x28
20002c0a:	e5c2      	b.n	20002792 <_svfprintf_r+0xd2>
20002c0c:	990a      	ldr	r1, [sp, #40]	; 0x28
20002c0e:	f04a 0a01 	orr.w	sl, sl, #1
20002c12:	782a      	ldrb	r2, [r5, #0]
20002c14:	462b      	mov	r3, r5
20002c16:	910a      	str	r1, [sp, #40]	; 0x28
20002c18:	e5bb      	b.n	20002792 <_svfprintf_r+0xd2>
20002c1a:	9b0a      	ldr	r3, [sp, #40]	; 0x28
20002c1c:	9a0a      	ldr	r2, [sp, #40]	; 0x28
20002c1e:	681b      	ldr	r3, [r3, #0]
20002c20:	1d11      	adds	r1, r2, #4
20002c22:	2b00      	cmp	r3, #0
20002c24:	930c      	str	r3, [sp, #48]	; 0x30
20002c26:	f2c0 85b2 	blt.w	2000378e <_svfprintf_r+0x10ce>
20002c2a:	782a      	ldrb	r2, [r5, #0]
20002c2c:	462b      	mov	r3, r5
20002c2e:	910a      	str	r1, [sp, #40]	; 0x28
20002c30:	e5af      	b.n	20002792 <_svfprintf_r+0xd2>
20002c32:	990a      	ldr	r1, [sp, #40]	; 0x28
20002c34:	462b      	mov	r3, r5
20002c36:	f88d 010f 	strb.w	r0, [sp, #271]	; 0x10f
20002c3a:	782a      	ldrb	r2, [r5, #0]
20002c3c:	910a      	str	r1, [sp, #40]	; 0x28
20002c3e:	e5a8      	b.n	20002792 <_svfprintf_r+0xd2>
20002c40:	f04a 0a10 	orr.w	sl, sl, #16
20002c44:	9214      	str	r2, [sp, #80]	; 0x50
20002c46:	f01a 0f20 	tst.w	sl, #32
20002c4a:	f000 8187 	beq.w	20002f5c <_svfprintf_r+0x89c>
20002c4e:	980a      	ldr	r0, [sp, #40]	; 0x28
20002c50:	1dc3      	adds	r3, r0, #7
20002c52:	f023 0307 	bic.w	r3, r3, #7
20002c56:	f103 0108 	add.w	r1, r3, #8
20002c5a:	910a      	str	r1, [sp, #40]	; 0x28
20002c5c:	e9d3 6700 	ldrd	r6, r7, [r3]
20002c60:	2e00      	cmp	r6, #0
20002c62:	f177 0000 	sbcs.w	r0, r7, #0
20002c66:	f2c0 8376 	blt.w	20003356 <_svfprintf_r+0xc96>
20002c6a:	ea56 0107 	orrs.w	r1, r6, r7
20002c6e:	f04f 0301 	mov.w	r3, #1
20002c72:	bf0c      	ite	eq
20002c74:	2200      	moveq	r2, #0
20002c76:	2201      	movne	r2, #1
20002c78:	f1b8 0f00 	cmp.w	r8, #0
20002c7c:	bfa8      	it	ge
20002c7e:	f02a 0a80 	bicge.w	sl, sl, #128	; 0x80
20002c82:	f1b8 0f00 	cmp.w	r8, #0
20002c86:	bf18      	it	ne
20002c88:	f042 0201 	orrne.w	r2, r2, #1
20002c8c:	2a00      	cmp	r2, #0
20002c8e:	f47f aea0 	bne.w	200029d2 <_svfprintf_r+0x312>
20002c92:	2b00      	cmp	r3, #0
20002c94:	f040 81e5 	bne.w	20003062 <_svfprintf_r+0x9a2>
20002c98:	f01a 0f01 	tst.w	sl, #1
20002c9c:	f000 81e1 	beq.w	20003062 <_svfprintf_r+0x9a2>
20002ca0:	2330      	movs	r3, #48	; 0x30
20002ca2:	f88d 30db 	strb.w	r3, [sp, #219]	; 0xdb
20002ca6:	ab2d      	add	r3, sp, #180	; 0xb4
20002ca8:	2001      	movs	r0, #1
20002caa:	3327      	adds	r3, #39	; 0x27
20002cac:	900e      	str	r0, [sp, #56]	; 0x38
20002cae:	9311      	str	r3, [sp, #68]	; 0x44
20002cb0:	e6b3      	b.n	20002a1a <_svfprintf_r+0x35a>
20002cb2:	f01a 0f08 	tst.w	sl, #8
20002cb6:	9214      	str	r2, [sp, #80]	; 0x50
20002cb8:	f000 83bf 	beq.w	2000343a <_svfprintf_r+0xd7a>
20002cbc:	980a      	ldr	r0, [sp, #40]	; 0x28
20002cbe:	1dc3      	adds	r3, r0, #7
20002cc0:	f023 0307 	bic.w	r3, r3, #7
20002cc4:	f103 0108 	add.w	r1, r3, #8
20002cc8:	910a      	str	r1, [sp, #40]	; 0x28
20002cca:	685e      	ldr	r6, [r3, #4]
20002ccc:	681f      	ldr	r7, [r3, #0]
20002cce:	9619      	str	r6, [sp, #100]	; 0x64
20002cd0:	9710      	str	r7, [sp, #64]	; 0x40
20002cd2:	4638      	mov	r0, r7
20002cd4:	4631      	mov	r1, r6
20002cd6:	f003 fb4f 	bl	20006378 <__isinfd>
20002cda:	4603      	mov	r3, r0
20002cdc:	2800      	cmp	r0, #0
20002cde:	f000 8493 	beq.w	20003608 <_svfprintf_r+0xf48>
20002ce2:	4638      	mov	r0, r7
20002ce4:	2200      	movs	r2, #0
20002ce6:	2300      	movs	r3, #0
20002ce8:	4631      	mov	r1, r6
20002cea:	f004 f8e1 	bl	20006eb0 <__aeabi_dcmplt>
20002cee:	2800      	cmp	r0, #0
20002cf0:	f040 8415 	bne.w	2000351e <_svfprintf_r+0xe5e>
20002cf4:	f89d 310f 	ldrb.w	r3, [sp, #271]	; 0x10f
20002cf8:	2003      	movs	r0, #3
20002cfa:	f647 2234 	movw	r2, #31284	; 0x7a34
20002cfe:	f647 2130 	movw	r1, #31280	; 0x7a30
20002d02:	900b      	str	r0, [sp, #44]	; 0x2c
20002d04:	9814      	ldr	r0, [sp, #80]	; 0x50
20002d06:	f2c2 0100 	movt	r1, #8192	; 0x2000
20002d0a:	f2c2 0200 	movt	r2, #8192	; 0x2000
20002d0e:	f02a 0a80 	bic.w	sl, sl, #128	; 0x80
20002d12:	2847      	cmp	r0, #71	; 0x47
20002d14:	bfd8      	it	le
20002d16:	460a      	movle	r2, r1
20002d18:	2103      	movs	r1, #3
20002d1a:	9211      	str	r2, [sp, #68]	; 0x44
20002d1c:	2200      	movs	r2, #0
20002d1e:	910e      	str	r1, [sp, #56]	; 0x38
20002d20:	9215      	str	r2, [sp, #84]	; 0x54
20002d22:	e683      	b.n	20002a2c <_svfprintf_r+0x36c>
20002d24:	990a      	ldr	r1, [sp, #40]	; 0x28
20002d26:	f04a 0a08 	orr.w	sl, sl, #8
20002d2a:	782a      	ldrb	r2, [r5, #0]
20002d2c:	462b      	mov	r3, r5
20002d2e:	910a      	str	r1, [sp, #40]	; 0x28
20002d30:	e52f      	b.n	20002792 <_svfprintf_r+0xd2>
20002d32:	990a      	ldr	r1, [sp, #40]	; 0x28
20002d34:	782a      	ldrb	r2, [r5, #0]
20002d36:	f04a 0a04 	orr.w	sl, sl, #4
20002d3a:	462b      	mov	r3, r5
20002d3c:	910a      	str	r1, [sp, #40]	; 0x28
20002d3e:	e528      	b.n	20002792 <_svfprintf_r+0xd2>
20002d40:	462b      	mov	r3, r5
20002d42:	f813 2b01 	ldrb.w	r2, [r3], #1
20002d46:	2a2a      	cmp	r2, #42	; 0x2a
20002d48:	f000 86cf 	beq.w	20003aea <_svfprintf_r+0x142a>
20002d4c:	f1a2 0130 	sub.w	r1, r2, #48	; 0x30
20002d50:	2909      	cmp	r1, #9
20002d52:	bf88      	it	hi
20002d54:	f04f 0800 	movhi.w	r8, #0
20002d58:	d810      	bhi.n	20002d7c <_svfprintf_r+0x6bc>
20002d5a:	3502      	adds	r5, #2
20002d5c:	f04f 0800 	mov.w	r8, #0
20002d60:	f815 2c01 	ldrb.w	r2, [r5, #-1]
20002d64:	eb08 0888 	add.w	r8, r8, r8, lsl #2
20002d68:	462b      	mov	r3, r5
20002d6a:	3501      	adds	r5, #1
20002d6c:	eb01 0848 	add.w	r8, r1, r8, lsl #1
20002d70:	f1a2 0130 	sub.w	r1, r2, #48	; 0x30
20002d74:	2909      	cmp	r1, #9
20002d76:	d9f3      	bls.n	20002d60 <_svfprintf_r+0x6a0>
20002d78:	ea48 78e8 	orr.w	r8, r8, r8, asr #31
20002d7c:	461d      	mov	r5, r3
20002d7e:	e509      	b.n	20002794 <_svfprintf_r+0xd4>
20002d80:	990a      	ldr	r1, [sp, #40]	; 0x28
20002d82:	f04a 0a80 	orr.w	sl, sl, #128	; 0x80
20002d86:	782a      	ldrb	r2, [r5, #0]
20002d88:	462b      	mov	r3, r5
20002d8a:	910a      	str	r1, [sp, #40]	; 0x28
20002d8c:	e501      	b.n	20002792 <_svfprintf_r+0xd2>
20002d8e:	f1a2 0130 	sub.w	r1, r2, #48	; 0x30
20002d92:	2600      	movs	r6, #0
20002d94:	462b      	mov	r3, r5
20002d96:	eb06 0686 	add.w	r6, r6, r6, lsl #2
20002d9a:	f813 2b01 	ldrb.w	r2, [r3], #1
20002d9e:	eb01 0646 	add.w	r6, r1, r6, lsl #1
20002da2:	f1a2 0130 	sub.w	r1, r2, #48	; 0x30
20002da6:	461d      	mov	r5, r3
20002da8:	2909      	cmp	r1, #9
20002daa:	d9f3      	bls.n	20002d94 <_svfprintf_r+0x6d4>
20002dac:	960c      	str	r6, [sp, #48]	; 0x30
20002dae:	461d      	mov	r5, r3
20002db0:	e4f0      	b.n	20002794 <_svfprintf_r+0xd4>
20002db2:	bf00      	nop
20002db4:	20007a0c 	.word	0x20007a0c
20002db8:	f04a 0a40 	orr.w	sl, sl, #64	; 0x40
20002dbc:	990a      	ldr	r1, [sp, #40]	; 0x28
20002dbe:	e734      	b.n	20002c2a <_svfprintf_r+0x56a>
20002dc0:	782a      	ldrb	r2, [r5, #0]
20002dc2:	2a6c      	cmp	r2, #108	; 0x6c
20002dc4:	f000 8418 	beq.w	200035f8 <_svfprintf_r+0xf38>
20002dc8:	990a      	ldr	r1, [sp, #40]	; 0x28
20002dca:	f04a 0a10 	orr.w	sl, sl, #16
20002dce:	462b      	mov	r3, r5
20002dd0:	910a      	str	r1, [sp, #40]	; 0x28
20002dd2:	e4de      	b.n	20002792 <_svfprintf_r+0xd2>
20002dd4:	f01a 0f20 	tst.w	sl, #32
20002dd8:	f000 8323 	beq.w	20003422 <_svfprintf_r+0xd62>
20002ddc:	990a      	ldr	r1, [sp, #40]	; 0x28
20002dde:	9a0d      	ldr	r2, [sp, #52]	; 0x34
20002de0:	680b      	ldr	r3, [r1, #0]
20002de2:	4610      	mov	r0, r2
20002de4:	ea4f 71e0 	mov.w	r1, r0, asr #31
20002de8:	9a0a      	ldr	r2, [sp, #40]	; 0x28
20002dea:	e9c3 0100 	strd	r0, r1, [r3]
20002dee:	f102 0a04 	add.w	sl, r2, #4
20002df2:	e48f      	b.n	20002714 <_svfprintf_r+0x54>
20002df4:	f01a 0320 	ands.w	r3, sl, #32
20002df8:	9214      	str	r2, [sp, #80]	; 0x50
20002dfa:	f000 80c7 	beq.w	20002f8c <_svfprintf_r+0x8cc>
20002dfe:	9b0a      	ldr	r3, [sp, #40]	; 0x28
20002e00:	1dda      	adds	r2, r3, #7
20002e02:	2300      	movs	r3, #0
20002e04:	f022 0207 	bic.w	r2, r2, #7
20002e08:	f102 0008 	add.w	r0, r2, #8
20002e0c:	900a      	str	r0, [sp, #40]	; 0x28
20002e0e:	e9d2 6700 	ldrd	r6, r7, [r2]
20002e12:	ea56 0107 	orrs.w	r1, r6, r7
20002e16:	bf0c      	ite	eq
20002e18:	2200      	moveq	r2, #0
20002e1a:	2201      	movne	r2, #1
20002e1c:	e5c8      	b.n	200029b0 <_svfprintf_r+0x2f0>
20002e1e:	9a0a      	ldr	r2, [sp, #40]	; 0x28
20002e20:	f647 2040 	movw	r0, #31296	; 0x7a40
20002e24:	990a      	ldr	r1, [sp, #40]	; 0x28
20002e26:	2378      	movs	r3, #120	; 0x78
20002e28:	f2c2 0000 	movt	r0, #8192	; 0x2000
20002e2c:	9314      	str	r3, [sp, #80]	; 0x50
20002e2e:	6816      	ldr	r6, [r2, #0]
20002e30:	3104      	adds	r1, #4
20002e32:	f88d 310d 	strb.w	r3, [sp, #269]	; 0x10d
20002e36:	f04a 0a02 	orr.w	sl, sl, #2
20002e3a:	2330      	movs	r3, #48	; 0x30
20002e3c:	1e32      	subs	r2, r6, #0
20002e3e:	bf18      	it	ne
20002e40:	2201      	movne	r2, #1
20002e42:	f88d 310c 	strb.w	r3, [sp, #268]	; 0x10c
20002e46:	4636      	mov	r6, r6
20002e48:	f04f 0700 	mov.w	r7, #0
20002e4c:	9017      	str	r0, [sp, #92]	; 0x5c
20002e4e:	2302      	movs	r3, #2
20002e50:	910a      	str	r1, [sp, #40]	; 0x28
20002e52:	e5ad      	b.n	200029b0 <_svfprintf_r+0x2f0>
20002e54:	9b0a      	ldr	r3, [sp, #40]	; 0x28
20002e56:	9214      	str	r2, [sp, #80]	; 0x50
20002e58:	f04f 0200 	mov.w	r2, #0
20002e5c:	1d18      	adds	r0, r3, #4
20002e5e:	f88d 210f 	strb.w	r2, [sp, #271]	; 0x10f
20002e62:	681b      	ldr	r3, [r3, #0]
20002e64:	900a      	str	r0, [sp, #40]	; 0x28
20002e66:	9311      	str	r3, [sp, #68]	; 0x44
20002e68:	2b00      	cmp	r3, #0
20002e6a:	f000 854d 	beq.w	20003908 <_svfprintf_r+0x1248>
20002e6e:	f1b8 0f00 	cmp.w	r8, #0
20002e72:	9811      	ldr	r0, [sp, #68]	; 0x44
20002e74:	f2c0 852a 	blt.w	200038cc <_svfprintf_r+0x120c>
20002e78:	2100      	movs	r1, #0
20002e7a:	4642      	mov	r2, r8
20002e7c:	f002 fa94 	bl	200053a8 <memchr>
20002e80:	4603      	mov	r3, r0
20002e82:	2800      	cmp	r0, #0
20002e84:	f000 856e 	beq.w	20003964 <_svfprintf_r+0x12a4>
20002e88:	9811      	ldr	r0, [sp, #68]	; 0x44
20002e8a:	1a1b      	subs	r3, r3, r0
20002e8c:	930e      	str	r3, [sp, #56]	; 0x38
20002e8e:	4543      	cmp	r3, r8
20002e90:	f340 8482 	ble.w	20003798 <_svfprintf_r+0x10d8>
20002e94:	f8cd 8038 	str.w	r8, [sp, #56]	; 0x38
20002e98:	2100      	movs	r1, #0
20002e9a:	ea28 78e8 	bic.w	r8, r8, r8, asr #31
20002e9e:	f89d 310f 	ldrb.w	r3, [sp, #271]	; 0x10f
20002ea2:	f8cd 802c 	str.w	r8, [sp, #44]	; 0x2c
20002ea6:	9115      	str	r1, [sp, #84]	; 0x54
20002ea8:	e5c0      	b.n	20002a2c <_svfprintf_r+0x36c>
20002eaa:	f01a 0f20 	tst.w	sl, #32
20002eae:	9214      	str	r2, [sp, #80]	; 0x50
20002eb0:	d010      	beq.n	20002ed4 <_svfprintf_r+0x814>
20002eb2:	9b0a      	ldr	r3, [sp, #40]	; 0x28
20002eb4:	1dda      	adds	r2, r3, #7
20002eb6:	2301      	movs	r3, #1
20002eb8:	e7a4      	b.n	20002e04 <_svfprintf_r+0x744>
20002eba:	990a      	ldr	r1, [sp, #40]	; 0x28
20002ebc:	f04a 0a20 	orr.w	sl, sl, #32
20002ec0:	782a      	ldrb	r2, [r5, #0]
20002ec2:	462b      	mov	r3, r5
20002ec4:	910a      	str	r1, [sp, #40]	; 0x28
20002ec6:	e464      	b.n	20002792 <_svfprintf_r+0xd2>
20002ec8:	f04a 0a10 	orr.w	sl, sl, #16
20002ecc:	9214      	str	r2, [sp, #80]	; 0x50
20002ece:	f01a 0f20 	tst.w	sl, #32
20002ed2:	d1ee      	bne.n	20002eb2 <_svfprintf_r+0x7f2>
20002ed4:	f01a 0f10 	tst.w	sl, #16
20002ed8:	f040 8254 	bne.w	20003384 <_svfprintf_r+0xcc4>
20002edc:	f01a 0f40 	tst.w	sl, #64	; 0x40
20002ee0:	f000 8250 	beq.w	20003384 <_svfprintf_r+0xcc4>
20002ee4:	980a      	ldr	r0, [sp, #40]	; 0x28
20002ee6:	2301      	movs	r3, #1
20002ee8:	1d01      	adds	r1, r0, #4
20002eea:	910a      	str	r1, [sp, #40]	; 0x28
20002eec:	8806      	ldrh	r6, [r0, #0]
20002eee:	1e32      	subs	r2, r6, #0
20002ef0:	bf18      	it	ne
20002ef2:	2201      	movne	r2, #1
20002ef4:	4636      	mov	r6, r6
20002ef6:	f04f 0700 	mov.w	r7, #0
20002efa:	e559      	b.n	200029b0 <_svfprintf_r+0x2f0>
20002efc:	f01a 0f20 	tst.w	sl, #32
20002f00:	9214      	str	r2, [sp, #80]	; 0x50
20002f02:	f647 221c 	movw	r2, #31260	; 0x7a1c
20002f06:	f2c2 0200 	movt	r2, #8192	; 0x2000
20002f0a:	9217      	str	r2, [sp, #92]	; 0x5c
20002f0c:	f47f ad3d 	bne.w	2000298a <_svfprintf_r+0x2ca>
20002f10:	f01a 0f10 	tst.w	sl, #16
20002f14:	f040 822d 	bne.w	20003372 <_svfprintf_r+0xcb2>
20002f18:	f01a 0f40 	tst.w	sl, #64	; 0x40
20002f1c:	f000 8229 	beq.w	20003372 <_svfprintf_r+0xcb2>
20002f20:	990a      	ldr	r1, [sp, #40]	; 0x28
20002f22:	1d0a      	adds	r2, r1, #4
20002f24:	920a      	str	r2, [sp, #40]	; 0x28
20002f26:	880e      	ldrh	r6, [r1, #0]
20002f28:	4636      	mov	r6, r6
20002f2a:	f04f 0700 	mov.w	r7, #0
20002f2e:	e535      	b.n	2000299c <_svfprintf_r+0x2dc>
20002f30:	9214      	str	r2, [sp, #80]	; 0x50
20002f32:	2001      	movs	r0, #1
20002f34:	9a0a      	ldr	r2, [sp, #40]	; 0x28
20002f36:	f04f 0100 	mov.w	r1, #0
20002f3a:	900b      	str	r0, [sp, #44]	; 0x2c
20002f3c:	900e      	str	r0, [sp, #56]	; 0x38
20002f3e:	6813      	ldr	r3, [r2, #0]
20002f40:	3204      	adds	r2, #4
20002f42:	f88d 110f 	strb.w	r1, [sp, #271]	; 0x10f
20002f46:	920a      	str	r2, [sp, #40]	; 0x28
20002f48:	aa2d      	add	r2, sp, #180	; 0xb4
20002f4a:	f88d 30b4 	strb.w	r3, [sp, #180]	; 0xb4
20002f4e:	9211      	str	r2, [sp, #68]	; 0x44
20002f50:	e64d      	b.n	20002bee <_svfprintf_r+0x52e>
20002f52:	f01a 0f20 	tst.w	sl, #32
20002f56:	9214      	str	r2, [sp, #80]	; 0x50
20002f58:	f47f ae79 	bne.w	20002c4e <_svfprintf_r+0x58e>
20002f5c:	f01a 0f10 	tst.w	sl, #16
20002f60:	f040 81ed 	bne.w	2000333e <_svfprintf_r+0xc7e>
20002f64:	f01a 0f40 	tst.w	sl, #64	; 0x40
20002f68:	f000 81e9 	beq.w	2000333e <_svfprintf_r+0xc7e>
20002f6c:	980a      	ldr	r0, [sp, #40]	; 0x28
20002f6e:	1d01      	adds	r1, r0, #4
20002f70:	910a      	str	r1, [sp, #40]	; 0x28
20002f72:	f9b0 6000 	ldrsh.w	r6, [r0]
20002f76:	4636      	mov	r6, r6
20002f78:	ea4f 77e6 	mov.w	r7, r6, asr #31
20002f7c:	e670      	b.n	20002c60 <_svfprintf_r+0x5a0>
20002f7e:	f04a 0a10 	orr.w	sl, sl, #16
20002f82:	9214      	str	r2, [sp, #80]	; 0x50
20002f84:	f01a 0320 	ands.w	r3, sl, #32
20002f88:	f47f af39 	bne.w	20002dfe <_svfprintf_r+0x73e>
20002f8c:	f01a 0210 	ands.w	r2, sl, #16
20002f90:	f000 825f 	beq.w	20003452 <_svfprintf_r+0xd92>
20002f94:	9a0a      	ldr	r2, [sp, #40]	; 0x28
20002f96:	1d10      	adds	r0, r2, #4
20002f98:	900a      	str	r0, [sp, #40]	; 0x28
20002f9a:	6816      	ldr	r6, [r2, #0]
20002f9c:	1e32      	subs	r2, r6, #0
20002f9e:	bf18      	it	ne
20002fa0:	2201      	movne	r2, #1
20002fa2:	4636      	mov	r6, r6
20002fa4:	f04f 0700 	mov.w	r7, #0
20002fa8:	e502      	b.n	200029b0 <_svfprintf_r+0x2f0>
20002faa:	9b14      	ldr	r3, [sp, #80]	; 0x50
20002fac:	2b65      	cmp	r3, #101	; 0x65
20002fae:	f77f ac5a 	ble.w	20002866 <_svfprintf_r+0x1a6>
20002fb2:	9810      	ldr	r0, [sp, #64]	; 0x40
20002fb4:	2200      	movs	r2, #0
20002fb6:	2300      	movs	r3, #0
20002fb8:	9919      	ldr	r1, [sp, #100]	; 0x64
20002fba:	f003 ff6f 	bl	20006e9c <__aeabi_dcmpeq>
20002fbe:	2800      	cmp	r0, #0
20002fc0:	f000 80e1 	beq.w	20003186 <_svfprintf_r+0xac6>
20002fc4:	2301      	movs	r3, #1
20002fc6:	6063      	str	r3, [r4, #4]
20002fc8:	9a38      	ldr	r2, [sp, #224]	; 0xe0
20002fca:	f647 235c 	movw	r3, #31324	; 0x7a5c
20002fce:	f2c2 0300 	movt	r3, #8192	; 0x2000
20002fd2:	6023      	str	r3, [r4, #0]
20002fd4:	9b39      	ldr	r3, [sp, #228]	; 0xe4
20002fd6:	3201      	adds	r2, #1
20002fd8:	9238      	str	r2, [sp, #224]	; 0xe0
20002fda:	3301      	adds	r3, #1
20002fdc:	2a07      	cmp	r2, #7
20002fde:	9339      	str	r3, [sp, #228]	; 0xe4
20002fe0:	bfd8      	it	le
20002fe2:	f104 0308 	addle.w	r3, r4, #8
20002fe6:	f300 829f 	bgt.w	20003528 <_svfprintf_r+0xe68>
20002fea:	9a42      	ldr	r2, [sp, #264]	; 0x108
20002fec:	9818      	ldr	r0, [sp, #96]	; 0x60
20002fee:	4282      	cmp	r2, r0
20002ff0:	db03      	blt.n	20002ffa <_svfprintf_r+0x93a>
20002ff2:	f01a 0f01 	tst.w	sl, #1
20002ff6:	f43f ac7f 	beq.w	200028f8 <_svfprintf_r+0x238>
20002ffa:	991b      	ldr	r1, [sp, #108]	; 0x6c
20002ffc:	2201      	movs	r2, #1
20002ffe:	605a      	str	r2, [r3, #4]
20003000:	9a38      	ldr	r2, [sp, #224]	; 0xe0
20003002:	6019      	str	r1, [r3, #0]
20003004:	9939      	ldr	r1, [sp, #228]	; 0xe4
20003006:	3201      	adds	r2, #1
20003008:	9238      	str	r2, [sp, #224]	; 0xe0
2000300a:	3101      	adds	r1, #1
2000300c:	2a07      	cmp	r2, #7
2000300e:	9139      	str	r1, [sp, #228]	; 0xe4
20003010:	f300 83eb 	bgt.w	200037ea <_svfprintf_r+0x112a>
20003014:	3308      	adds	r3, #8
20003016:	9a18      	ldr	r2, [sp, #96]	; 0x60
20003018:	1e56      	subs	r6, r2, #1
2000301a:	2e00      	cmp	r6, #0
2000301c:	f77f ac6c 	ble.w	200028f8 <_svfprintf_r+0x238>
20003020:	2e10      	cmp	r6, #16
20003022:	4fa0      	ldr	r7, [pc, #640]	; (200032a4 <_svfprintf_r+0xbe4>)
20003024:	f340 81e9 	ble.w	200033fa <_svfprintf_r+0xd3a>
20003028:	2410      	movs	r4, #16
2000302a:	f10d 08dc 	add.w	r8, sp, #220	; 0xdc
2000302e:	e003      	b.n	20003038 <_svfprintf_r+0x978>
20003030:	3e10      	subs	r6, #16
20003032:	2e10      	cmp	r6, #16
20003034:	f340 81e1 	ble.w	200033fa <_svfprintf_r+0xd3a>
20003038:	605c      	str	r4, [r3, #4]
2000303a:	9a38      	ldr	r2, [sp, #224]	; 0xe0
2000303c:	9939      	ldr	r1, [sp, #228]	; 0xe4
2000303e:	3201      	adds	r2, #1
20003040:	601f      	str	r7, [r3, #0]
20003042:	3110      	adds	r1, #16
20003044:	2a07      	cmp	r2, #7
20003046:	9139      	str	r1, [sp, #228]	; 0xe4
20003048:	f103 0308 	add.w	r3, r3, #8
2000304c:	9238      	str	r2, [sp, #224]	; 0xe0
2000304e:	ddef      	ble.n	20003030 <_svfprintf_r+0x970>
20003050:	9809      	ldr	r0, [sp, #36]	; 0x24
20003052:	4659      	mov	r1, fp
20003054:	4642      	mov	r2, r8
20003056:	f7ff faa5 	bl	200025a4 <__sprint_r>
2000305a:	464b      	mov	r3, r9
2000305c:	2800      	cmp	r0, #0
2000305e:	d0e7      	beq.n	20003030 <_svfprintf_r+0x970>
20003060:	e47c      	b.n	2000295c <_svfprintf_r+0x29c>
20003062:	9916      	ldr	r1, [sp, #88]	; 0x58
20003064:	2200      	movs	r2, #0
20003066:	920e      	str	r2, [sp, #56]	; 0x38
20003068:	9111      	str	r1, [sp, #68]	; 0x44
2000306a:	e4d6      	b.n	20002a1a <_svfprintf_r+0x35a>
2000306c:	990c      	ldr	r1, [sp, #48]	; 0x30
2000306e:	9a0b      	ldr	r2, [sp, #44]	; 0x2c
20003070:	1a8e      	subs	r6, r1, r2
20003072:	2e00      	cmp	r6, #0
20003074:	f77f ad48 	ble.w	20002b08 <_svfprintf_r+0x448>
20003078:	2e10      	cmp	r6, #16
2000307a:	4f8a      	ldr	r7, [pc, #552]	; (200032a4 <_svfprintf_r+0xbe4>)
2000307c:	bfc8      	it	gt
2000307e:	f04f 0810 	movgt.w	r8, #16
20003082:	dc03      	bgt.n	2000308c <_svfprintf_r+0x9cc>
20003084:	e01b      	b.n	200030be <_svfprintf_r+0x9fe>
20003086:	3e10      	subs	r6, #16
20003088:	2e10      	cmp	r6, #16
2000308a:	dd18      	ble.n	200030be <_svfprintf_r+0x9fe>
2000308c:	f8c4 8004 	str.w	r8, [r4, #4]
20003090:	9b38      	ldr	r3, [sp, #224]	; 0xe0
20003092:	9a39      	ldr	r2, [sp, #228]	; 0xe4
20003094:	3301      	adds	r3, #1
20003096:	6027      	str	r7, [r4, #0]
20003098:	3210      	adds	r2, #16
2000309a:	2b07      	cmp	r3, #7
2000309c:	9239      	str	r2, [sp, #228]	; 0xe4
2000309e:	f104 0408 	add.w	r4, r4, #8
200030a2:	9338      	str	r3, [sp, #224]	; 0xe0
200030a4:	ddef      	ble.n	20003086 <_svfprintf_r+0x9c6>
200030a6:	9809      	ldr	r0, [sp, #36]	; 0x24
200030a8:	4659      	mov	r1, fp
200030aa:	aa37      	add	r2, sp, #220	; 0xdc
200030ac:	464c      	mov	r4, r9
200030ae:	f7ff fa79 	bl	200025a4 <__sprint_r>
200030b2:	2800      	cmp	r0, #0
200030b4:	f47f ac52 	bne.w	2000295c <_svfprintf_r+0x29c>
200030b8:	3e10      	subs	r6, #16
200030ba:	2e10      	cmp	r6, #16
200030bc:	dce6      	bgt.n	2000308c <_svfprintf_r+0x9cc>
200030be:	6066      	str	r6, [r4, #4]
200030c0:	9b38      	ldr	r3, [sp, #224]	; 0xe0
200030c2:	6027      	str	r7, [r4, #0]
200030c4:	1c5a      	adds	r2, r3, #1
200030c6:	9b39      	ldr	r3, [sp, #228]	; 0xe4
200030c8:	9238      	str	r2, [sp, #224]	; 0xe0
200030ca:	199b      	adds	r3, r3, r6
200030cc:	2a07      	cmp	r2, #7
200030ce:	9339      	str	r3, [sp, #228]	; 0xe4
200030d0:	f300 8188 	bgt.w	200033e4 <_svfprintf_r+0xd24>
200030d4:	3408      	adds	r4, #8
200030d6:	e517      	b.n	20002b08 <_svfprintf_r+0x448>
200030d8:	605e      	str	r6, [r3, #4]
200030da:	9a38      	ldr	r2, [sp, #224]	; 0xe0
200030dc:	601f      	str	r7, [r3, #0]
200030de:	9b39      	ldr	r3, [sp, #228]	; 0xe4
200030e0:	3201      	adds	r2, #1
200030e2:	9238      	str	r2, [sp, #224]	; 0xe0
200030e4:	18f3      	adds	r3, r6, r3
200030e6:	2a07      	cmp	r2, #7
200030e8:	9339      	str	r3, [sp, #228]	; 0xe4
200030ea:	f77f ad60 	ble.w	20002bae <_svfprintf_r+0x4ee>
200030ee:	9809      	ldr	r0, [sp, #36]	; 0x24
200030f0:	4659      	mov	r1, fp
200030f2:	aa37      	add	r2, sp, #220	; 0xdc
200030f4:	f7ff fa56 	bl	200025a4 <__sprint_r>
200030f8:	2800      	cmp	r0, #0
200030fa:	f43f ad57 	beq.w	20002bac <_svfprintf_r+0x4ec>
200030fe:	e42d      	b.n	2000295c <_svfprintf_r+0x29c>
20003100:	9809      	ldr	r0, [sp, #36]	; 0x24
20003102:	4659      	mov	r1, fp
20003104:	aa37      	add	r2, sp, #220	; 0xdc
20003106:	f7ff fa4d 	bl	200025a4 <__sprint_r>
2000310a:	2800      	cmp	r0, #0
2000310c:	f43f ad5a 	beq.w	20002bc4 <_svfprintf_r+0x504>
20003110:	e424      	b.n	2000295c <_svfprintf_r+0x29c>
20003112:	f01a 0f01 	tst.w	sl, #1
20003116:	f47f abaa 	bne.w	2000286e <_svfprintf_r+0x1ae>
2000311a:	2301      	movs	r3, #1
2000311c:	6063      	str	r3, [r4, #4]
2000311e:	9b38      	ldr	r3, [sp, #224]	; 0xe0
20003120:	9a39      	ldr	r2, [sp, #228]	; 0xe4
20003122:	3301      	adds	r3, #1
20003124:	9911      	ldr	r1, [sp, #68]	; 0x44
20003126:	3201      	adds	r2, #1
20003128:	2b07      	cmp	r3, #7
2000312a:	9239      	str	r2, [sp, #228]	; 0xe4
2000312c:	6021      	str	r1, [r4, #0]
2000312e:	9338      	str	r3, [sp, #224]	; 0xe0
20003130:	f77f abd1 	ble.w	200028d6 <_svfprintf_r+0x216>
20003134:	9809      	ldr	r0, [sp, #36]	; 0x24
20003136:	4659      	mov	r1, fp
20003138:	aa37      	add	r2, sp, #220	; 0xdc
2000313a:	f7ff fa33 	bl	200025a4 <__sprint_r>
2000313e:	2800      	cmp	r0, #0
20003140:	f47f ac0c 	bne.w	2000295c <_svfprintf_r+0x29c>
20003144:	464c      	mov	r4, r9
20003146:	f7ff bbc7 	b.w	200028d8 <_svfprintf_r+0x218>
2000314a:	9809      	ldr	r0, [sp, #36]	; 0x24
2000314c:	4659      	mov	r1, fp
2000314e:	aa37      	add	r2, sp, #220	; 0xdc
20003150:	f7ff fa28 	bl	200025a4 <__sprint_r>
20003154:	2800      	cmp	r0, #0
20003156:	f47f ac01 	bne.w	2000295c <_svfprintf_r+0x29c>
2000315a:	464c      	mov	r4, r9
2000315c:	e508      	b.n	20002b70 <_svfprintf_r+0x4b0>
2000315e:	9809      	ldr	r0, [sp, #36]	; 0x24
20003160:	4659      	mov	r1, fp
20003162:	aa37      	add	r2, sp, #220	; 0xdc
20003164:	f7ff fa1e 	bl	200025a4 <__sprint_r>
20003168:	2800      	cmp	r0, #0
2000316a:	f47f abf7 	bne.w	2000295c <_svfprintf_r+0x29c>
2000316e:	464c      	mov	r4, r9
20003170:	e4b6      	b.n	20002ae0 <_svfprintf_r+0x420>
20003172:	9809      	ldr	r0, [sp, #36]	; 0x24
20003174:	4659      	mov	r1, fp
20003176:	aa37      	add	r2, sp, #220	; 0xdc
20003178:	f7ff fa14 	bl	200025a4 <__sprint_r>
2000317c:	2800      	cmp	r0, #0
2000317e:	f47f abed 	bne.w	2000295c <_svfprintf_r+0x29c>
20003182:	464c      	mov	r4, r9
20003184:	e4bc      	b.n	20002b00 <_svfprintf_r+0x440>
20003186:	9b42      	ldr	r3, [sp, #264]	; 0x108
20003188:	2b00      	cmp	r3, #0
2000318a:	f340 81d9 	ble.w	20003540 <_svfprintf_r+0xe80>
2000318e:	9918      	ldr	r1, [sp, #96]	; 0x60
20003190:	428b      	cmp	r3, r1
20003192:	f2c0 816f 	blt.w	20003474 <_svfprintf_r+0xdb4>
20003196:	9a11      	ldr	r2, [sp, #68]	; 0x44
20003198:	6061      	str	r1, [r4, #4]
2000319a:	9b38      	ldr	r3, [sp, #224]	; 0xe0
2000319c:	6022      	str	r2, [r4, #0]
2000319e:	9a39      	ldr	r2, [sp, #228]	; 0xe4
200031a0:	3301      	adds	r3, #1
200031a2:	9338      	str	r3, [sp, #224]	; 0xe0
200031a4:	1852      	adds	r2, r2, r1
200031a6:	2b07      	cmp	r3, #7
200031a8:	9239      	str	r2, [sp, #228]	; 0xe4
200031aa:	bfd8      	it	le
200031ac:	f104 0308 	addle.w	r3, r4, #8
200031b0:	f300 83ba 	bgt.w	20003928 <_svfprintf_r+0x1268>
200031b4:	9c42      	ldr	r4, [sp, #264]	; 0x108
200031b6:	9818      	ldr	r0, [sp, #96]	; 0x60
200031b8:	1a24      	subs	r4, r4, r0
200031ba:	2c00      	cmp	r4, #0
200031bc:	f340 819b 	ble.w	200034f6 <_svfprintf_r+0xe36>
200031c0:	2c10      	cmp	r4, #16
200031c2:	4f38      	ldr	r7, [pc, #224]	; (200032a4 <_svfprintf_r+0xbe4>)
200031c4:	f340 818b 	ble.w	200034de <_svfprintf_r+0xe1e>
200031c8:	f8cd a038 	str.w	sl, [sp, #56]	; 0x38
200031cc:	2610      	movs	r6, #16
200031ce:	46aa      	mov	sl, r5
200031d0:	f10d 08dc 	add.w	r8, sp, #220	; 0xdc
200031d4:	9d09      	ldr	r5, [sp, #36]	; 0x24
200031d6:	e003      	b.n	200031e0 <_svfprintf_r+0xb20>
200031d8:	3c10      	subs	r4, #16
200031da:	2c10      	cmp	r4, #16
200031dc:	f340 817c 	ble.w	200034d8 <_svfprintf_r+0xe18>
200031e0:	605e      	str	r6, [r3, #4]
200031e2:	9a38      	ldr	r2, [sp, #224]	; 0xe0
200031e4:	9939      	ldr	r1, [sp, #228]	; 0xe4
200031e6:	3201      	adds	r2, #1
200031e8:	601f      	str	r7, [r3, #0]
200031ea:	3110      	adds	r1, #16
200031ec:	2a07      	cmp	r2, #7
200031ee:	9139      	str	r1, [sp, #228]	; 0xe4
200031f0:	f103 0308 	add.w	r3, r3, #8
200031f4:	9238      	str	r2, [sp, #224]	; 0xe0
200031f6:	ddef      	ble.n	200031d8 <_svfprintf_r+0xb18>
200031f8:	4628      	mov	r0, r5
200031fa:	4659      	mov	r1, fp
200031fc:	4642      	mov	r2, r8
200031fe:	f7ff f9d1 	bl	200025a4 <__sprint_r>
20003202:	464b      	mov	r3, r9
20003204:	2800      	cmp	r0, #0
20003206:	d0e7      	beq.n	200031d8 <_svfprintf_r+0xb18>
20003208:	f7ff bba8 	b.w	2000295c <_svfprintf_r+0x29c>
2000320c:	9816      	ldr	r0, [sp, #88]	; 0x58
2000320e:	f8dd c05c 	ldr.w	ip, [sp, #92]	; 0x5c
20003212:	4603      	mov	r3, r0
20003214:	9011      	str	r0, [sp, #68]	; 0x44
20003216:	0931      	lsrs	r1, r6, #4
20003218:	f006 020f 	and.w	r2, r6, #15
2000321c:	ea41 7107 	orr.w	r1, r1, r7, lsl #28
20003220:	0938      	lsrs	r0, r7, #4
20003222:	f81c 2002 	ldrb.w	r2, [ip, r2]
20003226:	460e      	mov	r6, r1
20003228:	4607      	mov	r7, r0
2000322a:	ea56 0107 	orrs.w	r1, r6, r7
2000322e:	f803 2d01 	strb.w	r2, [r3, #-1]!
20003232:	d1f0      	bne.n	20003216 <_svfprintf_r+0xb56>
20003234:	9a16      	ldr	r2, [sp, #88]	; 0x58
20003236:	9311      	str	r3, [sp, #68]	; 0x44
20003238:	1ad2      	subs	r2, r2, r3
2000323a:	920e      	str	r2, [sp, #56]	; 0x38
2000323c:	f7ff bbed 	b.w	20002a1a <_svfprintf_r+0x35a>
20003240:	2300      	movs	r3, #0
20003242:	2209      	movs	r2, #9
20003244:	42b2      	cmp	r2, r6
20003246:	eb73 0007 	sbcs.w	r0, r3, r7
2000324a:	9b16      	ldr	r3, [sp, #88]	; 0x58
2000324c:	bf3e      	ittt	cc
2000324e:	f8cd 802c 	strcc.w	r8, [sp, #44]	; 0x2c
20003252:	46a0      	movcc	r8, r4
20003254:	461c      	movcc	r4, r3
20003256:	d21a      	bcs.n	2000328e <_svfprintf_r+0xbce>
20003258:	4630      	mov	r0, r6
2000325a:	4639      	mov	r1, r7
2000325c:	220a      	movs	r2, #10
2000325e:	2300      	movs	r3, #0
20003260:	f003 fe76 	bl	20006f50 <__aeabi_uldivmod>
20003264:	4630      	mov	r0, r6
20003266:	4639      	mov	r1, r7
20003268:	2300      	movs	r3, #0
2000326a:	f102 0c30 	add.w	ip, r2, #48	; 0x30
2000326e:	220a      	movs	r2, #10
20003270:	f804 cd01 	strb.w	ip, [r4, #-1]!
20003274:	f003 fe6c 	bl	20006f50 <__aeabi_uldivmod>
20003278:	4606      	mov	r6, r0
2000327a:	460f      	mov	r7, r1
2000327c:	2009      	movs	r0, #9
2000327e:	2100      	movs	r1, #0
20003280:	42b0      	cmp	r0, r6
20003282:	41b9      	sbcs	r1, r7
20003284:	d3e8      	bcc.n	20003258 <_svfprintf_r+0xb98>
20003286:	4623      	mov	r3, r4
20003288:	4644      	mov	r4, r8
2000328a:	f8dd 802c 	ldr.w	r8, [sp, #44]	; 0x2c
2000328e:	1e5a      	subs	r2, r3, #1
20003290:	3630      	adds	r6, #48	; 0x30
20003292:	9211      	str	r2, [sp, #68]	; 0x44
20003294:	f803 6c01 	strb.w	r6, [r3, #-1]
20003298:	9b16      	ldr	r3, [sp, #88]	; 0x58
2000329a:	1a9b      	subs	r3, r3, r2
2000329c:	930e      	str	r3, [sp, #56]	; 0x38
2000329e:	f7ff bbbc 	b.w	20002a1a <_svfprintf_r+0x35a>
200032a2:	bf00      	nop
200032a4:	20007a0c 	.word	0x20007a0c
200032a8:	9809      	ldr	r0, [sp, #36]	; 0x24
200032aa:	4659      	mov	r1, fp
200032ac:	aa37      	add	r2, sp, #220	; 0xdc
200032ae:	f7ff f979 	bl	200025a4 <__sprint_r>
200032b2:	2800      	cmp	r0, #0
200032b4:	f47f ab52 	bne.w	2000295c <_svfprintf_r+0x29c>
200032b8:	464c      	mov	r4, r9
200032ba:	f7ff bbff 	b.w	20002abc <_svfprintf_r+0x3fc>
200032be:	9818      	ldr	r0, [sp, #96]	; 0x60
200032c0:	1e46      	subs	r6, r0, #1
200032c2:	2e00      	cmp	r6, #0
200032c4:	f77f ab08 	ble.w	200028d8 <_svfprintf_r+0x218>
200032c8:	2e10      	cmp	r6, #16
200032ca:	4f9c      	ldr	r7, [pc, #624]	; (2000353c <_svfprintf_r+0xe7c>)
200032cc:	bfc8      	it	gt
200032ce:	f04f 0810 	movgt.w	r8, #16
200032d2:	dc03      	bgt.n	200032dc <_svfprintf_r+0xc1c>
200032d4:	e01b      	b.n	2000330e <_svfprintf_r+0xc4e>
200032d6:	3e10      	subs	r6, #16
200032d8:	2e10      	cmp	r6, #16
200032da:	dd18      	ble.n	2000330e <_svfprintf_r+0xc4e>
200032dc:	f8c4 8004 	str.w	r8, [r4, #4]
200032e0:	9b38      	ldr	r3, [sp, #224]	; 0xe0
200032e2:	9a39      	ldr	r2, [sp, #228]	; 0xe4
200032e4:	3301      	adds	r3, #1
200032e6:	6027      	str	r7, [r4, #0]
200032e8:	3210      	adds	r2, #16
200032ea:	2b07      	cmp	r3, #7
200032ec:	9239      	str	r2, [sp, #228]	; 0xe4
200032ee:	f104 0408 	add.w	r4, r4, #8
200032f2:	9338      	str	r3, [sp, #224]	; 0xe0
200032f4:	ddef      	ble.n	200032d6 <_svfprintf_r+0xc16>
200032f6:	9809      	ldr	r0, [sp, #36]	; 0x24
200032f8:	4659      	mov	r1, fp
200032fa:	aa37      	add	r2, sp, #220	; 0xdc
200032fc:	464c      	mov	r4, r9
200032fe:	f7ff f951 	bl	200025a4 <__sprint_r>
20003302:	2800      	cmp	r0, #0
20003304:	f47f ab2a 	bne.w	2000295c <_svfprintf_r+0x29c>
20003308:	3e10      	subs	r6, #16
2000330a:	2e10      	cmp	r6, #16
2000330c:	dce6      	bgt.n	200032dc <_svfprintf_r+0xc1c>
2000330e:	6066      	str	r6, [r4, #4]
20003310:	9b38      	ldr	r3, [sp, #224]	; 0xe0
20003312:	9a39      	ldr	r2, [sp, #228]	; 0xe4
20003314:	3301      	adds	r3, #1
20003316:	6027      	str	r7, [r4, #0]
20003318:	1992      	adds	r2, r2, r6
2000331a:	2b07      	cmp	r3, #7
2000331c:	9239      	str	r2, [sp, #228]	; 0xe4
2000331e:	9338      	str	r3, [sp, #224]	; 0xe0
20003320:	f77f aad9 	ble.w	200028d6 <_svfprintf_r+0x216>
20003324:	e706      	b.n	20003134 <_svfprintf_r+0xa74>
20003326:	9814      	ldr	r0, [sp, #80]	; 0x50
20003328:	2130      	movs	r1, #48	; 0x30
2000332a:	f04a 0a02 	orr.w	sl, sl, #2
2000332e:	2201      	movs	r2, #1
20003330:	2302      	movs	r3, #2
20003332:	f88d 110c 	strb.w	r1, [sp, #268]	; 0x10c
20003336:	f88d 010d 	strb.w	r0, [sp, #269]	; 0x10d
2000333a:	f7ff bb39 	b.w	200029b0 <_svfprintf_r+0x2f0>
2000333e:	9a0a      	ldr	r2, [sp, #40]	; 0x28
20003340:	1d13      	adds	r3, r2, #4
20003342:	6816      	ldr	r6, [r2, #0]
20003344:	930a      	str	r3, [sp, #40]	; 0x28
20003346:	4636      	mov	r6, r6
20003348:	ea4f 77e6 	mov.w	r7, r6, asr #31
2000334c:	2e00      	cmp	r6, #0
2000334e:	f177 0000 	sbcs.w	r0, r7, #0
20003352:	f6bf ac8a 	bge.w	20002c6a <_svfprintf_r+0x5aa>
20003356:	4276      	negs	r6, r6
20003358:	eb67 0747 	sbc.w	r7, r7, r7, lsl #1
2000335c:	232d      	movs	r3, #45	; 0x2d
2000335e:	ea56 0207 	orrs.w	r2, r6, r7
20003362:	f88d 310f 	strb.w	r3, [sp, #271]	; 0x10f
20003366:	bf0c      	ite	eq
20003368:	2200      	moveq	r2, #0
2000336a:	2201      	movne	r2, #1
2000336c:	2301      	movs	r3, #1
2000336e:	f7ff bb23 	b.w	200029b8 <_svfprintf_r+0x2f8>
20003372:	9b0a      	ldr	r3, [sp, #40]	; 0x28
20003374:	1d18      	adds	r0, r3, #4
20003376:	681e      	ldr	r6, [r3, #0]
20003378:	900a      	str	r0, [sp, #40]	; 0x28
2000337a:	4636      	mov	r6, r6
2000337c:	f04f 0700 	mov.w	r7, #0
20003380:	f7ff bb0c 	b.w	2000299c <_svfprintf_r+0x2dc>
20003384:	9a0a      	ldr	r2, [sp, #40]	; 0x28
20003386:	1d13      	adds	r3, r2, #4
20003388:	6816      	ldr	r6, [r2, #0]
2000338a:	930a      	str	r3, [sp, #40]	; 0x28
2000338c:	2301      	movs	r3, #1
2000338e:	1e32      	subs	r2, r6, #0
20003390:	bf18      	it	ne
20003392:	2201      	movne	r2, #1
20003394:	4636      	mov	r6, r6
20003396:	f04f 0700 	mov.w	r7, #0
2000339a:	f7ff bb09 	b.w	200029b0 <_svfprintf_r+0x2f0>
2000339e:	9809      	ldr	r0, [sp, #36]	; 0x24
200033a0:	4659      	mov	r1, fp
200033a2:	aa37      	add	r2, sp, #220	; 0xdc
200033a4:	f7ff f8fe 	bl	200025a4 <__sprint_r>
200033a8:	2800      	cmp	r0, #0
200033aa:	f47f aad7 	bne.w	2000295c <_svfprintf_r+0x29c>
200033ae:	464c      	mov	r4, r9
200033b0:	f7ff ba79 	b.w	200028a6 <_svfprintf_r+0x1e6>
200033b4:	9809      	ldr	r0, [sp, #36]	; 0x24
200033b6:	4659      	mov	r1, fp
200033b8:	aa37      	add	r2, sp, #220	; 0xdc
200033ba:	f7ff f8f3 	bl	200025a4 <__sprint_r>
200033be:	2800      	cmp	r0, #0
200033c0:	f47f aacc 	bne.w	2000295c <_svfprintf_r+0x29c>
200033c4:	464c      	mov	r4, r9
200033c6:	f7ff ba60 	b.w	2000288a <_svfprintf_r+0x1ca>
200033ca:	2830      	cmp	r0, #48	; 0x30
200033cc:	f000 8296 	beq.w	200038fc <_svfprintf_r+0x123c>
200033d0:	9a11      	ldr	r2, [sp, #68]	; 0x44
200033d2:	2330      	movs	r3, #48	; 0x30
200033d4:	f802 3d01 	strb.w	r3, [r2, #-1]!
200033d8:	9b16      	ldr	r3, [sp, #88]	; 0x58
200033da:	9211      	str	r2, [sp, #68]	; 0x44
200033dc:	1a9b      	subs	r3, r3, r2
200033de:	930e      	str	r3, [sp, #56]	; 0x38
200033e0:	f7ff bb1b 	b.w	20002a1a <_svfprintf_r+0x35a>
200033e4:	9809      	ldr	r0, [sp, #36]	; 0x24
200033e6:	4659      	mov	r1, fp
200033e8:	aa37      	add	r2, sp, #220	; 0xdc
200033ea:	f7ff f8db 	bl	200025a4 <__sprint_r>
200033ee:	2800      	cmp	r0, #0
200033f0:	f47f aab4 	bne.w	2000295c <_svfprintf_r+0x29c>
200033f4:	464c      	mov	r4, r9
200033f6:	f7ff bb87 	b.w	20002b08 <_svfprintf_r+0x448>
200033fa:	605e      	str	r6, [r3, #4]
200033fc:	9a38      	ldr	r2, [sp, #224]	; 0xe0
200033fe:	9939      	ldr	r1, [sp, #228]	; 0xe4
20003400:	3201      	adds	r2, #1
20003402:	601f      	str	r7, [r3, #0]
20003404:	1989      	adds	r1, r1, r6
20003406:	2a07      	cmp	r2, #7
20003408:	9139      	str	r1, [sp, #228]	; 0xe4
2000340a:	9238      	str	r2, [sp, #224]	; 0xe0
2000340c:	f73f abc1 	bgt.w	20002b92 <_svfprintf_r+0x4d2>
20003410:	3308      	adds	r3, #8
20003412:	f7ff ba71 	b.w	200028f8 <_svfprintf_r+0x238>
20003416:	990a      	ldr	r1, [sp, #40]	; 0x28
20003418:	462b      	mov	r3, r5
2000341a:	782a      	ldrb	r2, [r5, #0]
2000341c:	910a      	str	r1, [sp, #40]	; 0x28
2000341e:	f7ff b9b8 	b.w	20002792 <_svfprintf_r+0xd2>
20003422:	f01a 0f10 	tst.w	sl, #16
20003426:	f000 81cd 	beq.w	200037c4 <_svfprintf_r+0x1104>
2000342a:	980a      	ldr	r0, [sp, #40]	; 0x28
2000342c:	990d      	ldr	r1, [sp, #52]	; 0x34
2000342e:	f100 0a04 	add.w	sl, r0, #4
20003432:	6803      	ldr	r3, [r0, #0]
20003434:	6019      	str	r1, [r3, #0]
20003436:	f7ff b96d 	b.w	20002714 <_svfprintf_r+0x54>
2000343a:	9a0a      	ldr	r2, [sp, #40]	; 0x28
2000343c:	1dd3      	adds	r3, r2, #7
2000343e:	f023 0307 	bic.w	r3, r3, #7
20003442:	f103 0008 	add.w	r0, r3, #8
20003446:	900a      	str	r0, [sp, #40]	; 0x28
20003448:	685e      	ldr	r6, [r3, #4]
2000344a:	681f      	ldr	r7, [r3, #0]
2000344c:	9619      	str	r6, [sp, #100]	; 0x64
2000344e:	9710      	str	r7, [sp, #64]	; 0x40
20003450:	e43f      	b.n	20002cd2 <_svfprintf_r+0x612>
20003452:	f01a 0340 	ands.w	r3, sl, #64	; 0x40
20003456:	f000 81a9 	beq.w	200037ac <_svfprintf_r+0x10ec>
2000345a:	990a      	ldr	r1, [sp, #40]	; 0x28
2000345c:	4613      	mov	r3, r2
2000345e:	1d0a      	adds	r2, r1, #4
20003460:	920a      	str	r2, [sp, #40]	; 0x28
20003462:	880e      	ldrh	r6, [r1, #0]
20003464:	1e32      	subs	r2, r6, #0
20003466:	bf18      	it	ne
20003468:	2201      	movne	r2, #1
2000346a:	4636      	mov	r6, r6
2000346c:	f04f 0700 	mov.w	r7, #0
20003470:	f7ff ba9e 	b.w	200029b0 <_svfprintf_r+0x2f0>
20003474:	9a11      	ldr	r2, [sp, #68]	; 0x44
20003476:	6063      	str	r3, [r4, #4]
20003478:	9938      	ldr	r1, [sp, #224]	; 0xe0
2000347a:	6022      	str	r2, [r4, #0]
2000347c:	9a39      	ldr	r2, [sp, #228]	; 0xe4
2000347e:	3101      	adds	r1, #1
20003480:	9138      	str	r1, [sp, #224]	; 0xe0
20003482:	18d3      	adds	r3, r2, r3
20003484:	2907      	cmp	r1, #7
20003486:	9339      	str	r3, [sp, #228]	; 0xe4
20003488:	f300 8262 	bgt.w	20003950 <_svfprintf_r+0x1290>
2000348c:	3408      	adds	r4, #8
2000348e:	2301      	movs	r3, #1
20003490:	9e42      	ldr	r6, [sp, #264]	; 0x108
20003492:	6063      	str	r3, [r4, #4]
20003494:	9b38      	ldr	r3, [sp, #224]	; 0xe0
20003496:	9a39      	ldr	r2, [sp, #228]	; 0xe4
20003498:	3301      	adds	r3, #1
2000349a:	981b      	ldr	r0, [sp, #108]	; 0x6c
2000349c:	3201      	adds	r2, #1
2000349e:	2b07      	cmp	r3, #7
200034a0:	9338      	str	r3, [sp, #224]	; 0xe0
200034a2:	bfd8      	it	le
200034a4:	f104 0308 	addle.w	r3, r4, #8
200034a8:	6020      	str	r0, [r4, #0]
200034aa:	9239      	str	r2, [sp, #228]	; 0xe4
200034ac:	f300 8246 	bgt.w	2000393c <_svfprintf_r+0x127c>
200034b0:	9a42      	ldr	r2, [sp, #264]	; 0x108
200034b2:	9911      	ldr	r1, [sp, #68]	; 0x44
200034b4:	9818      	ldr	r0, [sp, #96]	; 0x60
200034b6:	198e      	adds	r6, r1, r6
200034b8:	601e      	str	r6, [r3, #0]
200034ba:	1a81      	subs	r1, r0, r2
200034bc:	6059      	str	r1, [r3, #4]
200034be:	9939      	ldr	r1, [sp, #228]	; 0xe4
200034c0:	1a8a      	subs	r2, r1, r2
200034c2:	9938      	ldr	r1, [sp, #224]	; 0xe0
200034c4:	1812      	adds	r2, r2, r0
200034c6:	9239      	str	r2, [sp, #228]	; 0xe4
200034c8:	3101      	adds	r1, #1
200034ca:	9138      	str	r1, [sp, #224]	; 0xe0
200034cc:	2907      	cmp	r1, #7
200034ce:	f73f ab60 	bgt.w	20002b92 <_svfprintf_r+0x4d2>
200034d2:	3308      	adds	r3, #8
200034d4:	f7ff ba10 	b.w	200028f8 <_svfprintf_r+0x238>
200034d8:	4655      	mov	r5, sl
200034da:	f8dd a038 	ldr.w	sl, [sp, #56]	; 0x38
200034de:	605c      	str	r4, [r3, #4]
200034e0:	9a38      	ldr	r2, [sp, #224]	; 0xe0
200034e2:	9939      	ldr	r1, [sp, #228]	; 0xe4
200034e4:	3201      	adds	r2, #1
200034e6:	601f      	str	r7, [r3, #0]
200034e8:	1909      	adds	r1, r1, r4
200034ea:	2a07      	cmp	r2, #7
200034ec:	9139      	str	r1, [sp, #228]	; 0xe4
200034ee:	9238      	str	r2, [sp, #224]	; 0xe0
200034f0:	f300 827f 	bgt.w	200039f2 <_svfprintf_r+0x1332>
200034f4:	3308      	adds	r3, #8
200034f6:	f01a 0f01 	tst.w	sl, #1
200034fa:	f43f a9fd 	beq.w	200028f8 <_svfprintf_r+0x238>
200034fe:	991b      	ldr	r1, [sp, #108]	; 0x6c
20003500:	2201      	movs	r2, #1
20003502:	605a      	str	r2, [r3, #4]
20003504:	9a38      	ldr	r2, [sp, #224]	; 0xe0
20003506:	6019      	str	r1, [r3, #0]
20003508:	9939      	ldr	r1, [sp, #228]	; 0xe4
2000350a:	3201      	adds	r2, #1
2000350c:	9238      	str	r2, [sp, #224]	; 0xe0
2000350e:	3101      	adds	r1, #1
20003510:	2a07      	cmp	r2, #7
20003512:	9139      	str	r1, [sp, #228]	; 0xe4
20003514:	f73f ab3d 	bgt.w	20002b92 <_svfprintf_r+0x4d2>
20003518:	3308      	adds	r3, #8
2000351a:	f7ff b9ed 	b.w	200028f8 <_svfprintf_r+0x238>
2000351e:	232d      	movs	r3, #45	; 0x2d
20003520:	f88d 310f 	strb.w	r3, [sp, #271]	; 0x10f
20003524:	f7ff bbe8 	b.w	20002cf8 <_svfprintf_r+0x638>
20003528:	9809      	ldr	r0, [sp, #36]	; 0x24
2000352a:	4659      	mov	r1, fp
2000352c:	aa37      	add	r2, sp, #220	; 0xdc
2000352e:	f7ff f839 	bl	200025a4 <__sprint_r>
20003532:	2800      	cmp	r0, #0
20003534:	f47f aa12 	bne.w	2000295c <_svfprintf_r+0x29c>
20003538:	464b      	mov	r3, r9
2000353a:	e556      	b.n	20002fea <_svfprintf_r+0x92a>
2000353c:	20007a0c 	.word	0x20007a0c
20003540:	2301      	movs	r3, #1
20003542:	6063      	str	r3, [r4, #4]
20003544:	9a38      	ldr	r2, [sp, #224]	; 0xe0
20003546:	f647 235c 	movw	r3, #31324	; 0x7a5c
2000354a:	f2c2 0300 	movt	r3, #8192	; 0x2000
2000354e:	6023      	str	r3, [r4, #0]
20003550:	9b39      	ldr	r3, [sp, #228]	; 0xe4
20003552:	3201      	adds	r2, #1
20003554:	9238      	str	r2, [sp, #224]	; 0xe0
20003556:	3301      	adds	r3, #1
20003558:	2a07      	cmp	r2, #7
2000355a:	9339      	str	r3, [sp, #228]	; 0xe4
2000355c:	bfd8      	it	le
2000355e:	f104 0308 	addle.w	r3, r4, #8
20003562:	f300 8173 	bgt.w	2000384c <_svfprintf_r+0x118c>
20003566:	9a42      	ldr	r2, [sp, #264]	; 0x108
20003568:	b92a      	cbnz	r2, 20003576 <_svfprintf_r+0xeb6>
2000356a:	9818      	ldr	r0, [sp, #96]	; 0x60
2000356c:	b918      	cbnz	r0, 20003576 <_svfprintf_r+0xeb6>
2000356e:	f01a 0f01 	tst.w	sl, #1
20003572:	f43f a9c1 	beq.w	200028f8 <_svfprintf_r+0x238>
20003576:	991b      	ldr	r1, [sp, #108]	; 0x6c
20003578:	2201      	movs	r2, #1
2000357a:	605a      	str	r2, [r3, #4]
2000357c:	9a38      	ldr	r2, [sp, #224]	; 0xe0
2000357e:	6019      	str	r1, [r3, #0]
20003580:	9939      	ldr	r1, [sp, #228]	; 0xe4
20003582:	3201      	adds	r2, #1
20003584:	9238      	str	r2, [sp, #224]	; 0xe0
20003586:	3101      	adds	r1, #1
20003588:	2a07      	cmp	r2, #7
2000358a:	9139      	str	r1, [sp, #228]	; 0xe4
2000358c:	f300 8168 	bgt.w	20003860 <_svfprintf_r+0x11a0>
20003590:	3308      	adds	r3, #8
20003592:	9c42      	ldr	r4, [sp, #264]	; 0x108
20003594:	4264      	negs	r4, r4
20003596:	2c00      	cmp	r4, #0
20003598:	f340 8187 	ble.w	200038aa <_svfprintf_r+0x11ea>
2000359c:	2c10      	cmp	r4, #16
2000359e:	4f9e      	ldr	r7, [pc, #632]	; (20003818 <_svfprintf_r+0x1158>)
200035a0:	f340 81a0 	ble.w	200038e4 <_svfprintf_r+0x1224>
200035a4:	2610      	movs	r6, #16
200035a6:	f10d 08dc 	add.w	r8, sp, #220	; 0xdc
200035aa:	e003      	b.n	200035b4 <_svfprintf_r+0xef4>
200035ac:	3c10      	subs	r4, #16
200035ae:	2c10      	cmp	r4, #16
200035b0:	f340 8198 	ble.w	200038e4 <_svfprintf_r+0x1224>
200035b4:	605e      	str	r6, [r3, #4]
200035b6:	9a38      	ldr	r2, [sp, #224]	; 0xe0
200035b8:	9939      	ldr	r1, [sp, #228]	; 0xe4
200035ba:	3201      	adds	r2, #1
200035bc:	601f      	str	r7, [r3, #0]
200035be:	3110      	adds	r1, #16
200035c0:	2a07      	cmp	r2, #7
200035c2:	9139      	str	r1, [sp, #228]	; 0xe4
200035c4:	f103 0308 	add.w	r3, r3, #8
200035c8:	9238      	str	r2, [sp, #224]	; 0xe0
200035ca:	ddef      	ble.n	200035ac <_svfprintf_r+0xeec>
200035cc:	9809      	ldr	r0, [sp, #36]	; 0x24
200035ce:	4659      	mov	r1, fp
200035d0:	4642      	mov	r2, r8
200035d2:	f7fe ffe7 	bl	200025a4 <__sprint_r>
200035d6:	464b      	mov	r3, r9
200035d8:	2800      	cmp	r0, #0
200035da:	d0e7      	beq.n	200035ac <_svfprintf_r+0xeec>
200035dc:	f7ff b9be 	b.w	2000295c <_svfprintf_r+0x29c>
200035e0:	9b39      	ldr	r3, [sp, #228]	; 0xe4
200035e2:	465e      	mov	r6, fp
200035e4:	2b00      	cmp	r3, #0
200035e6:	f43f a9ba 	beq.w	2000295e <_svfprintf_r+0x29e>
200035ea:	9809      	ldr	r0, [sp, #36]	; 0x24
200035ec:	4659      	mov	r1, fp
200035ee:	aa37      	add	r2, sp, #220	; 0xdc
200035f0:	f7fe ffd8 	bl	200025a4 <__sprint_r>
200035f4:	f7ff b9b3 	b.w	2000295e <_svfprintf_r+0x29e>
200035f8:	990a      	ldr	r1, [sp, #40]	; 0x28
200035fa:	f04a 0a20 	orr.w	sl, sl, #32
200035fe:	786a      	ldrb	r2, [r5, #1]
20003600:	1c6b      	adds	r3, r5, #1
20003602:	910a      	str	r1, [sp, #40]	; 0x28
20003604:	f7ff b8c5 	b.w	20002792 <_svfprintf_r+0xd2>
20003608:	4638      	mov	r0, r7
2000360a:	4631      	mov	r1, r6
2000360c:	9308      	str	r3, [sp, #32]
2000360e:	f002 fec5 	bl	2000639c <__isnand>
20003612:	9b08      	ldr	r3, [sp, #32]
20003614:	2800      	cmp	r0, #0
20003616:	f040 8101 	bne.w	2000381c <_svfprintf_r+0x115c>
2000361a:	f1b8 3fff 	cmp.w	r8, #4294967295
2000361e:	bf08      	it	eq
20003620:	f108 0807 	addeq.w	r8, r8, #7
20003624:	d00e      	beq.n	20003644 <_svfprintf_r+0xf84>
20003626:	9a14      	ldr	r2, [sp, #80]	; 0x50
20003628:	2a67      	cmp	r2, #103	; 0x67
2000362a:	bf14      	ite	ne
2000362c:	2300      	movne	r3, #0
2000362e:	2301      	moveq	r3, #1
20003630:	2a47      	cmp	r2, #71	; 0x47
20003632:	bf08      	it	eq
20003634:	f043 0301 	orreq.w	r3, r3, #1
20003638:	b123      	cbz	r3, 20003644 <_svfprintf_r+0xf84>
2000363a:	f1b8 0f00 	cmp.w	r8, #0
2000363e:	bf08      	it	eq
20003640:	f04f 0801 	moveq.w	r8, #1
20003644:	4633      	mov	r3, r6
20003646:	463a      	mov	r2, r7
20003648:	e9cd 233a 	strd	r2, r3, [sp, #232]	; 0xe8
2000364c:	f44a 7a80 	orr.w	sl, sl, #256	; 0x100
20003650:	9b3b      	ldr	r3, [sp, #236]	; 0xec
20003652:	2b00      	cmp	r3, #0
20003654:	f2c0 820a 	blt.w	20003a6c <_svfprintf_r+0x13ac>
20003658:	2300      	movs	r3, #0
2000365a:	9315      	str	r3, [sp, #84]	; 0x54
2000365c:	9914      	ldr	r1, [sp, #80]	; 0x50
2000365e:	2966      	cmp	r1, #102	; 0x66
20003660:	bf14      	ite	ne
20003662:	2300      	movne	r3, #0
20003664:	2301      	moveq	r3, #1
20003666:	2946      	cmp	r1, #70	; 0x46
20003668:	bf08      	it	eq
2000366a:	f043 0301 	orreq.w	r3, r3, #1
2000366e:	9312      	str	r3, [sp, #72]	; 0x48
20003670:	2b00      	cmp	r3, #0
20003672:	f000 818a 	beq.w	2000398a <_svfprintf_r+0x12ca>
20003676:	2303      	movs	r3, #3
20003678:	f8cd 802c 	str.w	r8, [sp, #44]	; 0x2c
2000367c:	990b      	ldr	r1, [sp, #44]	; 0x2c
2000367e:	970e      	str	r7, [sp, #56]	; 0x38
20003680:	960f      	str	r6, [sp, #60]	; 0x3c
20003682:	9300      	str	r3, [sp, #0]
20003684:	9809      	ldr	r0, [sp, #36]	; 0x24
20003686:	e9dd 230e 	ldrd	r2, r3, [sp, #56]	; 0x38
2000368a:	9101      	str	r1, [sp, #4]
2000368c:	a942      	add	r1, sp, #264	; 0x108
2000368e:	9102      	str	r1, [sp, #8]
20003690:	a941      	add	r1, sp, #260	; 0x104
20003692:	9103      	str	r1, [sp, #12]
20003694:	a940      	add	r1, sp, #256	; 0x100
20003696:	9104      	str	r1, [sp, #16]
20003698:	f000 faea 	bl	20003c70 <_dtoa_r>
2000369c:	9a14      	ldr	r2, [sp, #80]	; 0x50
2000369e:	f1b2 0367 	subs.w	r3, r2, #103	; 0x67
200036a2:	bf18      	it	ne
200036a4:	2301      	movne	r3, #1
200036a6:	2a47      	cmp	r2, #71	; 0x47
200036a8:	bf0c      	ite	eq
200036aa:	2300      	moveq	r3, #0
200036ac:	f003 0301 	andne.w	r3, r3, #1
200036b0:	9011      	str	r0, [sp, #68]	; 0x44
200036b2:	b92b      	cbnz	r3, 200036c0 <_svfprintf_r+0x1000>
200036b4:	f01a 0f01 	tst.w	sl, #1
200036b8:	bf08      	it	eq
200036ba:	f8dd c100 	ldreq.w	ip, [sp, #256]	; 0x100
200036be:	d01a      	beq.n	200036f6 <_svfprintf_r+0x1036>
200036c0:	9b11      	ldr	r3, [sp, #68]	; 0x44
200036c2:	980b      	ldr	r0, [sp, #44]	; 0x2c
200036c4:	9912      	ldr	r1, [sp, #72]	; 0x48
200036c6:	eb03 0c00 	add.w	ip, r3, r0
200036ca:	b129      	cbz	r1, 200036d8 <_svfprintf_r+0x1018>
200036cc:	781b      	ldrb	r3, [r3, #0]
200036ce:	2b30      	cmp	r3, #48	; 0x30
200036d0:	f000 80d0 	beq.w	20003874 <_svfprintf_r+0x11b4>
200036d4:	9b42      	ldr	r3, [sp, #264]	; 0x108
200036d6:	449c      	add	ip, r3
200036d8:	4638      	mov	r0, r7
200036da:	2200      	movs	r2, #0
200036dc:	2300      	movs	r3, #0
200036de:	4631      	mov	r1, r6
200036e0:	f8cd c020 	str.w	ip, [sp, #32]
200036e4:	f003 fbda 	bl	20006e9c <__aeabi_dcmpeq>
200036e8:	f8dd c020 	ldr.w	ip, [sp, #32]
200036ec:	2800      	cmp	r0, #0
200036ee:	f000 8173 	beq.w	200039d8 <_svfprintf_r+0x1318>
200036f2:	f8cd c100 	str.w	ip, [sp, #256]	; 0x100
200036f6:	9814      	ldr	r0, [sp, #80]	; 0x50
200036f8:	9911      	ldr	r1, [sp, #68]	; 0x44
200036fa:	2867      	cmp	r0, #103	; 0x67
200036fc:	bf14      	ite	ne
200036fe:	2300      	movne	r3, #0
20003700:	2301      	moveq	r3, #1
20003702:	2847      	cmp	r0, #71	; 0x47
20003704:	bf08      	it	eq
20003706:	f043 0301 	orreq.w	r3, r3, #1
2000370a:	ebc1 010c 	rsb	r1, r1, ip
2000370e:	9118      	str	r1, [sp, #96]	; 0x60
20003710:	2b00      	cmp	r3, #0
20003712:	f000 814a 	beq.w	200039aa <_svfprintf_r+0x12ea>
20003716:	9a42      	ldr	r2, [sp, #264]	; 0x108
20003718:	f112 0f03 	cmn.w	r2, #3
2000371c:	920e      	str	r2, [sp, #56]	; 0x38
2000371e:	db02      	blt.n	20003726 <_svfprintf_r+0x1066>
20003720:	4590      	cmp	r8, r2
20003722:	f280 814b 	bge.w	200039bc <_svfprintf_r+0x12fc>
20003726:	9b14      	ldr	r3, [sp, #80]	; 0x50
20003728:	3b02      	subs	r3, #2
2000372a:	9314      	str	r3, [sp, #80]	; 0x50
2000372c:	9a0e      	ldr	r2, [sp, #56]	; 0x38
2000372e:	9814      	ldr	r0, [sp, #80]	; 0x50
20003730:	1e53      	subs	r3, r2, #1
20003732:	9342      	str	r3, [sp, #264]	; 0x108
20003734:	2b00      	cmp	r3, #0
20003736:	f88d 00f8 	strb.w	r0, [sp, #248]	; 0xf8
2000373a:	f2c0 81d1 	blt.w	20003ae0 <_svfprintf_r+0x1420>
2000373e:	222b      	movs	r2, #43	; 0x2b
20003740:	f88d 20f9 	strb.w	r2, [sp, #249]	; 0xf9
20003744:	2b09      	cmp	r3, #9
20003746:	f300 8162 	bgt.w	20003a0e <_svfprintf_r+0x134e>
2000374a:	a93f      	add	r1, sp, #252	; 0xfc
2000374c:	3330      	adds	r3, #48	; 0x30
2000374e:	f88d 30fb 	strb.w	r3, [sp, #251]	; 0xfb
20003752:	2330      	movs	r3, #48	; 0x30
20003754:	f88d 30fa 	strb.w	r3, [sp, #250]	; 0xfa
20003758:	ab3e      	add	r3, sp, #248	; 0xf8
2000375a:	9a18      	ldr	r2, [sp, #96]	; 0x60
2000375c:	1acb      	subs	r3, r1, r3
2000375e:	9918      	ldr	r1, [sp, #96]	; 0x60
20003760:	931a      	str	r3, [sp, #104]	; 0x68
20003762:	1859      	adds	r1, r3, r1
20003764:	2a01      	cmp	r2, #1
20003766:	910e      	str	r1, [sp, #56]	; 0x38
20003768:	f340 81cc 	ble.w	20003b04 <_svfprintf_r+0x1444>
2000376c:	980e      	ldr	r0, [sp, #56]	; 0x38
2000376e:	3001      	adds	r0, #1
20003770:	900e      	str	r0, [sp, #56]	; 0x38
20003772:	ea20 71e0 	bic.w	r1, r0, r0, asr #31
20003776:	910b      	str	r1, [sp, #44]	; 0x2c
20003778:	9b15      	ldr	r3, [sp, #84]	; 0x54
2000377a:	2b00      	cmp	r3, #0
2000377c:	f000 80fd 	beq.w	2000397a <_svfprintf_r+0x12ba>
20003780:	232d      	movs	r3, #45	; 0x2d
20003782:	2000      	movs	r0, #0
20003784:	f88d 310f 	strb.w	r3, [sp, #271]	; 0x10f
20003788:	9015      	str	r0, [sp, #84]	; 0x54
2000378a:	f7ff b950 	b.w	20002a2e <_svfprintf_r+0x36e>
2000378e:	9b0c      	ldr	r3, [sp, #48]	; 0x30
20003790:	425b      	negs	r3, r3
20003792:	930c      	str	r3, [sp, #48]	; 0x30
20003794:	f7ff bace 	b.w	20002d34 <_svfprintf_r+0x674>
20003798:	9a0e      	ldr	r2, [sp, #56]	; 0x38
2000379a:	2000      	movs	r0, #0
2000379c:	f89d 310f 	ldrb.w	r3, [sp, #271]	; 0x10f
200037a0:	ea22 72e2 	bic.w	r2, r2, r2, asr #31
200037a4:	9015      	str	r0, [sp, #84]	; 0x54
200037a6:	920b      	str	r2, [sp, #44]	; 0x2c
200037a8:	f7ff b940 	b.w	20002a2c <_svfprintf_r+0x36c>
200037ac:	980a      	ldr	r0, [sp, #40]	; 0x28
200037ae:	1d01      	adds	r1, r0, #4
200037b0:	910a      	str	r1, [sp, #40]	; 0x28
200037b2:	6806      	ldr	r6, [r0, #0]
200037b4:	1e32      	subs	r2, r6, #0
200037b6:	bf18      	it	ne
200037b8:	2201      	movne	r2, #1
200037ba:	4636      	mov	r6, r6
200037bc:	f04f 0700 	mov.w	r7, #0
200037c0:	f7ff b8f6 	b.w	200029b0 <_svfprintf_r+0x2f0>
200037c4:	f01a 0f40 	tst.w	sl, #64	; 0x40
200037c8:	bf17      	itett	ne
200037ca:	9a0a      	ldrne	r2, [sp, #40]	; 0x28
200037cc:	990a      	ldreq	r1, [sp, #40]	; 0x28
200037ce:	980d      	ldrne	r0, [sp, #52]	; 0x34
200037d0:	f102 0a04 	addne.w	sl, r2, #4
200037d4:	bf11      	iteee	ne
200037d6:	6813      	ldrne	r3, [r2, #0]
200037d8:	f101 0a04 	addeq.w	sl, r1, #4
200037dc:	680b      	ldreq	r3, [r1, #0]
200037de:	9a0d      	ldreq	r2, [sp, #52]	; 0x34
200037e0:	bf14      	ite	ne
200037e2:	8018      	strhne	r0, [r3, #0]
200037e4:	601a      	streq	r2, [r3, #0]
200037e6:	f7fe bf95 	b.w	20002714 <_svfprintf_r+0x54>
200037ea:	9809      	ldr	r0, [sp, #36]	; 0x24
200037ec:	4659      	mov	r1, fp
200037ee:	aa37      	add	r2, sp, #220	; 0xdc
200037f0:	f7fe fed8 	bl	200025a4 <__sprint_r>
200037f4:	2800      	cmp	r0, #0
200037f6:	f47f a8b1 	bne.w	2000295c <_svfprintf_r+0x29c>
200037fa:	464b      	mov	r3, r9
200037fc:	e40b      	b.n	20003016 <_svfprintf_r+0x956>
200037fe:	9809      	ldr	r0, [sp, #36]	; 0x24
20003800:	2140      	movs	r1, #64	; 0x40
20003802:	f001 faff 	bl	20004e04 <_malloc_r>
20003806:	6030      	str	r0, [r6, #0]
20003808:	6130      	str	r0, [r6, #16]
2000380a:	2800      	cmp	r0, #0
2000380c:	f000 818d 	beq.w	20003b2a <_svfprintf_r+0x146a>
20003810:	2340      	movs	r3, #64	; 0x40
20003812:	6173      	str	r3, [r6, #20]
20003814:	f7fe bf67 	b.w	200026e6 <_svfprintf_r+0x26>
20003818:	20007a0c 	.word	0x20007a0c
2000381c:	2003      	movs	r0, #3
2000381e:	f647 223c 	movw	r2, #31292	; 0x7a3c
20003822:	f647 2138 	movw	r1, #31288	; 0x7a38
20003826:	900b      	str	r0, [sp, #44]	; 0x2c
20003828:	9814      	ldr	r0, [sp, #80]	; 0x50
2000382a:	f2c2 0100 	movt	r1, #8192	; 0x2000
2000382e:	f2c2 0200 	movt	r2, #8192	; 0x2000
20003832:	9315      	str	r3, [sp, #84]	; 0x54
20003834:	2847      	cmp	r0, #71	; 0x47
20003836:	bfd8      	it	le
20003838:	460a      	movle	r2, r1
2000383a:	f02a 0a80 	bic.w	sl, sl, #128	; 0x80
2000383e:	2103      	movs	r1, #3
20003840:	9211      	str	r2, [sp, #68]	; 0x44
20003842:	f89d 310f 	ldrb.w	r3, [sp, #271]	; 0x10f
20003846:	910e      	str	r1, [sp, #56]	; 0x38
20003848:	f7ff b8f0 	b.w	20002a2c <_svfprintf_r+0x36c>
2000384c:	9809      	ldr	r0, [sp, #36]	; 0x24
2000384e:	4659      	mov	r1, fp
20003850:	aa37      	add	r2, sp, #220	; 0xdc
20003852:	f7fe fea7 	bl	200025a4 <__sprint_r>
20003856:	2800      	cmp	r0, #0
20003858:	f47f a880 	bne.w	2000295c <_svfprintf_r+0x29c>
2000385c:	464b      	mov	r3, r9
2000385e:	e682      	b.n	20003566 <_svfprintf_r+0xea6>
20003860:	9809      	ldr	r0, [sp, #36]	; 0x24
20003862:	4659      	mov	r1, fp
20003864:	aa37      	add	r2, sp, #220	; 0xdc
20003866:	f7fe fe9d 	bl	200025a4 <__sprint_r>
2000386a:	2800      	cmp	r0, #0
2000386c:	f47f a876 	bne.w	2000295c <_svfprintf_r+0x29c>
20003870:	464b      	mov	r3, r9
20003872:	e68e      	b.n	20003592 <_svfprintf_r+0xed2>
20003874:	4638      	mov	r0, r7
20003876:	2200      	movs	r2, #0
20003878:	2300      	movs	r3, #0
2000387a:	4631      	mov	r1, r6
2000387c:	f8cd c020 	str.w	ip, [sp, #32]
20003880:	f003 fb0c 	bl	20006e9c <__aeabi_dcmpeq>
20003884:	f8dd c020 	ldr.w	ip, [sp, #32]
20003888:	2800      	cmp	r0, #0
2000388a:	f47f af23 	bne.w	200036d4 <_svfprintf_r+0x1014>
2000388e:	9a0b      	ldr	r2, [sp, #44]	; 0x2c
20003890:	f1c2 0301 	rsb	r3, r2, #1
20003894:	9342      	str	r3, [sp, #264]	; 0x108
20003896:	e71e      	b.n	200036d6 <_svfprintf_r+0x1016>
20003898:	9809      	ldr	r0, [sp, #36]	; 0x24
2000389a:	4659      	mov	r1, fp
2000389c:	aa37      	add	r2, sp, #220	; 0xdc
2000389e:	f7fe fe81 	bl	200025a4 <__sprint_r>
200038a2:	2800      	cmp	r0, #0
200038a4:	f47f a85a 	bne.w	2000295c <_svfprintf_r+0x29c>
200038a8:	464b      	mov	r3, r9
200038aa:	9a18      	ldr	r2, [sp, #96]	; 0x60
200038ac:	9811      	ldr	r0, [sp, #68]	; 0x44
200038ae:	605a      	str	r2, [r3, #4]
200038b0:	9a38      	ldr	r2, [sp, #224]	; 0xe0
200038b2:	9939      	ldr	r1, [sp, #228]	; 0xe4
200038b4:	6018      	str	r0, [r3, #0]
200038b6:	3201      	adds	r2, #1
200038b8:	9818      	ldr	r0, [sp, #96]	; 0x60
200038ba:	9238      	str	r2, [sp, #224]	; 0xe0
200038bc:	1809      	adds	r1, r1, r0
200038be:	2a07      	cmp	r2, #7
200038c0:	9139      	str	r1, [sp, #228]	; 0xe4
200038c2:	f73f a966 	bgt.w	20002b92 <_svfprintf_r+0x4d2>
200038c6:	3308      	adds	r3, #8
200038c8:	f7ff b816 	b.w	200028f8 <_svfprintf_r+0x238>
200038cc:	2100      	movs	r1, #0
200038ce:	9115      	str	r1, [sp, #84]	; 0x54
200038d0:	f002 fe74 	bl	200065bc <strlen>
200038d4:	f89d 310f 	ldrb.w	r3, [sp, #271]	; 0x10f
200038d8:	ea20 72e0 	bic.w	r2, r0, r0, asr #31
200038dc:	900e      	str	r0, [sp, #56]	; 0x38
200038de:	920b      	str	r2, [sp, #44]	; 0x2c
200038e0:	f7ff b8a4 	b.w	20002a2c <_svfprintf_r+0x36c>
200038e4:	605c      	str	r4, [r3, #4]
200038e6:	9a38      	ldr	r2, [sp, #224]	; 0xe0
200038e8:	601f      	str	r7, [r3, #0]
200038ea:	1c51      	adds	r1, r2, #1
200038ec:	9a39      	ldr	r2, [sp, #228]	; 0xe4
200038ee:	9138      	str	r1, [sp, #224]	; 0xe0
200038f0:	1912      	adds	r2, r2, r4
200038f2:	2907      	cmp	r1, #7
200038f4:	9239      	str	r2, [sp, #228]	; 0xe4
200038f6:	dccf      	bgt.n	20003898 <_svfprintf_r+0x11d8>
200038f8:	3308      	adds	r3, #8
200038fa:	e7d6      	b.n	200038aa <_svfprintf_r+0x11ea>
200038fc:	9916      	ldr	r1, [sp, #88]	; 0x58
200038fe:	9811      	ldr	r0, [sp, #68]	; 0x44
20003900:	1a08      	subs	r0, r1, r0
20003902:	900e      	str	r0, [sp, #56]	; 0x38
20003904:	f7ff b889 	b.w	20002a1a <_svfprintf_r+0x35a>
20003908:	f1b8 0f06 	cmp.w	r8, #6
2000390c:	bf34      	ite	cc
2000390e:	4641      	movcc	r1, r8
20003910:	2106      	movcs	r1, #6
20003912:	f647 2254 	movw	r2, #31316	; 0x7a54
20003916:	f2c2 0200 	movt	r2, #8192	; 0x2000
2000391a:	ea21 73e1 	bic.w	r3, r1, r1, asr #31
2000391e:	910e      	str	r1, [sp, #56]	; 0x38
20003920:	9211      	str	r2, [sp, #68]	; 0x44
20003922:	930b      	str	r3, [sp, #44]	; 0x2c
20003924:	f7ff b963 	b.w	20002bee <_svfprintf_r+0x52e>
20003928:	9809      	ldr	r0, [sp, #36]	; 0x24
2000392a:	4659      	mov	r1, fp
2000392c:	aa37      	add	r2, sp, #220	; 0xdc
2000392e:	f7fe fe39 	bl	200025a4 <__sprint_r>
20003932:	2800      	cmp	r0, #0
20003934:	f47f a812 	bne.w	2000295c <_svfprintf_r+0x29c>
20003938:	464b      	mov	r3, r9
2000393a:	e43b      	b.n	200031b4 <_svfprintf_r+0xaf4>
2000393c:	9809      	ldr	r0, [sp, #36]	; 0x24
2000393e:	4659      	mov	r1, fp
20003940:	aa37      	add	r2, sp, #220	; 0xdc
20003942:	f7fe fe2f 	bl	200025a4 <__sprint_r>
20003946:	2800      	cmp	r0, #0
20003948:	f47f a808 	bne.w	2000295c <_svfprintf_r+0x29c>
2000394c:	464b      	mov	r3, r9
2000394e:	e5af      	b.n	200034b0 <_svfprintf_r+0xdf0>
20003950:	9809      	ldr	r0, [sp, #36]	; 0x24
20003952:	4659      	mov	r1, fp
20003954:	aa37      	add	r2, sp, #220	; 0xdc
20003956:	f7fe fe25 	bl	200025a4 <__sprint_r>
2000395a:	2800      	cmp	r0, #0
2000395c:	f47e affe 	bne.w	2000295c <_svfprintf_r+0x29c>
20003960:	464c      	mov	r4, r9
20003962:	e594      	b.n	2000348e <_svfprintf_r+0xdce>
20003964:	f8cd 8038 	str.w	r8, [sp, #56]	; 0x38
20003968:	ea28 78e8 	bic.w	r8, r8, r8, asr #31
2000396c:	9015      	str	r0, [sp, #84]	; 0x54
2000396e:	f8cd 802c 	str.w	r8, [sp, #44]	; 0x2c
20003972:	f89d 310f 	ldrb.w	r3, [sp, #271]	; 0x10f
20003976:	f7ff b859 	b.w	20002a2c <_svfprintf_r+0x36c>
2000397a:	980e      	ldr	r0, [sp, #56]	; 0x38
2000397c:	f89d 310f 	ldrb.w	r3, [sp, #271]	; 0x10f
20003980:	ea20 70e0 	bic.w	r0, r0, r0, asr #31
20003984:	900b      	str	r0, [sp, #44]	; 0x2c
20003986:	f7ff b851 	b.w	20002a2c <_svfprintf_r+0x36c>
2000398a:	9a14      	ldr	r2, [sp, #80]	; 0x50
2000398c:	2a65      	cmp	r2, #101	; 0x65
2000398e:	bf14      	ite	ne
20003990:	2300      	movne	r3, #0
20003992:	2301      	moveq	r3, #1
20003994:	2a45      	cmp	r2, #69	; 0x45
20003996:	bf08      	it	eq
20003998:	f043 0301 	orreq.w	r3, r3, #1
2000399c:	2b00      	cmp	r3, #0
2000399e:	d032      	beq.n	20003a06 <_svfprintf_r+0x1346>
200039a0:	f108 0301 	add.w	r3, r8, #1
200039a4:	930b      	str	r3, [sp, #44]	; 0x2c
200039a6:	2302      	movs	r3, #2
200039a8:	e668      	b.n	2000367c <_svfprintf_r+0xfbc>
200039aa:	9814      	ldr	r0, [sp, #80]	; 0x50
200039ac:	2865      	cmp	r0, #101	; 0x65
200039ae:	dd62      	ble.n	20003a76 <_svfprintf_r+0x13b6>
200039b0:	9a14      	ldr	r2, [sp, #80]	; 0x50
200039b2:	2a66      	cmp	r2, #102	; 0x66
200039b4:	bf1c      	itt	ne
200039b6:	9b42      	ldrne	r3, [sp, #264]	; 0x108
200039b8:	930e      	strne	r3, [sp, #56]	; 0x38
200039ba:	d06f      	beq.n	20003a9c <_svfprintf_r+0x13dc>
200039bc:	9a18      	ldr	r2, [sp, #96]	; 0x60
200039be:	9b0e      	ldr	r3, [sp, #56]	; 0x38
200039c0:	429a      	cmp	r2, r3
200039c2:	dc5b      	bgt.n	20003a7c <_svfprintf_r+0x13bc>
200039c4:	f01a 0f01 	tst.w	sl, #1
200039c8:	f040 8081 	bne.w	20003ace <_svfprintf_r+0x140e>
200039cc:	ea23 70e3 	bic.w	r0, r3, r3, asr #31
200039d0:	2167      	movs	r1, #103	; 0x67
200039d2:	900b      	str	r0, [sp, #44]	; 0x2c
200039d4:	9114      	str	r1, [sp, #80]	; 0x50
200039d6:	e6cf      	b.n	20003778 <_svfprintf_r+0x10b8>
200039d8:	9b40      	ldr	r3, [sp, #256]	; 0x100
200039da:	459c      	cmp	ip, r3
200039dc:	bf98      	it	ls
200039de:	469c      	movls	ip, r3
200039e0:	f67f ae89 	bls.w	200036f6 <_svfprintf_r+0x1036>
200039e4:	2230      	movs	r2, #48	; 0x30
200039e6:	f803 2b01 	strb.w	r2, [r3], #1
200039ea:	459c      	cmp	ip, r3
200039ec:	9340      	str	r3, [sp, #256]	; 0x100
200039ee:	d8fa      	bhi.n	200039e6 <_svfprintf_r+0x1326>
200039f0:	e681      	b.n	200036f6 <_svfprintf_r+0x1036>
200039f2:	9809      	ldr	r0, [sp, #36]	; 0x24
200039f4:	4659      	mov	r1, fp
200039f6:	aa37      	add	r2, sp, #220	; 0xdc
200039f8:	f7fe fdd4 	bl	200025a4 <__sprint_r>
200039fc:	2800      	cmp	r0, #0
200039fe:	f47e afad 	bne.w	2000295c <_svfprintf_r+0x29c>
20003a02:	464b      	mov	r3, r9
20003a04:	e577      	b.n	200034f6 <_svfprintf_r+0xe36>
20003a06:	f8cd 802c 	str.w	r8, [sp, #44]	; 0x2c
20003a0a:	3302      	adds	r3, #2
20003a0c:	e636      	b.n	2000367c <_svfprintf_r+0xfbc>
20003a0e:	f246 6c67 	movw	ip, #26215	; 0x6667
20003a12:	f10d 00f7 	add.w	r0, sp, #247	; 0xf7
20003a16:	f2c6 6c66 	movt	ip, #26214	; 0x6666
20003a1a:	fb8c 2103 	smull	r2, r1, ip, r3
20003a1e:	17da      	asrs	r2, r3, #31
20003a20:	ebc2 02a1 	rsb	r2, r2, r1, asr #2
20003a24:	eb02 0182 	add.w	r1, r2, r2, lsl #2
20003a28:	eba3 0141 	sub.w	r1, r3, r1, lsl #1
20003a2c:	4613      	mov	r3, r2
20003a2e:	3130      	adds	r1, #48	; 0x30
20003a30:	2a09      	cmp	r2, #9
20003a32:	f800 1d01 	strb.w	r1, [r0, #-1]!
20003a36:	dcf0      	bgt.n	20003a1a <_svfprintf_r+0x135a>
20003a38:	3330      	adds	r3, #48	; 0x30
20003a3a:	1e42      	subs	r2, r0, #1
20003a3c:	b2d9      	uxtb	r1, r3
20003a3e:	f800 1c01 	strb.w	r1, [r0, #-1]
20003a42:	9b07      	ldr	r3, [sp, #28]
20003a44:	4293      	cmp	r3, r2
20003a46:	bf98      	it	ls
20003a48:	f10d 01fa 	addls.w	r1, sp, #250	; 0xfa
20003a4c:	f67f ae84 	bls.w	20003758 <_svfprintf_r+0x1098>
20003a50:	4602      	mov	r2, r0
20003a52:	f10d 03fb 	add.w	r3, sp, #251	; 0xfb
20003a56:	e001      	b.n	20003a5c <_svfprintf_r+0x139c>
20003a58:	f812 1b01 	ldrb.w	r1, [r2], #1
20003a5c:	f803 1c01 	strb.w	r1, [r3, #-1]
20003a60:	4619      	mov	r1, r3
20003a62:	9807      	ldr	r0, [sp, #28]
20003a64:	3301      	adds	r3, #1
20003a66:	4290      	cmp	r0, r2
20003a68:	d8f6      	bhi.n	20003a58 <_svfprintf_r+0x1398>
20003a6a:	e675      	b.n	20003758 <_svfprintf_r+0x1098>
20003a6c:	202d      	movs	r0, #45	; 0x2d
20003a6e:	f106 4600 	add.w	r6, r6, #2147483648	; 0x80000000
20003a72:	9015      	str	r0, [sp, #84]	; 0x54
20003a74:	e5f2      	b.n	2000365c <_svfprintf_r+0xf9c>
20003a76:	9942      	ldr	r1, [sp, #264]	; 0x108
20003a78:	910e      	str	r1, [sp, #56]	; 0x38
20003a7a:	e657      	b.n	2000372c <_svfprintf_r+0x106c>
20003a7c:	990e      	ldr	r1, [sp, #56]	; 0x38
20003a7e:	9818      	ldr	r0, [sp, #96]	; 0x60
20003a80:	2900      	cmp	r1, #0
20003a82:	bfda      	itte	le
20003a84:	9a0e      	ldrle	r2, [sp, #56]	; 0x38
20003a86:	f1c2 0302 	rsble	r3, r2, #2
20003a8a:	2301      	movgt	r3, #1
20003a8c:	181b      	adds	r3, r3, r0
20003a8e:	2167      	movs	r1, #103	; 0x67
20003a90:	ea23 72e3 	bic.w	r2, r3, r3, asr #31
20003a94:	930e      	str	r3, [sp, #56]	; 0x38
20003a96:	9114      	str	r1, [sp, #80]	; 0x50
20003a98:	920b      	str	r2, [sp, #44]	; 0x2c
20003a9a:	e66d      	b.n	20003778 <_svfprintf_r+0x10b8>
20003a9c:	9842      	ldr	r0, [sp, #264]	; 0x108
20003a9e:	2800      	cmp	r0, #0
20003aa0:	900e      	str	r0, [sp, #56]	; 0x38
20003aa2:	dd38      	ble.n	20003b16 <_svfprintf_r+0x1456>
20003aa4:	f1b8 0f00 	cmp.w	r8, #0
20003aa8:	d107      	bne.n	20003aba <_svfprintf_r+0x13fa>
20003aaa:	f01a 0f01 	tst.w	sl, #1
20003aae:	bf04      	itt	eq
20003ab0:	ea20 71e0 	biceq.w	r1, r0, r0, asr #31
20003ab4:	910b      	streq	r1, [sp, #44]	; 0x2c
20003ab6:	f43f ae5f 	beq.w	20003778 <_svfprintf_r+0x10b8>
20003aba:	9a0e      	ldr	r2, [sp, #56]	; 0x38
20003abc:	2066      	movs	r0, #102	; 0x66
20003abe:	9014      	str	r0, [sp, #80]	; 0x50
20003ac0:	1c53      	adds	r3, r2, #1
20003ac2:	4443      	add	r3, r8
20003ac4:	930e      	str	r3, [sp, #56]	; 0x38
20003ac6:	ea23 71e3 	bic.w	r1, r3, r3, asr #31
20003aca:	910b      	str	r1, [sp, #44]	; 0x2c
20003acc:	e654      	b.n	20003778 <_svfprintf_r+0x10b8>
20003ace:	9a0e      	ldr	r2, [sp, #56]	; 0x38
20003ad0:	2367      	movs	r3, #103	; 0x67
20003ad2:	9314      	str	r3, [sp, #80]	; 0x50
20003ad4:	3201      	adds	r2, #1
20003ad6:	920e      	str	r2, [sp, #56]	; 0x38
20003ad8:	ea22 70e2 	bic.w	r0, r2, r2, asr #31
20003adc:	900b      	str	r0, [sp, #44]	; 0x2c
20003ade:	e64b      	b.n	20003778 <_svfprintf_r+0x10b8>
20003ae0:	222d      	movs	r2, #45	; 0x2d
20003ae2:	425b      	negs	r3, r3
20003ae4:	f88d 20f9 	strb.w	r2, [sp, #249]	; 0xf9
20003ae8:	e62c      	b.n	20003744 <_svfprintf_r+0x1084>
20003aea:	990a      	ldr	r1, [sp, #40]	; 0x28
20003aec:	781a      	ldrb	r2, [r3, #0]
20003aee:	f8d1 8000 	ldr.w	r8, [r1]
20003af2:	3104      	adds	r1, #4
20003af4:	910a      	str	r1, [sp, #40]	; 0x28
20003af6:	f1b8 0f00 	cmp.w	r8, #0
20003afa:	bfb8      	it	lt
20003afc:	f04f 38ff 	movlt.w	r8, #4294967295
20003b00:	f7fe be47 	b.w	20002792 <_svfprintf_r+0xd2>
20003b04:	f01a 0f01 	tst.w	sl, #1
20003b08:	bf04      	itt	eq
20003b0a:	ea21 73e1 	biceq.w	r3, r1, r1, asr #31
20003b0e:	930b      	streq	r3, [sp, #44]	; 0x2c
20003b10:	f43f ae32 	beq.w	20003778 <_svfprintf_r+0x10b8>
20003b14:	e62a      	b.n	2000376c <_svfprintf_r+0x10ac>
20003b16:	f1b8 0f00 	cmp.w	r8, #0
20003b1a:	d10e      	bne.n	20003b3a <_svfprintf_r+0x147a>
20003b1c:	f01a 0f01 	tst.w	sl, #1
20003b20:	d10b      	bne.n	20003b3a <_svfprintf_r+0x147a>
20003b22:	2201      	movs	r2, #1
20003b24:	920b      	str	r2, [sp, #44]	; 0x2c
20003b26:	920e      	str	r2, [sp, #56]	; 0x38
20003b28:	e626      	b.n	20003778 <_svfprintf_r+0x10b8>
20003b2a:	9809      	ldr	r0, [sp, #36]	; 0x24
20003b2c:	230c      	movs	r3, #12
20003b2e:	f04f 31ff 	mov.w	r1, #4294967295
20003b32:	910d      	str	r1, [sp, #52]	; 0x34
20003b34:	6003      	str	r3, [r0, #0]
20003b36:	f7fe bf1a 	b.w	2000296e <_svfprintf_r+0x2ae>
20003b3a:	f108 0302 	add.w	r3, r8, #2
20003b3e:	2066      	movs	r0, #102	; 0x66
20003b40:	ea23 71e3 	bic.w	r1, r3, r3, asr #31
20003b44:	930e      	str	r3, [sp, #56]	; 0x38
20003b46:	9014      	str	r0, [sp, #80]	; 0x50
20003b48:	910b      	str	r1, [sp, #44]	; 0x2c
20003b4a:	e615      	b.n	20003778 <_svfprintf_r+0x10b8>
20003b4c:	0000      	lsls	r0, r0, #0
	...

20003b50 <quorem>:
20003b50:	e92d 4ff8 	stmdb	sp!, {r3, r4, r5, r6, r7, r8, r9, sl, fp, lr}
20003b54:	6903      	ldr	r3, [r0, #16]
20003b56:	690e      	ldr	r6, [r1, #16]
20003b58:	4682      	mov	sl, r0
20003b5a:	4689      	mov	r9, r1
20003b5c:	429e      	cmp	r6, r3
20003b5e:	f300 8083 	bgt.w	20003c68 <quorem+0x118>
20003b62:	1cf2      	adds	r2, r6, #3
20003b64:	f101 0514 	add.w	r5, r1, #20
20003b68:	f100 0414 	add.w	r4, r0, #20
20003b6c:	3e01      	subs	r6, #1
20003b6e:	0092      	lsls	r2, r2, #2
20003b70:	188b      	adds	r3, r1, r2
20003b72:	1812      	adds	r2, r2, r0
20003b74:	f103 0804 	add.w	r8, r3, #4
20003b78:	6859      	ldr	r1, [r3, #4]
20003b7a:	6850      	ldr	r0, [r2, #4]
20003b7c:	3101      	adds	r1, #1
20003b7e:	f002 fde7 	bl	20006750 <__aeabi_uidiv>
20003b82:	4607      	mov	r7, r0
20003b84:	2800      	cmp	r0, #0
20003b86:	d039      	beq.n	20003bfc <quorem+0xac>
20003b88:	2300      	movs	r3, #0
20003b8a:	469c      	mov	ip, r3
20003b8c:	461a      	mov	r2, r3
20003b8e:	58e9      	ldr	r1, [r5, r3]
20003b90:	58e0      	ldr	r0, [r4, r3]
20003b92:	fa1f fe81 	uxth.w	lr, r1
20003b96:	ea4f 4b11 	mov.w	fp, r1, lsr #16
20003b9a:	b281      	uxth	r1, r0
20003b9c:	fb0e ce07 	mla	lr, lr, r7, ip
20003ba0:	1851      	adds	r1, r2, r1
20003ba2:	fb0b fc07 	mul.w	ip, fp, r7
20003ba6:	eb0c 4c1e 	add.w	ip, ip, lr, lsr #16
20003baa:	fa1f fe8e 	uxth.w	lr, lr
20003bae:	ebce 0101 	rsb	r1, lr, r1
20003bb2:	fa1f f28c 	uxth.w	r2, ip
20003bb6:	ea4f 4c1c 	mov.w	ip, ip, lsr #16
20003bba:	ebc2 4210 	rsb	r2, r2, r0, lsr #16
20003bbe:	fa1f fe81 	uxth.w	lr, r1
20003bc2:	eb02 4221 	add.w	r2, r2, r1, asr #16
20003bc6:	ea4e 4102 	orr.w	r1, lr, r2, lsl #16
20003bca:	50e1      	str	r1, [r4, r3]
20003bcc:	3304      	adds	r3, #4
20003bce:	1412      	asrs	r2, r2, #16
20003bd0:	1959      	adds	r1, r3, r5
20003bd2:	4588      	cmp	r8, r1
20003bd4:	d2db      	bcs.n	20003b8e <quorem+0x3e>
20003bd6:	1d32      	adds	r2, r6, #4
20003bd8:	eb0a 0382 	add.w	r3, sl, r2, lsl #2
20003bdc:	6859      	ldr	r1, [r3, #4]
20003bde:	b969      	cbnz	r1, 20003bfc <quorem+0xac>
20003be0:	429c      	cmp	r4, r3
20003be2:	d209      	bcs.n	20003bf8 <quorem+0xa8>
20003be4:	f85a 2022 	ldr.w	r2, [sl, r2, lsl #2]
20003be8:	b112      	cbz	r2, 20003bf0 <quorem+0xa0>
20003bea:	e005      	b.n	20003bf8 <quorem+0xa8>
20003bec:	681a      	ldr	r2, [r3, #0]
20003bee:	b91a      	cbnz	r2, 20003bf8 <quorem+0xa8>
20003bf0:	3b04      	subs	r3, #4
20003bf2:	3e01      	subs	r6, #1
20003bf4:	429c      	cmp	r4, r3
20003bf6:	d3f9      	bcc.n	20003bec <quorem+0x9c>
20003bf8:	f8ca 6010 	str.w	r6, [sl, #16]
20003bfc:	4649      	mov	r1, r9
20003bfe:	4650      	mov	r0, sl
20003c00:	f001 fd86 	bl	20005710 <__mcmp>
20003c04:	2800      	cmp	r0, #0
20003c06:	db2c      	blt.n	20003c62 <quorem+0x112>
20003c08:	2300      	movs	r3, #0
20003c0a:	3701      	adds	r7, #1
20003c0c:	469c      	mov	ip, r3
20003c0e:	58ea      	ldr	r2, [r5, r3]
20003c10:	58e0      	ldr	r0, [r4, r3]
20003c12:	b291      	uxth	r1, r2
20003c14:	0c12      	lsrs	r2, r2, #16
20003c16:	fa1f f980 	uxth.w	r9, r0
20003c1a:	ebc2 4210 	rsb	r2, r2, r0, lsr #16
20003c1e:	ebc1 0109 	rsb	r1, r1, r9
20003c22:	4461      	add	r1, ip
20003c24:	eb02 4221 	add.w	r2, r2, r1, asr #16
20003c28:	b289      	uxth	r1, r1
20003c2a:	ea41 4102 	orr.w	r1, r1, r2, lsl #16
20003c2e:	50e1      	str	r1, [r4, r3]
20003c30:	3304      	adds	r3, #4
20003c32:	ea4f 4c22 	mov.w	ip, r2, asr #16
20003c36:	195a      	adds	r2, r3, r5
20003c38:	4590      	cmp	r8, r2
20003c3a:	d2e8      	bcs.n	20003c0e <quorem+0xbe>
20003c3c:	1d32      	adds	r2, r6, #4
20003c3e:	eb0a 0382 	add.w	r3, sl, r2, lsl #2
20003c42:	6859      	ldr	r1, [r3, #4]
20003c44:	b969      	cbnz	r1, 20003c62 <quorem+0x112>
20003c46:	429c      	cmp	r4, r3
20003c48:	d209      	bcs.n	20003c5e <quorem+0x10e>
20003c4a:	f85a 2022 	ldr.w	r2, [sl, r2, lsl #2]
20003c4e:	b112      	cbz	r2, 20003c56 <quorem+0x106>
20003c50:	e005      	b.n	20003c5e <quorem+0x10e>
20003c52:	681a      	ldr	r2, [r3, #0]
20003c54:	b91a      	cbnz	r2, 20003c5e <quorem+0x10e>
20003c56:	3b04      	subs	r3, #4
20003c58:	3e01      	subs	r6, #1
20003c5a:	429c      	cmp	r4, r3
20003c5c:	d3f9      	bcc.n	20003c52 <quorem+0x102>
20003c5e:	f8ca 6010 	str.w	r6, [sl, #16]
20003c62:	4638      	mov	r0, r7
20003c64:	e8bd 8ff8 	ldmia.w	sp!, {r3, r4, r5, r6, r7, r8, r9, sl, fp, pc}
20003c68:	2000      	movs	r0, #0
20003c6a:	e8bd 8ff8 	ldmia.w	sp!, {r3, r4, r5, r6, r7, r8, r9, sl, fp, pc}
20003c6e:	bf00      	nop

20003c70 <_dtoa_r>:
20003c70:	e92d 4ff0 	stmdb	sp!, {r4, r5, r6, r7, r8, r9, sl, fp, lr}
20003c74:	6a46      	ldr	r6, [r0, #36]	; 0x24
20003c76:	b0a1      	sub	sp, #132	; 0x84
20003c78:	4604      	mov	r4, r0
20003c7a:	4690      	mov	r8, r2
20003c7c:	4699      	mov	r9, r3
20003c7e:	9d2d      	ldr	r5, [sp, #180]	; 0xb4
20003c80:	2e00      	cmp	r6, #0
20003c82:	f000 8423 	beq.w	200044cc <_dtoa_r+0x85c>
20003c86:	6832      	ldr	r2, [r6, #0]
20003c88:	b182      	cbz	r2, 20003cac <_dtoa_r+0x3c>
20003c8a:	6a61      	ldr	r1, [r4, #36]	; 0x24
20003c8c:	f04f 0c01 	mov.w	ip, #1
20003c90:	6876      	ldr	r6, [r6, #4]
20003c92:	4620      	mov	r0, r4
20003c94:	680b      	ldr	r3, [r1, #0]
20003c96:	6056      	str	r6, [r2, #4]
20003c98:	684a      	ldr	r2, [r1, #4]
20003c9a:	4619      	mov	r1, r3
20003c9c:	fa0c f202 	lsl.w	r2, ip, r2
20003ca0:	609a      	str	r2, [r3, #8]
20003ca2:	f001 fe6f 	bl	20005984 <_Bfree>
20003ca6:	6a63      	ldr	r3, [r4, #36]	; 0x24
20003ca8:	2200      	movs	r2, #0
20003caa:	601a      	str	r2, [r3, #0]
20003cac:	f1b9 0600 	subs.w	r6, r9, #0
20003cb0:	db38      	blt.n	20003d24 <_dtoa_r+0xb4>
20003cb2:	2300      	movs	r3, #0
20003cb4:	602b      	str	r3, [r5, #0]
20003cb6:	f240 0300 	movw	r3, #0
20003cba:	f6c7 73f0 	movt	r3, #32752	; 0x7ff0
20003cbe:	461a      	mov	r2, r3
20003cc0:	ea06 0303 	and.w	r3, r6, r3
20003cc4:	4293      	cmp	r3, r2
20003cc6:	d017      	beq.n	20003cf8 <_dtoa_r+0x88>
20003cc8:	2200      	movs	r2, #0
20003cca:	2300      	movs	r3, #0
20003ccc:	4640      	mov	r0, r8
20003cce:	4649      	mov	r1, r9
20003cd0:	e9cd 8906 	strd	r8, r9, [sp, #24]
20003cd4:	f003 f8e2 	bl	20006e9c <__aeabi_dcmpeq>
20003cd8:	2800      	cmp	r0, #0
20003cda:	d029      	beq.n	20003d30 <_dtoa_r+0xc0>
20003cdc:	982c      	ldr	r0, [sp, #176]	; 0xb0
20003cde:	2301      	movs	r3, #1
20003ce0:	992e      	ldr	r1, [sp, #184]	; 0xb8
20003ce2:	6003      	str	r3, [r0, #0]
20003ce4:	2900      	cmp	r1, #0
20003ce6:	f000 80d0 	beq.w	20003e8a <_dtoa_r+0x21a>
20003cea:	4b79      	ldr	r3, [pc, #484]	; (20003ed0 <_dtoa_r+0x260>)
20003cec:	1e58      	subs	r0, r3, #1
20003cee:	9a2e      	ldr	r2, [sp, #184]	; 0xb8
20003cf0:	6013      	str	r3, [r2, #0]
20003cf2:	b021      	add	sp, #132	; 0x84
20003cf4:	e8bd 8ff0 	ldmia.w	sp!, {r4, r5, r6, r7, r8, r9, sl, fp, pc}
20003cf8:	982c      	ldr	r0, [sp, #176]	; 0xb0
20003cfa:	f242 730f 	movw	r3, #9999	; 0x270f
20003cfe:	6003      	str	r3, [r0, #0]
20003d00:	f1b8 0f00 	cmp.w	r8, #0
20003d04:	f000 8095 	beq.w	20003e32 <_dtoa_r+0x1c2>
20003d08:	f647 206c 	movw	r0, #31340	; 0x7a6c
20003d0c:	f2c2 0000 	movt	r0, #8192	; 0x2000
20003d10:	992e      	ldr	r1, [sp, #184]	; 0xb8
20003d12:	2900      	cmp	r1, #0
20003d14:	d0ed      	beq.n	20003cf2 <_dtoa_r+0x82>
20003d16:	78c2      	ldrb	r2, [r0, #3]
20003d18:	1cc3      	adds	r3, r0, #3
20003d1a:	2a00      	cmp	r2, #0
20003d1c:	d0e7      	beq.n	20003cee <_dtoa_r+0x7e>
20003d1e:	f100 0308 	add.w	r3, r0, #8
20003d22:	e7e4      	b.n	20003cee <_dtoa_r+0x7e>
20003d24:	f026 4600 	bic.w	r6, r6, #2147483648	; 0x80000000
20003d28:	2301      	movs	r3, #1
20003d2a:	46b1      	mov	r9, r6
20003d2c:	602b      	str	r3, [r5, #0]
20003d2e:	e7c2      	b.n	20003cb6 <_dtoa_r+0x46>
20003d30:	4620      	mov	r0, r4
20003d32:	e9dd 2306 	ldrd	r2, r3, [sp, #24]
20003d36:	a91e      	add	r1, sp, #120	; 0x78
20003d38:	9100      	str	r1, [sp, #0]
20003d3a:	a91f      	add	r1, sp, #124	; 0x7c
20003d3c:	9101      	str	r1, [sp, #4]
20003d3e:	f001 fe73 	bl	20005a28 <__d2b>
20003d42:	f3c6 550a 	ubfx	r5, r6, #20, #11
20003d46:	4683      	mov	fp, r0
20003d48:	2d00      	cmp	r5, #0
20003d4a:	d07e      	beq.n	20003e4a <_dtoa_r+0x1da>
20003d4c:	e9dd 0106 	ldrd	r0, r1, [sp, #24]
20003d50:	f5a5 757e 	sub.w	r5, r5, #1016	; 0x3f8
20003d54:	9f1f      	ldr	r7, [sp, #124]	; 0x7c
20003d56:	3d07      	subs	r5, #7
20003d58:	f021 437f 	bic.w	r3, r1, #4278190080	; 0xff000000
20003d5c:	f423 0370 	bic.w	r3, r3, #15728640	; 0xf00000
20003d60:	f043 517e 	orr.w	r1, r3, #1065353216	; 0x3f800000
20003d64:	2300      	movs	r3, #0
20003d66:	f441 01e0 	orr.w	r1, r1, #7340032	; 0x700000
20003d6a:	9319      	str	r3, [sp, #100]	; 0x64
20003d6c:	f240 0300 	movw	r3, #0
20003d70:	2200      	movs	r2, #0
20003d72:	f6c3 73f8 	movt	r3, #16376	; 0x3ff8
20003d76:	f7fd ff6d 	bl	20001c54 <__aeabi_dsub>
20003d7a:	a34f      	add	r3, pc, #316	; (adr r3, 20003eb8 <_dtoa_r+0x248>)
20003d7c:	e9d3 2300 	ldrd	r2, r3, [r3]
20003d80:	f002 fe24 	bl	200069cc <__aeabi_dmul>
20003d84:	a34e      	add	r3, pc, #312	; (adr r3, 20003ec0 <_dtoa_r+0x250>)
20003d86:	e9d3 2300 	ldrd	r2, r3, [r3]
20003d8a:	f7fd ff65 	bl	20001c58 <__adddf3>
20003d8e:	e9cd 0108 	strd	r0, r1, [sp, #32]
20003d92:	4628      	mov	r0, r5
20003d94:	f7fe f8ac 	bl	20001ef0 <__aeabi_i2d>
20003d98:	a34b      	add	r3, pc, #300	; (adr r3, 20003ec8 <_dtoa_r+0x258>)
20003d9a:	e9d3 2300 	ldrd	r2, r3, [r3]
20003d9e:	f002 fe15 	bl	200069cc <__aeabi_dmul>
20003da2:	4602      	mov	r2, r0
20003da4:	460b      	mov	r3, r1
20003da6:	e9dd 0108 	ldrd	r0, r1, [sp, #32]
20003daa:	f7fd ff55 	bl	20001c58 <__adddf3>
20003dae:	e9cd 0108 	strd	r0, r1, [sp, #32]
20003db2:	f003 f8a5 	bl	20006f00 <__aeabi_d2iz>
20003db6:	2200      	movs	r2, #0
20003db8:	2300      	movs	r3, #0
20003dba:	4606      	mov	r6, r0
20003dbc:	e9dd 0108 	ldrd	r0, r1, [sp, #32]
20003dc0:	f003 f876 	bl	20006eb0 <__aeabi_dcmplt>
20003dc4:	b140      	cbz	r0, 20003dd8 <_dtoa_r+0x168>
20003dc6:	4630      	mov	r0, r6
20003dc8:	f7fe f892 	bl	20001ef0 <__aeabi_i2d>
20003dcc:	e9dd 2308 	ldrd	r2, r3, [sp, #32]
20003dd0:	f003 f864 	bl	20006e9c <__aeabi_dcmpeq>
20003dd4:	b900      	cbnz	r0, 20003dd8 <_dtoa_r+0x168>
20003dd6:	3e01      	subs	r6, #1
20003dd8:	2e16      	cmp	r6, #22
20003dda:	d95b      	bls.n	20003e94 <_dtoa_r+0x224>
20003ddc:	2301      	movs	r3, #1
20003dde:	9318      	str	r3, [sp, #96]	; 0x60
20003de0:	3f01      	subs	r7, #1
20003de2:	ebb7 0a05 	subs.w	sl, r7, r5
20003de6:	bf42      	ittt	mi
20003de8:	f1ca 0a00 	rsbmi	sl, sl, #0
20003dec:	f8cd a03c 	strmi.w	sl, [sp, #60]	; 0x3c
20003df0:	f04f 0a00 	movmi.w	sl, #0
20003df4:	d401      	bmi.n	20003dfa <_dtoa_r+0x18a>
20003df6:	2200      	movs	r2, #0
20003df8:	920f      	str	r2, [sp, #60]	; 0x3c
20003dfa:	2e00      	cmp	r6, #0
20003dfc:	f2c0 8371 	blt.w	200044e2 <_dtoa_r+0x872>
20003e00:	44b2      	add	sl, r6
20003e02:	2300      	movs	r3, #0
20003e04:	9617      	str	r6, [sp, #92]	; 0x5c
20003e06:	9315      	str	r3, [sp, #84]	; 0x54
20003e08:	9b2a      	ldr	r3, [sp, #168]	; 0xa8
20003e0a:	2b09      	cmp	r3, #9
20003e0c:	d862      	bhi.n	20003ed4 <_dtoa_r+0x264>
20003e0e:	2b05      	cmp	r3, #5
20003e10:	f340 8677 	ble.w	20004b02 <_dtoa_r+0xe92>
20003e14:	982a      	ldr	r0, [sp, #168]	; 0xa8
20003e16:	2700      	movs	r7, #0
20003e18:	3804      	subs	r0, #4
20003e1a:	902a      	str	r0, [sp, #168]	; 0xa8
20003e1c:	992a      	ldr	r1, [sp, #168]	; 0xa8
20003e1e:	1e8b      	subs	r3, r1, #2
20003e20:	2b03      	cmp	r3, #3
20003e22:	f200 83dd 	bhi.w	200045e0 <_dtoa_r+0x970>
20003e26:	e8df f013 	tbh	[pc, r3, lsl #1]
20003e2a:	03a5      	.short	0x03a5
20003e2c:	03d503d8 	.word	0x03d503d8
20003e30:	03c4      	.short	0x03c4
20003e32:	f026 467f 	bic.w	r6, r6, #4278190080	; 0xff000000
20003e36:	f426 0670 	bic.w	r6, r6, #15728640	; 0xf00000
20003e3a:	2e00      	cmp	r6, #0
20003e3c:	f47f af64 	bne.w	20003d08 <_dtoa_r+0x98>
20003e40:	f647 2060 	movw	r0, #31328	; 0x7a60
20003e44:	f2c2 0000 	movt	r0, #8192	; 0x2000
20003e48:	e762      	b.n	20003d10 <_dtoa_r+0xa0>
20003e4a:	9f1f      	ldr	r7, [sp, #124]	; 0x7c
20003e4c:	9b1e      	ldr	r3, [sp, #120]	; 0x78
20003e4e:	18fb      	adds	r3, r7, r3
20003e50:	f503 6386 	add.w	r3, r3, #1072	; 0x430
20003e54:	1c9d      	adds	r5, r3, #2
20003e56:	2d20      	cmp	r5, #32
20003e58:	bfdc      	itt	le
20003e5a:	f1c5 0020 	rsble	r0, r5, #32
20003e5e:	fa08 f000 	lslle.w	r0, r8, r0
20003e62:	dd08      	ble.n	20003e76 <_dtoa_r+0x206>
20003e64:	3b1e      	subs	r3, #30
20003e66:	f1c5 0240 	rsb	r2, r5, #64	; 0x40
20003e6a:	fa16 f202 	lsls.w	r2, r6, r2
20003e6e:	fa28 f303 	lsr.w	r3, r8, r3
20003e72:	ea42 0003 	orr.w	r0, r2, r3
20003e76:	f7fe f82b 	bl	20001ed0 <__aeabi_ui2d>
20003e7a:	f5a5 6586 	sub.w	r5, r5, #1072	; 0x430
20003e7e:	2201      	movs	r2, #1
20003e80:	3d03      	subs	r5, #3
20003e82:	9219      	str	r2, [sp, #100]	; 0x64
20003e84:	f1a1 71f8 	sub.w	r1, r1, #32505856	; 0x1f00000
20003e88:	e770      	b.n	20003d6c <_dtoa_r+0xfc>
20003e8a:	f647 205c 	movw	r0, #31324	; 0x7a5c
20003e8e:	f2c2 0000 	movt	r0, #8192	; 0x2000
20003e92:	e72e      	b.n	20003cf2 <_dtoa_r+0x82>
20003e94:	f647 23b8 	movw	r3, #31416	; 0x7ab8
20003e98:	e9dd 0106 	ldrd	r0, r1, [sp, #24]
20003e9c:	f2c2 0300 	movt	r3, #8192	; 0x2000
20003ea0:	eb03 03c6 	add.w	r3, r3, r6, lsl #3
20003ea4:	e9d3 2300 	ldrd	r2, r3, [r3]
20003ea8:	f003 f802 	bl	20006eb0 <__aeabi_dcmplt>
20003eac:	2800      	cmp	r0, #0
20003eae:	f040 8320 	bne.w	200044f2 <_dtoa_r+0x882>
20003eb2:	9018      	str	r0, [sp, #96]	; 0x60
20003eb4:	e794      	b.n	20003de0 <_dtoa_r+0x170>
20003eb6:	bf00      	nop
20003eb8:	636f4361 	.word	0x636f4361
20003ebc:	3fd287a7 	.word	0x3fd287a7
20003ec0:	8b60c8b3 	.word	0x8b60c8b3
20003ec4:	3fc68a28 	.word	0x3fc68a28
20003ec8:	509f79fb 	.word	0x509f79fb
20003ecc:	3fd34413 	.word	0x3fd34413
20003ed0:	20007a5d 	.word	0x20007a5d
20003ed4:	2300      	movs	r3, #0
20003ed6:	f04f 30ff 	mov.w	r0, #4294967295
20003eda:	461f      	mov	r7, r3
20003edc:	2101      	movs	r1, #1
20003ede:	932a      	str	r3, [sp, #168]	; 0xa8
20003ee0:	9011      	str	r0, [sp, #68]	; 0x44
20003ee2:	9116      	str	r1, [sp, #88]	; 0x58
20003ee4:	9008      	str	r0, [sp, #32]
20003ee6:	932b      	str	r3, [sp, #172]	; 0xac
20003ee8:	6a65      	ldr	r5, [r4, #36]	; 0x24
20003eea:	2300      	movs	r3, #0
20003eec:	606b      	str	r3, [r5, #4]
20003eee:	4620      	mov	r0, r4
20003ef0:	6869      	ldr	r1, [r5, #4]
20003ef2:	f001 fd63 	bl	200059bc <_Balloc>
20003ef6:	6a63      	ldr	r3, [r4, #36]	; 0x24
20003ef8:	6028      	str	r0, [r5, #0]
20003efa:	681b      	ldr	r3, [r3, #0]
20003efc:	9310      	str	r3, [sp, #64]	; 0x40
20003efe:	2f00      	cmp	r7, #0
20003f00:	f000 815b 	beq.w	200041ba <_dtoa_r+0x54a>
20003f04:	2e00      	cmp	r6, #0
20003f06:	f340 842a 	ble.w	2000475e <_dtoa_r+0xaee>
20003f0a:	f647 23b8 	movw	r3, #31416	; 0x7ab8
20003f0e:	f006 020f 	and.w	r2, r6, #15
20003f12:	f2c2 0300 	movt	r3, #8192	; 0x2000
20003f16:	1135      	asrs	r5, r6, #4
20003f18:	eb03 03c2 	add.w	r3, r3, r2, lsl #3
20003f1c:	f015 0f10 	tst.w	r5, #16
20003f20:	e9d3 0100 	ldrd	r0, r1, [r3]
20003f24:	e9cd 010c 	strd	r0, r1, [sp, #48]	; 0x30
20003f28:	f000 82e7 	beq.w	200044fa <_dtoa_r+0x88a>
20003f2c:	f647 3390 	movw	r3, #31632	; 0x7b90
20003f30:	e9dd 0106 	ldrd	r0, r1, [sp, #24]
20003f34:	f2c2 0300 	movt	r3, #8192	; 0x2000
20003f38:	f005 050f 	and.w	r5, r5, #15
20003f3c:	f04f 0803 	mov.w	r8, #3
20003f40:	e9d3 2308 	ldrd	r2, r3, [r3, #32]
20003f44:	f002 fe6c 	bl	20006c20 <__aeabi_ddiv>
20003f48:	e9cd 0112 	strd	r0, r1, [sp, #72]	; 0x48
20003f4c:	b1bd      	cbz	r5, 20003f7e <_dtoa_r+0x30e>
20003f4e:	f647 3790 	movw	r7, #31632	; 0x7b90
20003f52:	e9dd 230c 	ldrd	r2, r3, [sp, #48]	; 0x30
20003f56:	f2c2 0700 	movt	r7, #8192	; 0x2000
20003f5a:	f015 0f01 	tst.w	r5, #1
20003f5e:	4610      	mov	r0, r2
20003f60:	4619      	mov	r1, r3
20003f62:	d007      	beq.n	20003f74 <_dtoa_r+0x304>
20003f64:	e9d7 2300 	ldrd	r2, r3, [r7]
20003f68:	f108 0801 	add.w	r8, r8, #1
20003f6c:	f002 fd2e 	bl	200069cc <__aeabi_dmul>
20003f70:	4602      	mov	r2, r0
20003f72:	460b      	mov	r3, r1
20003f74:	3708      	adds	r7, #8
20003f76:	106d      	asrs	r5, r5, #1
20003f78:	d1ef      	bne.n	20003f5a <_dtoa_r+0x2ea>
20003f7a:	e9cd 230c 	strd	r2, r3, [sp, #48]	; 0x30
20003f7e:	e9dd 230c 	ldrd	r2, r3, [sp, #48]	; 0x30
20003f82:	e9dd 0112 	ldrd	r0, r1, [sp, #72]	; 0x48
20003f86:	f002 fe4b 	bl	20006c20 <__aeabi_ddiv>
20003f8a:	e9cd 010c 	strd	r0, r1, [sp, #48]	; 0x30
20003f8e:	9918      	ldr	r1, [sp, #96]	; 0x60
20003f90:	2900      	cmp	r1, #0
20003f92:	f000 80de 	beq.w	20004152 <_dtoa_r+0x4e2>
20003f96:	f240 0300 	movw	r3, #0
20003f9a:	e9dd 010c 	ldrd	r0, r1, [sp, #48]	; 0x30
20003f9e:	2200      	movs	r2, #0
20003fa0:	f6c3 73f0 	movt	r3, #16368	; 0x3ff0
20003fa4:	f04f 0500 	mov.w	r5, #0
20003fa8:	f002 ff82 	bl	20006eb0 <__aeabi_dcmplt>
20003fac:	b108      	cbz	r0, 20003fb2 <_dtoa_r+0x342>
20003fae:	f04f 0501 	mov.w	r5, #1
20003fb2:	9a08      	ldr	r2, [sp, #32]
20003fb4:	2a00      	cmp	r2, #0
20003fb6:	bfd4      	ite	le
20003fb8:	2500      	movle	r5, #0
20003fba:	f005 0501 	andgt.w	r5, r5, #1
20003fbe:	2d00      	cmp	r5, #0
20003fc0:	f000 80c7 	beq.w	20004152 <_dtoa_r+0x4e2>
20003fc4:	9b11      	ldr	r3, [sp, #68]	; 0x44
20003fc6:	2b00      	cmp	r3, #0
20003fc8:	f340 80f5 	ble.w	200041b6 <_dtoa_r+0x546>
20003fcc:	f240 0300 	movw	r3, #0
20003fd0:	2200      	movs	r2, #0
20003fd2:	f2c4 0324 	movt	r3, #16420	; 0x4024
20003fd6:	e9dd 010c 	ldrd	r0, r1, [sp, #48]	; 0x30
20003fda:	f002 fcf7 	bl	200069cc <__aeabi_dmul>
20003fde:	e9cd 010c 	strd	r0, r1, [sp, #48]	; 0x30
20003fe2:	f108 0001 	add.w	r0, r8, #1
20003fe6:	1e71      	subs	r1, r6, #1
20003fe8:	9112      	str	r1, [sp, #72]	; 0x48
20003fea:	f7fd ff81 	bl	20001ef0 <__aeabi_i2d>
20003fee:	4602      	mov	r2, r0
20003ff0:	460b      	mov	r3, r1
20003ff2:	e9dd 010c 	ldrd	r0, r1, [sp, #48]	; 0x30
20003ff6:	f002 fce9 	bl	200069cc <__aeabi_dmul>
20003ffa:	f240 0300 	movw	r3, #0
20003ffe:	2200      	movs	r2, #0
20004000:	f2c4 031c 	movt	r3, #16412	; 0x401c
20004004:	f7fd fe28 	bl	20001c58 <__adddf3>
20004008:	f8dd c044 	ldr.w	ip, [sp, #68]	; 0x44
2000400c:	4680      	mov	r8, r0
2000400e:	f1a1 7950 	sub.w	r9, r1, #54525952	; 0x3400000
20004012:	9b16      	ldr	r3, [sp, #88]	; 0x58
20004014:	2b00      	cmp	r3, #0
20004016:	f000 83ad 	beq.w	20004774 <_dtoa_r+0xb04>
2000401a:	f647 23b8 	movw	r3, #31416	; 0x7ab8
2000401e:	f240 0100 	movw	r1, #0
20004022:	f2c2 0300 	movt	r3, #8192	; 0x2000
20004026:	2000      	movs	r0, #0
20004028:	eb03 03cc 	add.w	r3, r3, ip, lsl #3
2000402c:	f6c3 71e0 	movt	r1, #16352	; 0x3fe0
20004030:	f8cd c00c 	str.w	ip, [sp, #12]
20004034:	e953 2302 	ldrd	r2, r3, [r3, #-8]
20004038:	f002 fdf2 	bl	20006c20 <__aeabi_ddiv>
2000403c:	4642      	mov	r2, r8
2000403e:	464b      	mov	r3, r9
20004040:	9d10      	ldr	r5, [sp, #64]	; 0x40
20004042:	f7fd fe07 	bl	20001c54 <__aeabi_dsub>
20004046:	4680      	mov	r8, r0
20004048:	4689      	mov	r9, r1
2000404a:	e9dd 010c 	ldrd	r0, r1, [sp, #48]	; 0x30
2000404e:	f002 ff57 	bl	20006f00 <__aeabi_d2iz>
20004052:	4607      	mov	r7, r0
20004054:	f7fd ff4c 	bl	20001ef0 <__aeabi_i2d>
20004058:	4602      	mov	r2, r0
2000405a:	460b      	mov	r3, r1
2000405c:	e9dd 010c 	ldrd	r0, r1, [sp, #48]	; 0x30
20004060:	f7fd fdf8 	bl	20001c54 <__aeabi_dsub>
20004064:	f107 0330 	add.w	r3, r7, #48	; 0x30
20004068:	e9cd 010c 	strd	r0, r1, [sp, #48]	; 0x30
2000406c:	4640      	mov	r0, r8
2000406e:	f805 3b01 	strb.w	r3, [r5], #1
20004072:	4649      	mov	r1, r9
20004074:	e9dd 230c 	ldrd	r2, r3, [sp, #48]	; 0x30
20004078:	f002 ff38 	bl	20006eec <__aeabi_dcmpgt>
2000407c:	2800      	cmp	r0, #0
2000407e:	f040 8213 	bne.w	200044a8 <_dtoa_r+0x838>
20004082:	f240 0100 	movw	r1, #0
20004086:	e9dd 230c 	ldrd	r2, r3, [sp, #48]	; 0x30
2000408a:	2000      	movs	r0, #0
2000408c:	f6c3 71f0 	movt	r1, #16368	; 0x3ff0
20004090:	f7fd fde0 	bl	20001c54 <__aeabi_dsub>
20004094:	4602      	mov	r2, r0
20004096:	460b      	mov	r3, r1
20004098:	4640      	mov	r0, r8
2000409a:	4649      	mov	r1, r9
2000409c:	f002 ff26 	bl	20006eec <__aeabi_dcmpgt>
200040a0:	f8dd c00c 	ldr.w	ip, [sp, #12]
200040a4:	2800      	cmp	r0, #0
200040a6:	f040 83e7 	bne.w	20004878 <_dtoa_r+0xc08>
200040aa:	f1bc 0f01 	cmp.w	ip, #1
200040ae:	f340 8082 	ble.w	200041b6 <_dtoa_r+0x546>
200040b2:	f8cd b068 	str.w	fp, [sp, #104]	; 0x68
200040b6:	2701      	movs	r7, #1
200040b8:	f8cd a070 	str.w	sl, [sp, #112]	; 0x70
200040bc:	961d      	str	r6, [sp, #116]	; 0x74
200040be:	4666      	mov	r6, ip
200040c0:	e9dd ab0c 	ldrd	sl, fp, [sp, #48]	; 0x30
200040c4:	940c      	str	r4, [sp, #48]	; 0x30
200040c6:	e010      	b.n	200040ea <_dtoa_r+0x47a>
200040c8:	f240 0100 	movw	r1, #0
200040cc:	2000      	movs	r0, #0
200040ce:	f6c3 71f0 	movt	r1, #16368	; 0x3ff0
200040d2:	f7fd fdbf 	bl	20001c54 <__aeabi_dsub>
200040d6:	4642      	mov	r2, r8
200040d8:	464b      	mov	r3, r9
200040da:	f002 fee9 	bl	20006eb0 <__aeabi_dcmplt>
200040de:	2800      	cmp	r0, #0
200040e0:	f040 83c7 	bne.w	20004872 <_dtoa_r+0xc02>
200040e4:	42b7      	cmp	r7, r6
200040e6:	f280 848b 	bge.w	20004a00 <_dtoa_r+0xd90>
200040ea:	f240 0300 	movw	r3, #0
200040ee:	4640      	mov	r0, r8
200040f0:	4649      	mov	r1, r9
200040f2:	2200      	movs	r2, #0
200040f4:	f2c4 0324 	movt	r3, #16420	; 0x4024
200040f8:	3501      	adds	r5, #1
200040fa:	f002 fc67 	bl	200069cc <__aeabi_dmul>
200040fe:	f240 0300 	movw	r3, #0
20004102:	2200      	movs	r2, #0
20004104:	f2c4 0324 	movt	r3, #16420	; 0x4024
20004108:	4680      	mov	r8, r0
2000410a:	4689      	mov	r9, r1
2000410c:	4650      	mov	r0, sl
2000410e:	4659      	mov	r1, fp
20004110:	f002 fc5c 	bl	200069cc <__aeabi_dmul>
20004114:	468b      	mov	fp, r1
20004116:	4682      	mov	sl, r0
20004118:	f002 fef2 	bl	20006f00 <__aeabi_d2iz>
2000411c:	4604      	mov	r4, r0
2000411e:	f7fd fee7 	bl	20001ef0 <__aeabi_i2d>
20004122:	3430      	adds	r4, #48	; 0x30
20004124:	4602      	mov	r2, r0
20004126:	460b      	mov	r3, r1
20004128:	4650      	mov	r0, sl
2000412a:	4659      	mov	r1, fp
2000412c:	f7fd fd92 	bl	20001c54 <__aeabi_dsub>
20004130:	9a10      	ldr	r2, [sp, #64]	; 0x40
20004132:	464b      	mov	r3, r9
20004134:	55d4      	strb	r4, [r2, r7]
20004136:	4642      	mov	r2, r8
20004138:	3701      	adds	r7, #1
2000413a:	4682      	mov	sl, r0
2000413c:	468b      	mov	fp, r1
2000413e:	f002 feb7 	bl	20006eb0 <__aeabi_dcmplt>
20004142:	4652      	mov	r2, sl
20004144:	465b      	mov	r3, fp
20004146:	2800      	cmp	r0, #0
20004148:	d0be      	beq.n	200040c8 <_dtoa_r+0x458>
2000414a:	f8dd b068 	ldr.w	fp, [sp, #104]	; 0x68
2000414e:	9c0c      	ldr	r4, [sp, #48]	; 0x30
20004150:	e1aa      	b.n	200044a8 <_dtoa_r+0x838>
20004152:	4640      	mov	r0, r8
20004154:	f7fd fecc 	bl	20001ef0 <__aeabi_i2d>
20004158:	e9dd 230c 	ldrd	r2, r3, [sp, #48]	; 0x30
2000415c:	f002 fc36 	bl	200069cc <__aeabi_dmul>
20004160:	f240 0300 	movw	r3, #0
20004164:	2200      	movs	r2, #0
20004166:	f2c4 031c 	movt	r3, #16412	; 0x401c
2000416a:	f7fd fd75 	bl	20001c58 <__adddf3>
2000416e:	9a08      	ldr	r2, [sp, #32]
20004170:	f1a1 7550 	sub.w	r5, r1, #54525952	; 0x3400000
20004174:	4680      	mov	r8, r0
20004176:	46a9      	mov	r9, r5
20004178:	2a00      	cmp	r2, #0
2000417a:	f040 82ec 	bne.w	20004756 <_dtoa_r+0xae6>
2000417e:	f240 0300 	movw	r3, #0
20004182:	e9dd 010c 	ldrd	r0, r1, [sp, #48]	; 0x30
20004186:	2200      	movs	r2, #0
20004188:	f2c4 0314 	movt	r3, #16404	; 0x4014
2000418c:	f7fd fd62 	bl	20001c54 <__aeabi_dsub>
20004190:	4642      	mov	r2, r8
20004192:	462b      	mov	r3, r5
20004194:	e9cd 010c 	strd	r0, r1, [sp, #48]	; 0x30
20004198:	f002 fea8 	bl	20006eec <__aeabi_dcmpgt>
2000419c:	2800      	cmp	r0, #0
2000419e:	f040 824a 	bne.w	20004636 <_dtoa_r+0x9c6>
200041a2:	4642      	mov	r2, r8
200041a4:	e9dd 010c 	ldrd	r0, r1, [sp, #48]	; 0x30
200041a8:	f105 4300 	add.w	r3, r5, #2147483648	; 0x80000000
200041ac:	f002 fe80 	bl	20006eb0 <__aeabi_dcmplt>
200041b0:	2800      	cmp	r0, #0
200041b2:	f040 81d5 	bne.w	20004560 <_dtoa_r+0x8f0>
200041b6:	e9dd 8906 	ldrd	r8, r9, [sp, #24]
200041ba:	9b1e      	ldr	r3, [sp, #120]	; 0x78
200041bc:	ea6f 0703 	mvn.w	r7, r3
200041c0:	ea4f 77d7 	mov.w	r7, r7, lsr #31
200041c4:	2e0e      	cmp	r6, #14
200041c6:	bfcc      	ite	gt
200041c8:	2700      	movgt	r7, #0
200041ca:	f007 0701 	andle.w	r7, r7, #1
200041ce:	2f00      	cmp	r7, #0
200041d0:	f000 80b7 	beq.w	20004342 <_dtoa_r+0x6d2>
200041d4:	982b      	ldr	r0, [sp, #172]	; 0xac
200041d6:	f647 23b8 	movw	r3, #31416	; 0x7ab8
200041da:	f2c2 0300 	movt	r3, #8192	; 0x2000
200041de:	9908      	ldr	r1, [sp, #32]
200041e0:	eb03 03c6 	add.w	r3, r3, r6, lsl #3
200041e4:	0fc2      	lsrs	r2, r0, #31
200041e6:	2900      	cmp	r1, #0
200041e8:	bfcc      	ite	gt
200041ea:	2200      	movgt	r2, #0
200041ec:	f002 0201 	andle.w	r2, r2, #1
200041f0:	e9d3 0100 	ldrd	r0, r1, [r3]
200041f4:	e9cd 0104 	strd	r0, r1, [sp, #16]
200041f8:	2a00      	cmp	r2, #0
200041fa:	f040 81a0 	bne.w	2000453e <_dtoa_r+0x8ce>
200041fe:	4602      	mov	r2, r0
20004200:	460b      	mov	r3, r1
20004202:	4640      	mov	r0, r8
20004204:	4649      	mov	r1, r9
20004206:	f002 fd0b 	bl	20006c20 <__aeabi_ddiv>
2000420a:	9d10      	ldr	r5, [sp, #64]	; 0x40
2000420c:	f002 fe78 	bl	20006f00 <__aeabi_d2iz>
20004210:	4682      	mov	sl, r0
20004212:	f7fd fe6d 	bl	20001ef0 <__aeabi_i2d>
20004216:	e9dd 2304 	ldrd	r2, r3, [sp, #16]
2000421a:	f002 fbd7 	bl	200069cc <__aeabi_dmul>
2000421e:	4602      	mov	r2, r0
20004220:	460b      	mov	r3, r1
20004222:	4640      	mov	r0, r8
20004224:	4649      	mov	r1, r9
20004226:	f7fd fd15 	bl	20001c54 <__aeabi_dsub>
2000422a:	f10a 0330 	add.w	r3, sl, #48	; 0x30
2000422e:	f805 3b01 	strb.w	r3, [r5], #1
20004232:	9a08      	ldr	r2, [sp, #32]
20004234:	2a01      	cmp	r2, #1
20004236:	4680      	mov	r8, r0
20004238:	4689      	mov	r9, r1
2000423a:	d052      	beq.n	200042e2 <_dtoa_r+0x672>
2000423c:	f240 0300 	movw	r3, #0
20004240:	2200      	movs	r2, #0
20004242:	f2c4 0324 	movt	r3, #16420	; 0x4024
20004246:	f002 fbc1 	bl	200069cc <__aeabi_dmul>
2000424a:	2200      	movs	r2, #0
2000424c:	2300      	movs	r3, #0
2000424e:	e9cd 0106 	strd	r0, r1, [sp, #24]
20004252:	f002 fe23 	bl	20006e9c <__aeabi_dcmpeq>
20004256:	2800      	cmp	r0, #0
20004258:	f040 81eb 	bne.w	20004632 <_dtoa_r+0x9c2>
2000425c:	9810      	ldr	r0, [sp, #64]	; 0x40
2000425e:	f04f 0801 	mov.w	r8, #1
20004262:	f8cd b02c 	str.w	fp, [sp, #44]	; 0x2c
20004266:	46a3      	mov	fp, r4
20004268:	1c87      	adds	r7, r0, #2
2000426a:	960f      	str	r6, [sp, #60]	; 0x3c
2000426c:	f8dd 9020 	ldr.w	r9, [sp, #32]
20004270:	e9dd 4506 	ldrd	r4, r5, [sp, #24]
20004274:	e00a      	b.n	2000428c <_dtoa_r+0x61c>
20004276:	f002 fba9 	bl	200069cc <__aeabi_dmul>
2000427a:	2200      	movs	r2, #0
2000427c:	2300      	movs	r3, #0
2000427e:	4604      	mov	r4, r0
20004280:	460d      	mov	r5, r1
20004282:	f002 fe0b 	bl	20006e9c <__aeabi_dcmpeq>
20004286:	2800      	cmp	r0, #0
20004288:	f040 81ce 	bne.w	20004628 <_dtoa_r+0x9b8>
2000428c:	e9dd 2304 	ldrd	r2, r3, [sp, #16]
20004290:	4620      	mov	r0, r4
20004292:	4629      	mov	r1, r5
20004294:	f108 0801 	add.w	r8, r8, #1
20004298:	f002 fcc2 	bl	20006c20 <__aeabi_ddiv>
2000429c:	463e      	mov	r6, r7
2000429e:	f002 fe2f 	bl	20006f00 <__aeabi_d2iz>
200042a2:	4682      	mov	sl, r0
200042a4:	f7fd fe24 	bl	20001ef0 <__aeabi_i2d>
200042a8:	e9dd 2304 	ldrd	r2, r3, [sp, #16]
200042ac:	f002 fb8e 	bl	200069cc <__aeabi_dmul>
200042b0:	4602      	mov	r2, r0
200042b2:	460b      	mov	r3, r1
200042b4:	4620      	mov	r0, r4
200042b6:	4629      	mov	r1, r5
200042b8:	f7fd fccc 	bl	20001c54 <__aeabi_dsub>
200042bc:	2200      	movs	r2, #0
200042be:	f10a 0c30 	add.w	ip, sl, #48	; 0x30
200042c2:	f807 cc01 	strb.w	ip, [r7, #-1]
200042c6:	3701      	adds	r7, #1
200042c8:	45c1      	cmp	r9, r8
200042ca:	f240 0300 	movw	r3, #0
200042ce:	f2c4 0324 	movt	r3, #16420	; 0x4024
200042d2:	d1d0      	bne.n	20004276 <_dtoa_r+0x606>
200042d4:	4635      	mov	r5, r6
200042d6:	465c      	mov	r4, fp
200042d8:	9e0f      	ldr	r6, [sp, #60]	; 0x3c
200042da:	4680      	mov	r8, r0
200042dc:	f8dd b02c 	ldr.w	fp, [sp, #44]	; 0x2c
200042e0:	4689      	mov	r9, r1
200042e2:	4642      	mov	r2, r8
200042e4:	464b      	mov	r3, r9
200042e6:	4640      	mov	r0, r8
200042e8:	4649      	mov	r1, r9
200042ea:	f7fd fcb5 	bl	20001c58 <__adddf3>
200042ee:	4680      	mov	r8, r0
200042f0:	4689      	mov	r9, r1
200042f2:	4642      	mov	r2, r8
200042f4:	e9dd 0104 	ldrd	r0, r1, [sp, #16]
200042f8:	464b      	mov	r3, r9
200042fa:	f002 fdd9 	bl	20006eb0 <__aeabi_dcmplt>
200042fe:	b960      	cbnz	r0, 2000431a <_dtoa_r+0x6aa>
20004300:	e9dd 0104 	ldrd	r0, r1, [sp, #16]
20004304:	4642      	mov	r2, r8
20004306:	464b      	mov	r3, r9
20004308:	f002 fdc8 	bl	20006e9c <__aeabi_dcmpeq>
2000430c:	2800      	cmp	r0, #0
2000430e:	f000 8190 	beq.w	20004632 <_dtoa_r+0x9c2>
20004312:	f01a 0f01 	tst.w	sl, #1
20004316:	f000 818c 	beq.w	20004632 <_dtoa_r+0x9c2>
2000431a:	9910      	ldr	r1, [sp, #64]	; 0x40
2000431c:	e000      	b.n	20004320 <_dtoa_r+0x6b0>
2000431e:	461d      	mov	r5, r3
20004320:	f815 2c01 	ldrb.w	r2, [r5, #-1]
20004324:	1e6b      	subs	r3, r5, #1
20004326:	2a39      	cmp	r2, #57	; 0x39
20004328:	f040 8367 	bne.w	200049fa <_dtoa_r+0xd8a>
2000432c:	428b      	cmp	r3, r1
2000432e:	d1f6      	bne.n	2000431e <_dtoa_r+0x6ae>
20004330:	9910      	ldr	r1, [sp, #64]	; 0x40
20004332:	2330      	movs	r3, #48	; 0x30
20004334:	3601      	adds	r6, #1
20004336:	2231      	movs	r2, #49	; 0x31
20004338:	700b      	strb	r3, [r1, #0]
2000433a:	9b10      	ldr	r3, [sp, #64]	; 0x40
2000433c:	701a      	strb	r2, [r3, #0]
2000433e:	9612      	str	r6, [sp, #72]	; 0x48
20004340:	e0b2      	b.n	200044a8 <_dtoa_r+0x838>
20004342:	9a16      	ldr	r2, [sp, #88]	; 0x58
20004344:	2a00      	cmp	r2, #0
20004346:	f040 80df 	bne.w	20004508 <_dtoa_r+0x898>
2000434a:	9f15      	ldr	r7, [sp, #84]	; 0x54
2000434c:	9d0f      	ldr	r5, [sp, #60]	; 0x3c
2000434e:	920c      	str	r2, [sp, #48]	; 0x30
20004350:	2d00      	cmp	r5, #0
20004352:	bfd4      	ite	le
20004354:	2300      	movle	r3, #0
20004356:	2301      	movgt	r3, #1
20004358:	f1ba 0f00 	cmp.w	sl, #0
2000435c:	bfd4      	ite	le
2000435e:	2300      	movle	r3, #0
20004360:	f003 0301 	andgt.w	r3, r3, #1
20004364:	b14b      	cbz	r3, 2000437a <_dtoa_r+0x70a>
20004366:	45aa      	cmp	sl, r5
20004368:	bfb4      	ite	lt
2000436a:	4653      	movlt	r3, sl
2000436c:	462b      	movge	r3, r5
2000436e:	980f      	ldr	r0, [sp, #60]	; 0x3c
20004370:	ebc3 0a0a 	rsb	sl, r3, sl
20004374:	1aed      	subs	r5, r5, r3
20004376:	1ac0      	subs	r0, r0, r3
20004378:	900f      	str	r0, [sp, #60]	; 0x3c
2000437a:	9915      	ldr	r1, [sp, #84]	; 0x54
2000437c:	2900      	cmp	r1, #0
2000437e:	dd1c      	ble.n	200043ba <_dtoa_r+0x74a>
20004380:	9a16      	ldr	r2, [sp, #88]	; 0x58
20004382:	2a00      	cmp	r2, #0
20004384:	f000 82e9 	beq.w	2000495a <_dtoa_r+0xcea>
20004388:	2f00      	cmp	r7, #0
2000438a:	dd12      	ble.n	200043b2 <_dtoa_r+0x742>
2000438c:	990c      	ldr	r1, [sp, #48]	; 0x30
2000438e:	463a      	mov	r2, r7
20004390:	4620      	mov	r0, r4
20004392:	f001 fd73 	bl	20005e7c <__pow5mult>
20004396:	465a      	mov	r2, fp
20004398:	900c      	str	r0, [sp, #48]	; 0x30
2000439a:	4620      	mov	r0, r4
2000439c:	990c      	ldr	r1, [sp, #48]	; 0x30
2000439e:	f001 fc85 	bl	20005cac <__multiply>
200043a2:	4659      	mov	r1, fp
200043a4:	4603      	mov	r3, r0
200043a6:	4620      	mov	r0, r4
200043a8:	9303      	str	r3, [sp, #12]
200043aa:	f001 faeb 	bl	20005984 <_Bfree>
200043ae:	9b03      	ldr	r3, [sp, #12]
200043b0:	469b      	mov	fp, r3
200043b2:	9b15      	ldr	r3, [sp, #84]	; 0x54
200043b4:	1bda      	subs	r2, r3, r7
200043b6:	f040 8311 	bne.w	200049dc <_dtoa_r+0xd6c>
200043ba:	2101      	movs	r1, #1
200043bc:	4620      	mov	r0, r4
200043be:	f001 fd0f 	bl	20005de0 <__i2b>
200043c2:	9006      	str	r0, [sp, #24]
200043c4:	9817      	ldr	r0, [sp, #92]	; 0x5c
200043c6:	2800      	cmp	r0, #0
200043c8:	dd05      	ble.n	200043d6 <_dtoa_r+0x766>
200043ca:	9906      	ldr	r1, [sp, #24]
200043cc:	4620      	mov	r0, r4
200043ce:	9a17      	ldr	r2, [sp, #92]	; 0x5c
200043d0:	f001 fd54 	bl	20005e7c <__pow5mult>
200043d4:	9006      	str	r0, [sp, #24]
200043d6:	992a      	ldr	r1, [sp, #168]	; 0xa8
200043d8:	2901      	cmp	r1, #1
200043da:	f340 810a 	ble.w	200045f2 <_dtoa_r+0x982>
200043de:	2700      	movs	r7, #0
200043e0:	9b17      	ldr	r3, [sp, #92]	; 0x5c
200043e2:	2b00      	cmp	r3, #0
200043e4:	f040 8261 	bne.w	200048aa <_dtoa_r+0xc3a>
200043e8:	2301      	movs	r3, #1
200043ea:	4453      	add	r3, sl
200043ec:	f013 031f 	ands.w	r3, r3, #31
200043f0:	f040 812a 	bne.w	20004648 <_dtoa_r+0x9d8>
200043f4:	231c      	movs	r3, #28
200043f6:	9a0f      	ldr	r2, [sp, #60]	; 0x3c
200043f8:	449a      	add	sl, r3
200043fa:	18ed      	adds	r5, r5, r3
200043fc:	18d2      	adds	r2, r2, r3
200043fe:	920f      	str	r2, [sp, #60]	; 0x3c
20004400:	9b0f      	ldr	r3, [sp, #60]	; 0x3c
20004402:	2b00      	cmp	r3, #0
20004404:	dd05      	ble.n	20004412 <_dtoa_r+0x7a2>
20004406:	4659      	mov	r1, fp
20004408:	461a      	mov	r2, r3
2000440a:	4620      	mov	r0, r4
2000440c:	f001 fbf0 	bl	20005bf0 <__lshift>
20004410:	4683      	mov	fp, r0
20004412:	f1ba 0f00 	cmp.w	sl, #0
20004416:	dd05      	ble.n	20004424 <_dtoa_r+0x7b4>
20004418:	9906      	ldr	r1, [sp, #24]
2000441a:	4652      	mov	r2, sl
2000441c:	4620      	mov	r0, r4
2000441e:	f001 fbe7 	bl	20005bf0 <__lshift>
20004422:	9006      	str	r0, [sp, #24]
20004424:	9818      	ldr	r0, [sp, #96]	; 0x60
20004426:	2800      	cmp	r0, #0
20004428:	f040 8229 	bne.w	2000487e <_dtoa_r+0xc0e>
2000442c:	982a      	ldr	r0, [sp, #168]	; 0xa8
2000442e:	9908      	ldr	r1, [sp, #32]
20004430:	2802      	cmp	r0, #2
20004432:	bfd4      	ite	le
20004434:	2300      	movle	r3, #0
20004436:	2301      	movgt	r3, #1
20004438:	2900      	cmp	r1, #0
2000443a:	bfcc      	ite	gt
2000443c:	2300      	movgt	r3, #0
2000443e:	f003 0301 	andle.w	r3, r3, #1
20004442:	2b00      	cmp	r3, #0
20004444:	f000 810c 	beq.w	20004660 <_dtoa_r+0x9f0>
20004448:	2900      	cmp	r1, #0
2000444a:	f040 808c 	bne.w	20004566 <_dtoa_r+0x8f6>
2000444e:	2205      	movs	r2, #5
20004450:	9906      	ldr	r1, [sp, #24]
20004452:	9b08      	ldr	r3, [sp, #32]
20004454:	4620      	mov	r0, r4
20004456:	f001 fccd 	bl	20005df4 <__multadd>
2000445a:	9006      	str	r0, [sp, #24]
2000445c:	4658      	mov	r0, fp
2000445e:	9906      	ldr	r1, [sp, #24]
20004460:	f001 f956 	bl	20005710 <__mcmp>
20004464:	2800      	cmp	r0, #0
20004466:	dd7e      	ble.n	20004566 <_dtoa_r+0x8f6>
20004468:	9d10      	ldr	r5, [sp, #64]	; 0x40
2000446a:	3601      	adds	r6, #1
2000446c:	2700      	movs	r7, #0
2000446e:	f8dd a030 	ldr.w	sl, [sp, #48]	; 0x30
20004472:	2331      	movs	r3, #49	; 0x31
20004474:	f805 3b01 	strb.w	r3, [r5], #1
20004478:	9906      	ldr	r1, [sp, #24]
2000447a:	4620      	mov	r0, r4
2000447c:	f001 fa82 	bl	20005984 <_Bfree>
20004480:	f1ba 0f00 	cmp.w	sl, #0
20004484:	f000 80d5 	beq.w	20004632 <_dtoa_r+0x9c2>
20004488:	1e3b      	subs	r3, r7, #0
2000448a:	bf18      	it	ne
2000448c:	2301      	movne	r3, #1
2000448e:	4557      	cmp	r7, sl
20004490:	bf0c      	ite	eq
20004492:	2300      	moveq	r3, #0
20004494:	f003 0301 	andne.w	r3, r3, #1
20004498:	2b00      	cmp	r3, #0
2000449a:	f040 80d0 	bne.w	2000463e <_dtoa_r+0x9ce>
2000449e:	4651      	mov	r1, sl
200044a0:	4620      	mov	r0, r4
200044a2:	f001 fa6f 	bl	20005984 <_Bfree>
200044a6:	9612      	str	r6, [sp, #72]	; 0x48
200044a8:	4620      	mov	r0, r4
200044aa:	4659      	mov	r1, fp
200044ac:	f001 fa6a 	bl	20005984 <_Bfree>
200044b0:	9a12      	ldr	r2, [sp, #72]	; 0x48
200044b2:	1c53      	adds	r3, r2, #1
200044b4:	2200      	movs	r2, #0
200044b6:	702a      	strb	r2, [r5, #0]
200044b8:	982c      	ldr	r0, [sp, #176]	; 0xb0
200044ba:	992e      	ldr	r1, [sp, #184]	; 0xb8
200044bc:	6003      	str	r3, [r0, #0]
200044be:	2900      	cmp	r1, #0
200044c0:	f000 81d4 	beq.w	2000486c <_dtoa_r+0xbfc>
200044c4:	9a2e      	ldr	r2, [sp, #184]	; 0xb8
200044c6:	9810      	ldr	r0, [sp, #64]	; 0x40
200044c8:	6015      	str	r5, [r2, #0]
200044ca:	e412      	b.n	20003cf2 <_dtoa_r+0x82>
200044cc:	2010      	movs	r0, #16
200044ce:	f000 fc91 	bl	20004df4 <malloc>
200044d2:	60c6      	str	r6, [r0, #12]
200044d4:	6046      	str	r6, [r0, #4]
200044d6:	6086      	str	r6, [r0, #8]
200044d8:	6006      	str	r6, [r0, #0]
200044da:	4606      	mov	r6, r0
200044dc:	6260      	str	r0, [r4, #36]	; 0x24
200044de:	f7ff bbd2 	b.w	20003c86 <_dtoa_r+0x16>
200044e2:	980f      	ldr	r0, [sp, #60]	; 0x3c
200044e4:	4271      	negs	r1, r6
200044e6:	2200      	movs	r2, #0
200044e8:	9115      	str	r1, [sp, #84]	; 0x54
200044ea:	1b80      	subs	r0, r0, r6
200044ec:	9217      	str	r2, [sp, #92]	; 0x5c
200044ee:	900f      	str	r0, [sp, #60]	; 0x3c
200044f0:	e48a      	b.n	20003e08 <_dtoa_r+0x198>
200044f2:	2100      	movs	r1, #0
200044f4:	3e01      	subs	r6, #1
200044f6:	9118      	str	r1, [sp, #96]	; 0x60
200044f8:	e472      	b.n	20003de0 <_dtoa_r+0x170>
200044fa:	e9dd 2306 	ldrd	r2, r3, [sp, #24]
200044fe:	f04f 0802 	mov.w	r8, #2
20004502:	e9cd 2312 	strd	r2, r3, [sp, #72]	; 0x48
20004506:	e521      	b.n	20003f4c <_dtoa_r+0x2dc>
20004508:	982a      	ldr	r0, [sp, #168]	; 0xa8
2000450a:	2801      	cmp	r0, #1
2000450c:	f340 826c 	ble.w	200049e8 <_dtoa_r+0xd78>
20004510:	9a08      	ldr	r2, [sp, #32]
20004512:	9815      	ldr	r0, [sp, #84]	; 0x54
20004514:	1e53      	subs	r3, r2, #1
20004516:	4298      	cmp	r0, r3
20004518:	f2c0 8258 	blt.w	200049cc <_dtoa_r+0xd5c>
2000451c:	1ac7      	subs	r7, r0, r3
2000451e:	9b08      	ldr	r3, [sp, #32]
20004520:	2b00      	cmp	r3, #0
20004522:	bfa8      	it	ge
20004524:	9d0f      	ldrge	r5, [sp, #60]	; 0x3c
20004526:	f2c0 8273 	blt.w	20004a10 <_dtoa_r+0xda0>
2000452a:	9a0f      	ldr	r2, [sp, #60]	; 0x3c
2000452c:	4620      	mov	r0, r4
2000452e:	2101      	movs	r1, #1
20004530:	449a      	add	sl, r3
20004532:	18d2      	adds	r2, r2, r3
20004534:	920f      	str	r2, [sp, #60]	; 0x3c
20004536:	f001 fc53 	bl	20005de0 <__i2b>
2000453a:	900c      	str	r0, [sp, #48]	; 0x30
2000453c:	e708      	b.n	20004350 <_dtoa_r+0x6e0>
2000453e:	9b08      	ldr	r3, [sp, #32]
20004540:	b973      	cbnz	r3, 20004560 <_dtoa_r+0x8f0>
20004542:	f240 0300 	movw	r3, #0
20004546:	2200      	movs	r2, #0
20004548:	f2c4 0314 	movt	r3, #16404	; 0x4014
2000454c:	e9dd 0104 	ldrd	r0, r1, [sp, #16]
20004550:	f002 fa3c 	bl	200069cc <__aeabi_dmul>
20004554:	4642      	mov	r2, r8
20004556:	464b      	mov	r3, r9
20004558:	f002 fcbe 	bl	20006ed8 <__aeabi_dcmpge>
2000455c:	2800      	cmp	r0, #0
2000455e:	d06a      	beq.n	20004636 <_dtoa_r+0x9c6>
20004560:	2200      	movs	r2, #0
20004562:	9206      	str	r2, [sp, #24]
20004564:	920c      	str	r2, [sp, #48]	; 0x30
20004566:	9b2b      	ldr	r3, [sp, #172]	; 0xac
20004568:	2700      	movs	r7, #0
2000456a:	f8dd a030 	ldr.w	sl, [sp, #48]	; 0x30
2000456e:	43de      	mvns	r6, r3
20004570:	9d10      	ldr	r5, [sp, #64]	; 0x40
20004572:	e781      	b.n	20004478 <_dtoa_r+0x808>
20004574:	2100      	movs	r1, #0
20004576:	9116      	str	r1, [sp, #88]	; 0x58
20004578:	982b      	ldr	r0, [sp, #172]	; 0xac
2000457a:	2800      	cmp	r0, #0
2000457c:	f340 819f 	ble.w	200048be <_dtoa_r+0xc4e>
20004580:	982b      	ldr	r0, [sp, #172]	; 0xac
20004582:	4601      	mov	r1, r0
20004584:	9011      	str	r0, [sp, #68]	; 0x44
20004586:	9008      	str	r0, [sp, #32]
20004588:	6a65      	ldr	r5, [r4, #36]	; 0x24
2000458a:	2200      	movs	r2, #0
2000458c:	2917      	cmp	r1, #23
2000458e:	606a      	str	r2, [r5, #4]
20004590:	f240 82ab 	bls.w	20004aea <_dtoa_r+0xe7a>
20004594:	2304      	movs	r3, #4
20004596:	005b      	lsls	r3, r3, #1
20004598:	3201      	adds	r2, #1
2000459a:	f103 0014 	add.w	r0, r3, #20
2000459e:	4288      	cmp	r0, r1
200045a0:	d9f9      	bls.n	20004596 <_dtoa_r+0x926>
200045a2:	9b08      	ldr	r3, [sp, #32]
200045a4:	606a      	str	r2, [r5, #4]
200045a6:	2b0e      	cmp	r3, #14
200045a8:	bf8c      	ite	hi
200045aa:	2700      	movhi	r7, #0
200045ac:	f007 0701 	andls.w	r7, r7, #1
200045b0:	e49d      	b.n	20003eee <_dtoa_r+0x27e>
200045b2:	2201      	movs	r2, #1
200045b4:	9216      	str	r2, [sp, #88]	; 0x58
200045b6:	9b2b      	ldr	r3, [sp, #172]	; 0xac
200045b8:	18f3      	adds	r3, r6, r3
200045ba:	9311      	str	r3, [sp, #68]	; 0x44
200045bc:	1c59      	adds	r1, r3, #1
200045be:	2900      	cmp	r1, #0
200045c0:	bfc8      	it	gt
200045c2:	9108      	strgt	r1, [sp, #32]
200045c4:	dce0      	bgt.n	20004588 <_dtoa_r+0x918>
200045c6:	290e      	cmp	r1, #14
200045c8:	bf8c      	ite	hi
200045ca:	2700      	movhi	r7, #0
200045cc:	f007 0701 	andls.w	r7, r7, #1
200045d0:	9108      	str	r1, [sp, #32]
200045d2:	e489      	b.n	20003ee8 <_dtoa_r+0x278>
200045d4:	2301      	movs	r3, #1
200045d6:	9316      	str	r3, [sp, #88]	; 0x58
200045d8:	e7ce      	b.n	20004578 <_dtoa_r+0x908>
200045da:	2200      	movs	r2, #0
200045dc:	9216      	str	r2, [sp, #88]	; 0x58
200045de:	e7ea      	b.n	200045b6 <_dtoa_r+0x946>
200045e0:	f04f 33ff 	mov.w	r3, #4294967295
200045e4:	2700      	movs	r7, #0
200045e6:	2001      	movs	r0, #1
200045e8:	9311      	str	r3, [sp, #68]	; 0x44
200045ea:	9016      	str	r0, [sp, #88]	; 0x58
200045ec:	9308      	str	r3, [sp, #32]
200045ee:	972b      	str	r7, [sp, #172]	; 0xac
200045f0:	e47a      	b.n	20003ee8 <_dtoa_r+0x278>
200045f2:	f1b8 0f00 	cmp.w	r8, #0
200045f6:	f47f aef2 	bne.w	200043de <_dtoa_r+0x76e>
200045fa:	f029 437f 	bic.w	r3, r9, #4278190080	; 0xff000000
200045fe:	f423 0370 	bic.w	r3, r3, #15728640	; 0xf00000
20004602:	2b00      	cmp	r3, #0
20004604:	f47f aeeb 	bne.w	200043de <_dtoa_r+0x76e>
20004608:	f240 0300 	movw	r3, #0
2000460c:	f6c7 73f0 	movt	r3, #32752	; 0x7ff0
20004610:	ea09 0303 	and.w	r3, r9, r3
20004614:	2b00      	cmp	r3, #0
20004616:	f43f aee2 	beq.w	200043de <_dtoa_r+0x76e>
2000461a:	9a0f      	ldr	r2, [sp, #60]	; 0x3c
2000461c:	f10a 0a01 	add.w	sl, sl, #1
20004620:	2701      	movs	r7, #1
20004622:	3201      	adds	r2, #1
20004624:	920f      	str	r2, [sp, #60]	; 0x3c
20004626:	e6db      	b.n	200043e0 <_dtoa_r+0x770>
20004628:	4635      	mov	r5, r6
2000462a:	465c      	mov	r4, fp
2000462c:	9e0f      	ldr	r6, [sp, #60]	; 0x3c
2000462e:	f8dd b02c 	ldr.w	fp, [sp, #44]	; 0x2c
20004632:	9612      	str	r6, [sp, #72]	; 0x48
20004634:	e738      	b.n	200044a8 <_dtoa_r+0x838>
20004636:	2000      	movs	r0, #0
20004638:	9006      	str	r0, [sp, #24]
2000463a:	900c      	str	r0, [sp, #48]	; 0x30
2000463c:	e714      	b.n	20004468 <_dtoa_r+0x7f8>
2000463e:	4639      	mov	r1, r7
20004640:	4620      	mov	r0, r4
20004642:	f001 f99f 	bl	20005984 <_Bfree>
20004646:	e72a      	b.n	2000449e <_dtoa_r+0x82e>
20004648:	f1c3 0320 	rsb	r3, r3, #32
2000464c:	2b04      	cmp	r3, #4
2000464e:	f340 8254 	ble.w	20004afa <_dtoa_r+0xe8a>
20004652:	990f      	ldr	r1, [sp, #60]	; 0x3c
20004654:	3b04      	subs	r3, #4
20004656:	449a      	add	sl, r3
20004658:	18ed      	adds	r5, r5, r3
2000465a:	18c9      	adds	r1, r1, r3
2000465c:	910f      	str	r1, [sp, #60]	; 0x3c
2000465e:	e6cf      	b.n	20004400 <_dtoa_r+0x790>
20004660:	9916      	ldr	r1, [sp, #88]	; 0x58
20004662:	2900      	cmp	r1, #0
20004664:	f000 8131 	beq.w	200048ca <_dtoa_r+0xc5a>
20004668:	2d00      	cmp	r5, #0
2000466a:	dd05      	ble.n	20004678 <_dtoa_r+0xa08>
2000466c:	990c      	ldr	r1, [sp, #48]	; 0x30
2000466e:	462a      	mov	r2, r5
20004670:	4620      	mov	r0, r4
20004672:	f001 fabd 	bl	20005bf0 <__lshift>
20004676:	900c      	str	r0, [sp, #48]	; 0x30
20004678:	2f00      	cmp	r7, #0
2000467a:	f040 81ea 	bne.w	20004a52 <_dtoa_r+0xde2>
2000467e:	f8dd a030 	ldr.w	sl, [sp, #48]	; 0x30
20004682:	9d10      	ldr	r5, [sp, #64]	; 0x40
20004684:	2301      	movs	r3, #1
20004686:	f008 0001 	and.w	r0, r8, #1
2000468a:	9f0c      	ldr	r7, [sp, #48]	; 0x30
2000468c:	9011      	str	r0, [sp, #68]	; 0x44
2000468e:	950f      	str	r5, [sp, #60]	; 0x3c
20004690:	461d      	mov	r5, r3
20004692:	960c      	str	r6, [sp, #48]	; 0x30
20004694:	9906      	ldr	r1, [sp, #24]
20004696:	4658      	mov	r0, fp
20004698:	f7ff fa5a 	bl	20003b50 <quorem>
2000469c:	4639      	mov	r1, r7
2000469e:	3030      	adds	r0, #48	; 0x30
200046a0:	900b      	str	r0, [sp, #44]	; 0x2c
200046a2:	4658      	mov	r0, fp
200046a4:	f001 f834 	bl	20005710 <__mcmp>
200046a8:	9906      	ldr	r1, [sp, #24]
200046aa:	4652      	mov	r2, sl
200046ac:	4606      	mov	r6, r0
200046ae:	4620      	mov	r0, r4
200046b0:	f001 fa22 	bl	20005af8 <__mdiff>
200046b4:	68c3      	ldr	r3, [r0, #12]
200046b6:	4680      	mov	r8, r0
200046b8:	2b00      	cmp	r3, #0
200046ba:	d03d      	beq.n	20004738 <_dtoa_r+0xac8>
200046bc:	f04f 0901 	mov.w	r9, #1
200046c0:	4641      	mov	r1, r8
200046c2:	4620      	mov	r0, r4
200046c4:	f001 f95e 	bl	20005984 <_Bfree>
200046c8:	992a      	ldr	r1, [sp, #168]	; 0xa8
200046ca:	ea59 0101 	orrs.w	r1, r9, r1
200046ce:	d103      	bne.n	200046d8 <_dtoa_r+0xa68>
200046d0:	9a11      	ldr	r2, [sp, #68]	; 0x44
200046d2:	2a00      	cmp	r2, #0
200046d4:	f000 81eb 	beq.w	20004aae <_dtoa_r+0xe3e>
200046d8:	2e00      	cmp	r6, #0
200046da:	f2c0 819e 	blt.w	20004a1a <_dtoa_r+0xdaa>
200046de:	9a2a      	ldr	r2, [sp, #168]	; 0xa8
200046e0:	4332      	orrs	r2, r6
200046e2:	d103      	bne.n	200046ec <_dtoa_r+0xa7c>
200046e4:	9b11      	ldr	r3, [sp, #68]	; 0x44
200046e6:	2b00      	cmp	r3, #0
200046e8:	f000 8197 	beq.w	20004a1a <_dtoa_r+0xdaa>
200046ec:	f1b9 0f00 	cmp.w	r9, #0
200046f0:	f300 81ce 	bgt.w	20004a90 <_dtoa_r+0xe20>
200046f4:	990f      	ldr	r1, [sp, #60]	; 0x3c
200046f6:	9a0b      	ldr	r2, [sp, #44]	; 0x2c
200046f8:	f801 2b01 	strb.w	r2, [r1], #1
200046fc:	9b08      	ldr	r3, [sp, #32]
200046fe:	910f      	str	r1, [sp, #60]	; 0x3c
20004700:	429d      	cmp	r5, r3
20004702:	f000 81c2 	beq.w	20004a8a <_dtoa_r+0xe1a>
20004706:	4659      	mov	r1, fp
20004708:	220a      	movs	r2, #10
2000470a:	2300      	movs	r3, #0
2000470c:	4620      	mov	r0, r4
2000470e:	f001 fb71 	bl	20005df4 <__multadd>
20004712:	4557      	cmp	r7, sl
20004714:	4639      	mov	r1, r7
20004716:	4683      	mov	fp, r0
20004718:	d014      	beq.n	20004744 <_dtoa_r+0xad4>
2000471a:	220a      	movs	r2, #10
2000471c:	2300      	movs	r3, #0
2000471e:	4620      	mov	r0, r4
20004720:	3501      	adds	r5, #1
20004722:	f001 fb67 	bl	20005df4 <__multadd>
20004726:	4651      	mov	r1, sl
20004728:	220a      	movs	r2, #10
2000472a:	2300      	movs	r3, #0
2000472c:	4607      	mov	r7, r0
2000472e:	4620      	mov	r0, r4
20004730:	f001 fb60 	bl	20005df4 <__multadd>
20004734:	4682      	mov	sl, r0
20004736:	e7ad      	b.n	20004694 <_dtoa_r+0xa24>
20004738:	4658      	mov	r0, fp
2000473a:	4641      	mov	r1, r8
2000473c:	f000 ffe8 	bl	20005710 <__mcmp>
20004740:	4681      	mov	r9, r0
20004742:	e7bd      	b.n	200046c0 <_dtoa_r+0xa50>
20004744:	4620      	mov	r0, r4
20004746:	220a      	movs	r2, #10
20004748:	2300      	movs	r3, #0
2000474a:	3501      	adds	r5, #1
2000474c:	f001 fb52 	bl	20005df4 <__multadd>
20004750:	4607      	mov	r7, r0
20004752:	4682      	mov	sl, r0
20004754:	e79e      	b.n	20004694 <_dtoa_r+0xa24>
20004756:	9612      	str	r6, [sp, #72]	; 0x48
20004758:	f8dd c020 	ldr.w	ip, [sp, #32]
2000475c:	e459      	b.n	20004012 <_dtoa_r+0x3a2>
2000475e:	4275      	negs	r5, r6
20004760:	2d00      	cmp	r5, #0
20004762:	f040 8101 	bne.w	20004968 <_dtoa_r+0xcf8>
20004766:	e9dd 0106 	ldrd	r0, r1, [sp, #24]
2000476a:	f04f 0802 	mov.w	r8, #2
2000476e:	e9cd 010c 	strd	r0, r1, [sp, #48]	; 0x30
20004772:	e40c      	b.n	20003f8e <_dtoa_r+0x31e>
20004774:	f647 21b8 	movw	r1, #31416	; 0x7ab8
20004778:	4642      	mov	r2, r8
2000477a:	f2c2 0100 	movt	r1, #8192	; 0x2000
2000477e:	464b      	mov	r3, r9
20004780:	eb01 01cc 	add.w	r1, r1, ip, lsl #3
20004784:	f8cd c00c 	str.w	ip, [sp, #12]
20004788:	9d10      	ldr	r5, [sp, #64]	; 0x40
2000478a:	e951 0102 	ldrd	r0, r1, [r1, #-8]
2000478e:	f002 f91d 	bl	200069cc <__aeabi_dmul>
20004792:	e9cd 011a 	strd	r0, r1, [sp, #104]	; 0x68
20004796:	e9dd 010c 	ldrd	r0, r1, [sp, #48]	; 0x30
2000479a:	f002 fbb1 	bl	20006f00 <__aeabi_d2iz>
2000479e:	4607      	mov	r7, r0
200047a0:	f7fd fba6 	bl	20001ef0 <__aeabi_i2d>
200047a4:	460b      	mov	r3, r1
200047a6:	4602      	mov	r2, r0
200047a8:	e9dd 010c 	ldrd	r0, r1, [sp, #48]	; 0x30
200047ac:	f7fd fa52 	bl	20001c54 <__aeabi_dsub>
200047b0:	f107 0330 	add.w	r3, r7, #48	; 0x30
200047b4:	e9cd 010c 	strd	r0, r1, [sp, #48]	; 0x30
200047b8:	f805 3b01 	strb.w	r3, [r5], #1
200047bc:	f8dd c00c 	ldr.w	ip, [sp, #12]
200047c0:	f1bc 0f01 	cmp.w	ip, #1
200047c4:	d029      	beq.n	2000481a <_dtoa_r+0xbaa>
200047c6:	46d1      	mov	r9, sl
200047c8:	e9dd 010c 	ldrd	r0, r1, [sp, #48]	; 0x30
200047cc:	46b2      	mov	sl, r6
200047ce:	9e10      	ldr	r6, [sp, #64]	; 0x40
200047d0:	951c      	str	r5, [sp, #112]	; 0x70
200047d2:	2701      	movs	r7, #1
200047d4:	4665      	mov	r5, ip
200047d6:	46a0      	mov	r8, r4
200047d8:	f240 0300 	movw	r3, #0
200047dc:	2200      	movs	r2, #0
200047de:	f2c4 0324 	movt	r3, #16420	; 0x4024
200047e2:	f002 f8f3 	bl	200069cc <__aeabi_dmul>
200047e6:	e9cd 010c 	strd	r0, r1, [sp, #48]	; 0x30
200047ea:	f002 fb89 	bl	20006f00 <__aeabi_d2iz>
200047ee:	4604      	mov	r4, r0
200047f0:	f7fd fb7e 	bl	20001ef0 <__aeabi_i2d>
200047f4:	3430      	adds	r4, #48	; 0x30
200047f6:	4602      	mov	r2, r0
200047f8:	460b      	mov	r3, r1
200047fa:	e9dd 010c 	ldrd	r0, r1, [sp, #48]	; 0x30
200047fe:	f7fd fa29 	bl	20001c54 <__aeabi_dsub>
20004802:	55f4      	strb	r4, [r6, r7]
20004804:	3701      	adds	r7, #1
20004806:	42af      	cmp	r7, r5
20004808:	d1e6      	bne.n	200047d8 <_dtoa_r+0xb68>
2000480a:	9d1c      	ldr	r5, [sp, #112]	; 0x70
2000480c:	3f01      	subs	r7, #1
2000480e:	4656      	mov	r6, sl
20004810:	4644      	mov	r4, r8
20004812:	46ca      	mov	sl, r9
20004814:	19ed      	adds	r5, r5, r7
20004816:	e9cd 010c 	strd	r0, r1, [sp, #48]	; 0x30
2000481a:	f240 0300 	movw	r3, #0
2000481e:	2200      	movs	r2, #0
20004820:	f6c3 73e0 	movt	r3, #16352	; 0x3fe0
20004824:	e9dd 011a 	ldrd	r0, r1, [sp, #104]	; 0x68
20004828:	f7fd fa16 	bl	20001c58 <__adddf3>
2000482c:	4602      	mov	r2, r0
2000482e:	460b      	mov	r3, r1
20004830:	e9dd 010c 	ldrd	r0, r1, [sp, #48]	; 0x30
20004834:	f002 fb5a 	bl	20006eec <__aeabi_dcmpgt>
20004838:	b9f0      	cbnz	r0, 20004878 <_dtoa_r+0xc08>
2000483a:	f240 0100 	movw	r1, #0
2000483e:	e9dd 231a 	ldrd	r2, r3, [sp, #104]	; 0x68
20004842:	2000      	movs	r0, #0
20004844:	f6c3 71e0 	movt	r1, #16352	; 0x3fe0
20004848:	f7fd fa04 	bl	20001c54 <__aeabi_dsub>
2000484c:	4602      	mov	r2, r0
2000484e:	460b      	mov	r3, r1
20004850:	e9dd 010c 	ldrd	r0, r1, [sp, #48]	; 0x30
20004854:	f002 fb2c 	bl	20006eb0 <__aeabi_dcmplt>
20004858:	2800      	cmp	r0, #0
2000485a:	f43f acac 	beq.w	200041b6 <_dtoa_r+0x546>
2000485e:	462b      	mov	r3, r5
20004860:	461d      	mov	r5, r3
20004862:	f813 2d01 	ldrb.w	r2, [r3, #-1]!
20004866:	2a30      	cmp	r2, #48	; 0x30
20004868:	d0fa      	beq.n	20004860 <_dtoa_r+0xbf0>
2000486a:	e61d      	b.n	200044a8 <_dtoa_r+0x838>
2000486c:	9810      	ldr	r0, [sp, #64]	; 0x40
2000486e:	f7ff ba40 	b.w	20003cf2 <_dtoa_r+0x82>
20004872:	f8dd b068 	ldr.w	fp, [sp, #104]	; 0x68
20004876:	9c0c      	ldr	r4, [sp, #48]	; 0x30
20004878:	9e12      	ldr	r6, [sp, #72]	; 0x48
2000487a:	9910      	ldr	r1, [sp, #64]	; 0x40
2000487c:	e550      	b.n	20004320 <_dtoa_r+0x6b0>
2000487e:	4658      	mov	r0, fp
20004880:	9906      	ldr	r1, [sp, #24]
20004882:	f000 ff45 	bl	20005710 <__mcmp>
20004886:	2800      	cmp	r0, #0
20004888:	f6bf add0 	bge.w	2000442c <_dtoa_r+0x7bc>
2000488c:	4659      	mov	r1, fp
2000488e:	4620      	mov	r0, r4
20004890:	220a      	movs	r2, #10
20004892:	2300      	movs	r3, #0
20004894:	f001 faae 	bl	20005df4 <__multadd>
20004898:	9916      	ldr	r1, [sp, #88]	; 0x58
2000489a:	3e01      	subs	r6, #1
2000489c:	4683      	mov	fp, r0
2000489e:	2900      	cmp	r1, #0
200048a0:	f040 8119 	bne.w	20004ad6 <_dtoa_r+0xe66>
200048a4:	9a11      	ldr	r2, [sp, #68]	; 0x44
200048a6:	9208      	str	r2, [sp, #32]
200048a8:	e5c0      	b.n	2000442c <_dtoa_r+0x7bc>
200048aa:	9806      	ldr	r0, [sp, #24]
200048ac:	6903      	ldr	r3, [r0, #16]
200048ae:	eb00 0383 	add.w	r3, r0, r3, lsl #2
200048b2:	6918      	ldr	r0, [r3, #16]
200048b4:	f000 feda 	bl	2000566c <__hi0bits>
200048b8:	f1c0 0320 	rsb	r3, r0, #32
200048bc:	e595      	b.n	200043ea <_dtoa_r+0x77a>
200048be:	2101      	movs	r1, #1
200048c0:	9111      	str	r1, [sp, #68]	; 0x44
200048c2:	9108      	str	r1, [sp, #32]
200048c4:	912b      	str	r1, [sp, #172]	; 0xac
200048c6:	f7ff bb0f 	b.w	20003ee8 <_dtoa_r+0x278>
200048ca:	9d10      	ldr	r5, [sp, #64]	; 0x40
200048cc:	46b1      	mov	r9, r6
200048ce:	9f16      	ldr	r7, [sp, #88]	; 0x58
200048d0:	46aa      	mov	sl, r5
200048d2:	f8dd 8018 	ldr.w	r8, [sp, #24]
200048d6:	9e08      	ldr	r6, [sp, #32]
200048d8:	e002      	b.n	200048e0 <_dtoa_r+0xc70>
200048da:	f001 fa8b 	bl	20005df4 <__multadd>
200048de:	4683      	mov	fp, r0
200048e0:	4641      	mov	r1, r8
200048e2:	4658      	mov	r0, fp
200048e4:	f7ff f934 	bl	20003b50 <quorem>
200048e8:	3501      	adds	r5, #1
200048ea:	220a      	movs	r2, #10
200048ec:	2300      	movs	r3, #0
200048ee:	4659      	mov	r1, fp
200048f0:	f100 0c30 	add.w	ip, r0, #48	; 0x30
200048f4:	f80a c007 	strb.w	ip, [sl, r7]
200048f8:	3701      	adds	r7, #1
200048fa:	4620      	mov	r0, r4
200048fc:	42be      	cmp	r6, r7
200048fe:	dcec      	bgt.n	200048da <_dtoa_r+0xc6a>
20004900:	f8dd a030 	ldr.w	sl, [sp, #48]	; 0x30
20004904:	464e      	mov	r6, r9
20004906:	2700      	movs	r7, #0
20004908:	f8cd c02c 	str.w	ip, [sp, #44]	; 0x2c
2000490c:	4659      	mov	r1, fp
2000490e:	2201      	movs	r2, #1
20004910:	4620      	mov	r0, r4
20004912:	f001 f96d 	bl	20005bf0 <__lshift>
20004916:	9906      	ldr	r1, [sp, #24]
20004918:	4683      	mov	fp, r0
2000491a:	f000 fef9 	bl	20005710 <__mcmp>
2000491e:	2800      	cmp	r0, #0
20004920:	dd0f      	ble.n	20004942 <_dtoa_r+0xcd2>
20004922:	9910      	ldr	r1, [sp, #64]	; 0x40
20004924:	e000      	b.n	20004928 <_dtoa_r+0xcb8>
20004926:	461d      	mov	r5, r3
20004928:	f815 2c01 	ldrb.w	r2, [r5, #-1]
2000492c:	1e6b      	subs	r3, r5, #1
2000492e:	2a39      	cmp	r2, #57	; 0x39
20004930:	f040 808c 	bne.w	20004a4c <_dtoa_r+0xddc>
20004934:	428b      	cmp	r3, r1
20004936:	d1f6      	bne.n	20004926 <_dtoa_r+0xcb6>
20004938:	9910      	ldr	r1, [sp, #64]	; 0x40
2000493a:	2331      	movs	r3, #49	; 0x31
2000493c:	3601      	adds	r6, #1
2000493e:	700b      	strb	r3, [r1, #0]
20004940:	e59a      	b.n	20004478 <_dtoa_r+0x808>
20004942:	d103      	bne.n	2000494c <_dtoa_r+0xcdc>
20004944:	980b      	ldr	r0, [sp, #44]	; 0x2c
20004946:	f010 0f01 	tst.w	r0, #1
2000494a:	d1ea      	bne.n	20004922 <_dtoa_r+0xcb2>
2000494c:	462b      	mov	r3, r5
2000494e:	461d      	mov	r5, r3
20004950:	f813 2d01 	ldrb.w	r2, [r3, #-1]!
20004954:	2a30      	cmp	r2, #48	; 0x30
20004956:	d0fa      	beq.n	2000494e <_dtoa_r+0xcde>
20004958:	e58e      	b.n	20004478 <_dtoa_r+0x808>
2000495a:	4659      	mov	r1, fp
2000495c:	9a15      	ldr	r2, [sp, #84]	; 0x54
2000495e:	4620      	mov	r0, r4
20004960:	f001 fa8c 	bl	20005e7c <__pow5mult>
20004964:	4683      	mov	fp, r0
20004966:	e528      	b.n	200043ba <_dtoa_r+0x74a>
20004968:	f005 030f 	and.w	r3, r5, #15
2000496c:	f647 22b8 	movw	r2, #31416	; 0x7ab8
20004970:	f2c2 0200 	movt	r2, #8192	; 0x2000
20004974:	e9dd 0106 	ldrd	r0, r1, [sp, #24]
20004978:	eb02 03c3 	add.w	r3, r2, r3, lsl #3
2000497c:	e9d3 2300 	ldrd	r2, r3, [r3]
20004980:	f002 f824 	bl	200069cc <__aeabi_dmul>
20004984:	112d      	asrs	r5, r5, #4
20004986:	bf08      	it	eq
20004988:	f04f 0802 	moveq.w	r8, #2
2000498c:	e9cd 010c 	strd	r0, r1, [sp, #48]	; 0x30
20004990:	f43f aafd 	beq.w	20003f8e <_dtoa_r+0x31e>
20004994:	f647 3790 	movw	r7, #31632	; 0x7b90
20004998:	e9dd 230c 	ldrd	r2, r3, [sp, #48]	; 0x30
2000499c:	f04f 0802 	mov.w	r8, #2
200049a0:	f2c2 0700 	movt	r7, #8192	; 0x2000
200049a4:	f015 0f01 	tst.w	r5, #1
200049a8:	4610      	mov	r0, r2
200049aa:	4619      	mov	r1, r3
200049ac:	d007      	beq.n	200049be <_dtoa_r+0xd4e>
200049ae:	e9d7 2300 	ldrd	r2, r3, [r7]
200049b2:	f108 0801 	add.w	r8, r8, #1
200049b6:	f002 f809 	bl	200069cc <__aeabi_dmul>
200049ba:	4602      	mov	r2, r0
200049bc:	460b      	mov	r3, r1
200049be:	3708      	adds	r7, #8
200049c0:	106d      	asrs	r5, r5, #1
200049c2:	d1ef      	bne.n	200049a4 <_dtoa_r+0xd34>
200049c4:	e9cd 230c 	strd	r2, r3, [sp, #48]	; 0x30
200049c8:	f7ff bae1 	b.w	20003f8e <_dtoa_r+0x31e>
200049cc:	9915      	ldr	r1, [sp, #84]	; 0x54
200049ce:	9a17      	ldr	r2, [sp, #92]	; 0x5c
200049d0:	1a5b      	subs	r3, r3, r1
200049d2:	18c9      	adds	r1, r1, r3
200049d4:	18d2      	adds	r2, r2, r3
200049d6:	9115      	str	r1, [sp, #84]	; 0x54
200049d8:	9217      	str	r2, [sp, #92]	; 0x5c
200049da:	e5a0      	b.n	2000451e <_dtoa_r+0x8ae>
200049dc:	4659      	mov	r1, fp
200049de:	4620      	mov	r0, r4
200049e0:	f001 fa4c 	bl	20005e7c <__pow5mult>
200049e4:	4683      	mov	fp, r0
200049e6:	e4e8      	b.n	200043ba <_dtoa_r+0x74a>
200049e8:	9919      	ldr	r1, [sp, #100]	; 0x64
200049ea:	2900      	cmp	r1, #0
200049ec:	d047      	beq.n	20004a7e <_dtoa_r+0xe0e>
200049ee:	f503 6386 	add.w	r3, r3, #1072	; 0x430
200049f2:	9f15      	ldr	r7, [sp, #84]	; 0x54
200049f4:	3303      	adds	r3, #3
200049f6:	9d0f      	ldr	r5, [sp, #60]	; 0x3c
200049f8:	e597      	b.n	2000452a <_dtoa_r+0x8ba>
200049fa:	3201      	adds	r2, #1
200049fc:	b2d2      	uxtb	r2, r2
200049fe:	e49d      	b.n	2000433c <_dtoa_r+0x6cc>
20004a00:	f8dd b068 	ldr.w	fp, [sp, #104]	; 0x68
20004a04:	f8dd a070 	ldr.w	sl, [sp, #112]	; 0x70
20004a08:	9e1d      	ldr	r6, [sp, #116]	; 0x74
20004a0a:	9c0c      	ldr	r4, [sp, #48]	; 0x30
20004a0c:	f7ff bbd3 	b.w	200041b6 <_dtoa_r+0x546>
20004a10:	990f      	ldr	r1, [sp, #60]	; 0x3c
20004a12:	2300      	movs	r3, #0
20004a14:	9808      	ldr	r0, [sp, #32]
20004a16:	1a0d      	subs	r5, r1, r0
20004a18:	e587      	b.n	2000452a <_dtoa_r+0x8ba>
20004a1a:	f1b9 0f00 	cmp.w	r9, #0
20004a1e:	9d0f      	ldr	r5, [sp, #60]	; 0x3c
20004a20:	9e0c      	ldr	r6, [sp, #48]	; 0x30
20004a22:	dd0f      	ble.n	20004a44 <_dtoa_r+0xdd4>
20004a24:	4659      	mov	r1, fp
20004a26:	2201      	movs	r2, #1
20004a28:	4620      	mov	r0, r4
20004a2a:	f001 f8e1 	bl	20005bf0 <__lshift>
20004a2e:	9906      	ldr	r1, [sp, #24]
20004a30:	4683      	mov	fp, r0
20004a32:	f000 fe6d 	bl	20005710 <__mcmp>
20004a36:	2800      	cmp	r0, #0
20004a38:	dd47      	ble.n	20004aca <_dtoa_r+0xe5a>
20004a3a:	990b      	ldr	r1, [sp, #44]	; 0x2c
20004a3c:	2939      	cmp	r1, #57	; 0x39
20004a3e:	d031      	beq.n	20004aa4 <_dtoa_r+0xe34>
20004a40:	3101      	adds	r1, #1
20004a42:	910b      	str	r1, [sp, #44]	; 0x2c
20004a44:	9a0b      	ldr	r2, [sp, #44]	; 0x2c
20004a46:	f805 2b01 	strb.w	r2, [r5], #1
20004a4a:	e515      	b.n	20004478 <_dtoa_r+0x808>
20004a4c:	3201      	adds	r2, #1
20004a4e:	701a      	strb	r2, [r3, #0]
20004a50:	e512      	b.n	20004478 <_dtoa_r+0x808>
20004a52:	9a0c      	ldr	r2, [sp, #48]	; 0x30
20004a54:	4620      	mov	r0, r4
20004a56:	6851      	ldr	r1, [r2, #4]
20004a58:	f000 ffb0 	bl	200059bc <_Balloc>
20004a5c:	9b0c      	ldr	r3, [sp, #48]	; 0x30
20004a5e:	f103 010c 	add.w	r1, r3, #12
20004a62:	691a      	ldr	r2, [r3, #16]
20004a64:	3202      	adds	r2, #2
20004a66:	0092      	lsls	r2, r2, #2
20004a68:	4605      	mov	r5, r0
20004a6a:	300c      	adds	r0, #12
20004a6c:	f000 fcd6 	bl	2000541c <memcpy>
20004a70:	4620      	mov	r0, r4
20004a72:	4629      	mov	r1, r5
20004a74:	2201      	movs	r2, #1
20004a76:	f001 f8bb 	bl	20005bf0 <__lshift>
20004a7a:	4682      	mov	sl, r0
20004a7c:	e601      	b.n	20004682 <_dtoa_r+0xa12>
20004a7e:	9b1f      	ldr	r3, [sp, #124]	; 0x7c
20004a80:	9f15      	ldr	r7, [sp, #84]	; 0x54
20004a82:	9d0f      	ldr	r5, [sp, #60]	; 0x3c
20004a84:	f1c3 0336 	rsb	r3, r3, #54	; 0x36
20004a88:	e54f      	b.n	2000452a <_dtoa_r+0x8ba>
20004a8a:	9d0f      	ldr	r5, [sp, #60]	; 0x3c
20004a8c:	9e0c      	ldr	r6, [sp, #48]	; 0x30
20004a8e:	e73d      	b.n	2000490c <_dtoa_r+0xc9c>
20004a90:	9b0b      	ldr	r3, [sp, #44]	; 0x2c
20004a92:	9d0f      	ldr	r5, [sp, #60]	; 0x3c
20004a94:	2b39      	cmp	r3, #57	; 0x39
20004a96:	9e0c      	ldr	r6, [sp, #48]	; 0x30
20004a98:	d004      	beq.n	20004aa4 <_dtoa_r+0xe34>
20004a9a:	980b      	ldr	r0, [sp, #44]	; 0x2c
20004a9c:	1c43      	adds	r3, r0, #1
20004a9e:	f805 3b01 	strb.w	r3, [r5], #1
20004aa2:	e4e9      	b.n	20004478 <_dtoa_r+0x808>
20004aa4:	2339      	movs	r3, #57	; 0x39
20004aa6:	f805 3b01 	strb.w	r3, [r5], #1
20004aaa:	9910      	ldr	r1, [sp, #64]	; 0x40
20004aac:	e73c      	b.n	20004928 <_dtoa_r+0xcb8>
20004aae:	980b      	ldr	r0, [sp, #44]	; 0x2c
20004ab0:	4633      	mov	r3, r6
20004ab2:	9d0f      	ldr	r5, [sp, #60]	; 0x3c
20004ab4:	2839      	cmp	r0, #57	; 0x39
20004ab6:	9e0c      	ldr	r6, [sp, #48]	; 0x30
20004ab8:	d0f4      	beq.n	20004aa4 <_dtoa_r+0xe34>
20004aba:	2b00      	cmp	r3, #0
20004abc:	dd01      	ble.n	20004ac2 <_dtoa_r+0xe52>
20004abe:	3001      	adds	r0, #1
20004ac0:	900b      	str	r0, [sp, #44]	; 0x2c
20004ac2:	990b      	ldr	r1, [sp, #44]	; 0x2c
20004ac4:	f805 1b01 	strb.w	r1, [r5], #1
20004ac8:	e4d6      	b.n	20004478 <_dtoa_r+0x808>
20004aca:	d1bb      	bne.n	20004a44 <_dtoa_r+0xdd4>
20004acc:	980b      	ldr	r0, [sp, #44]	; 0x2c
20004ace:	f010 0f01 	tst.w	r0, #1
20004ad2:	d0b7      	beq.n	20004a44 <_dtoa_r+0xdd4>
20004ad4:	e7b1      	b.n	20004a3a <_dtoa_r+0xdca>
20004ad6:	2300      	movs	r3, #0
20004ad8:	990c      	ldr	r1, [sp, #48]	; 0x30
20004ada:	4620      	mov	r0, r4
20004adc:	220a      	movs	r2, #10
20004ade:	f001 f989 	bl	20005df4 <__multadd>
20004ae2:	9b11      	ldr	r3, [sp, #68]	; 0x44
20004ae4:	9308      	str	r3, [sp, #32]
20004ae6:	900c      	str	r0, [sp, #48]	; 0x30
20004ae8:	e4a0      	b.n	2000442c <_dtoa_r+0x7bc>
20004aea:	9908      	ldr	r1, [sp, #32]
20004aec:	290e      	cmp	r1, #14
20004aee:	bf8c      	ite	hi
20004af0:	2700      	movhi	r7, #0
20004af2:	f007 0701 	andls.w	r7, r7, #1
20004af6:	f7ff b9fa 	b.w	20003eee <_dtoa_r+0x27e>
20004afa:	f43f ac81 	beq.w	20004400 <_dtoa_r+0x790>
20004afe:	331c      	adds	r3, #28
20004b00:	e479      	b.n	200043f6 <_dtoa_r+0x786>
20004b02:	2701      	movs	r7, #1
20004b04:	f7ff b98a 	b.w	20003e1c <_dtoa_r+0x1ac>

20004b08 <_malloc_trim_r>:
20004b08:	b5f8      	push	{r3, r4, r5, r6, r7, lr}
20004b0a:	f647 5470 	movw	r4, #32112	; 0x7d70
20004b0e:	f2c2 0400 	movt	r4, #8192	; 0x2000
20004b12:	460f      	mov	r7, r1
20004b14:	4605      	mov	r5, r0
20004b16:	f000 fda5 	bl	20005664 <__malloc_lock>
20004b1a:	68a3      	ldr	r3, [r4, #8]
20004b1c:	685e      	ldr	r6, [r3, #4]
20004b1e:	f026 0603 	bic.w	r6, r6, #3
20004b22:	f506 637e 	add.w	r3, r6, #4064	; 0xfe0
20004b26:	330f      	adds	r3, #15
20004b28:	1bdf      	subs	r7, r3, r7
20004b2a:	0b3f      	lsrs	r7, r7, #12
20004b2c:	3f01      	subs	r7, #1
20004b2e:	033f      	lsls	r7, r7, #12
20004b30:	f5b7 5f80 	cmp.w	r7, #4096	; 0x1000
20004b34:	db07      	blt.n	20004b46 <_malloc_trim_r+0x3e>
20004b36:	2100      	movs	r1, #0
20004b38:	4628      	mov	r0, r5
20004b3a:	f001 fc3d 	bl	200063b8 <_sbrk_r>
20004b3e:	68a3      	ldr	r3, [r4, #8]
20004b40:	18f3      	adds	r3, r6, r3
20004b42:	4283      	cmp	r3, r0
20004b44:	d004      	beq.n	20004b50 <_malloc_trim_r+0x48>
20004b46:	4628      	mov	r0, r5
20004b48:	f000 fd8e 	bl	20005668 <__malloc_unlock>
20004b4c:	2000      	movs	r0, #0
20004b4e:	bdf8      	pop	{r3, r4, r5, r6, r7, pc}
20004b50:	4279      	negs	r1, r7
20004b52:	4628      	mov	r0, r5
20004b54:	f001 fc30 	bl	200063b8 <_sbrk_r>
20004b58:	f1b0 3fff 	cmp.w	r0, #4294967295
20004b5c:	d010      	beq.n	20004b80 <_malloc_trim_r+0x78>
20004b5e:	68a2      	ldr	r2, [r4, #8]
20004b60:	f248 43c4 	movw	r3, #33988	; 0x84c4
20004b64:	f2c2 0300 	movt	r3, #8192	; 0x2000
20004b68:	1bf6      	subs	r6, r6, r7
20004b6a:	f046 0601 	orr.w	r6, r6, #1
20004b6e:	4628      	mov	r0, r5
20004b70:	6056      	str	r6, [r2, #4]
20004b72:	681a      	ldr	r2, [r3, #0]
20004b74:	1bd7      	subs	r7, r2, r7
20004b76:	601f      	str	r7, [r3, #0]
20004b78:	f000 fd76 	bl	20005668 <__malloc_unlock>
20004b7c:	2001      	movs	r0, #1
20004b7e:	bdf8      	pop	{r3, r4, r5, r6, r7, pc}
20004b80:	2100      	movs	r1, #0
20004b82:	4628      	mov	r0, r5
20004b84:	f001 fc18 	bl	200063b8 <_sbrk_r>
20004b88:	68a3      	ldr	r3, [r4, #8]
20004b8a:	1ac2      	subs	r2, r0, r3
20004b8c:	2a0f      	cmp	r2, #15
20004b8e:	ddda      	ble.n	20004b46 <_malloc_trim_r+0x3e>
20004b90:	f248 1478 	movw	r4, #33144	; 0x8178
20004b94:	f248 41c4 	movw	r1, #33988	; 0x84c4
20004b98:	f2c2 0400 	movt	r4, #8192	; 0x2000
20004b9c:	f2c2 0100 	movt	r1, #8192	; 0x2000
20004ba0:	f042 0201 	orr.w	r2, r2, #1
20004ba4:	6824      	ldr	r4, [r4, #0]
20004ba6:	1b00      	subs	r0, r0, r4
20004ba8:	6008      	str	r0, [r1, #0]
20004baa:	605a      	str	r2, [r3, #4]
20004bac:	e7cb      	b.n	20004b46 <_malloc_trim_r+0x3e>
20004bae:	bf00      	nop

20004bb0 <_free_r>:
20004bb0:	e92d 41f0 	stmdb	sp!, {r4, r5, r6, r7, r8, lr}
20004bb4:	4605      	mov	r5, r0
20004bb6:	460c      	mov	r4, r1
20004bb8:	2900      	cmp	r1, #0
20004bba:	f000 8088 	beq.w	20004cce <_free_r+0x11e>
20004bbe:	f000 fd51 	bl	20005664 <__malloc_lock>
20004bc2:	f1a4 0208 	sub.w	r2, r4, #8
20004bc6:	f647 5070 	movw	r0, #32112	; 0x7d70
20004bca:	6856      	ldr	r6, [r2, #4]
20004bcc:	f2c2 0000 	movt	r0, #8192	; 0x2000
20004bd0:	f026 0301 	bic.w	r3, r6, #1
20004bd4:	f8d0 c008 	ldr.w	ip, [r0, #8]
20004bd8:	18d1      	adds	r1, r2, r3
20004bda:	458c      	cmp	ip, r1
20004bdc:	684f      	ldr	r7, [r1, #4]
20004bde:	f027 0703 	bic.w	r7, r7, #3
20004be2:	f000 8095 	beq.w	20004d10 <_free_r+0x160>
20004be6:	f016 0601 	ands.w	r6, r6, #1
20004bea:	604f      	str	r7, [r1, #4]
20004bec:	d05f      	beq.n	20004cae <_free_r+0xfe>
20004bee:	2600      	movs	r6, #0
20004bf0:	19cc      	adds	r4, r1, r7
20004bf2:	6864      	ldr	r4, [r4, #4]
20004bf4:	f014 0f01 	tst.w	r4, #1
20004bf8:	d106      	bne.n	20004c08 <_free_r+0x58>
20004bfa:	19db      	adds	r3, r3, r7
20004bfc:	2e00      	cmp	r6, #0
20004bfe:	d07a      	beq.n	20004cf6 <_free_r+0x146>
20004c00:	688c      	ldr	r4, [r1, #8]
20004c02:	68c9      	ldr	r1, [r1, #12]
20004c04:	608c      	str	r4, [r1, #8]
20004c06:	60e1      	str	r1, [r4, #12]
20004c08:	f043 0101 	orr.w	r1, r3, #1
20004c0c:	50d3      	str	r3, [r2, r3]
20004c0e:	6051      	str	r1, [r2, #4]
20004c10:	2e00      	cmp	r6, #0
20004c12:	d147      	bne.n	20004ca4 <_free_r+0xf4>
20004c14:	f5b3 7f00 	cmp.w	r3, #512	; 0x200
20004c18:	d35b      	bcc.n	20004cd2 <_free_r+0x122>
20004c1a:	0a59      	lsrs	r1, r3, #9
20004c1c:	2904      	cmp	r1, #4
20004c1e:	bf9e      	ittt	ls
20004c20:	ea4f 1c93 	movls.w	ip, r3, lsr #6
20004c24:	f10c 0c38 	addls.w	ip, ip, #56	; 0x38
20004c28:	ea4f 04cc 	movls.w	r4, ip, lsl #3
20004c2c:	d928      	bls.n	20004c80 <_free_r+0xd0>
20004c2e:	2914      	cmp	r1, #20
20004c30:	bf9c      	itt	ls
20004c32:	f101 0c5b 	addls.w	ip, r1, #91	; 0x5b
20004c36:	ea4f 04cc 	movls.w	r4, ip, lsl #3
20004c3a:	d921      	bls.n	20004c80 <_free_r+0xd0>
20004c3c:	2954      	cmp	r1, #84	; 0x54
20004c3e:	bf9e      	ittt	ls
20004c40:	ea4f 3c13 	movls.w	ip, r3, lsr #12
20004c44:	f10c 0c6e 	addls.w	ip, ip, #110	; 0x6e
20004c48:	ea4f 04cc 	movls.w	r4, ip, lsl #3
20004c4c:	d918      	bls.n	20004c80 <_free_r+0xd0>
20004c4e:	f5b1 7faa 	cmp.w	r1, #340	; 0x154
20004c52:	bf9e      	ittt	ls
20004c54:	ea4f 3cd3 	movls.w	ip, r3, lsr #15
20004c58:	f10c 0c77 	addls.w	ip, ip, #119	; 0x77
20004c5c:	ea4f 04cc 	movls.w	r4, ip, lsl #3
20004c60:	d90e      	bls.n	20004c80 <_free_r+0xd0>
20004c62:	f240 5c54 	movw	ip, #1364	; 0x554
20004c66:	4561      	cmp	r1, ip
20004c68:	bf95      	itete	ls
20004c6a:	ea4f 4c93 	movls.w	ip, r3, lsr #18
20004c6e:	f44f 747c 	movhi.w	r4, #1008	; 0x3f0
20004c72:	f10c 0c7c 	addls.w	ip, ip, #124	; 0x7c
20004c76:	f04f 0c7e 	movhi.w	ip, #126	; 0x7e
20004c7a:	bf98      	it	ls
20004c7c:	ea4f 04cc 	movls.w	r4, ip, lsl #3
20004c80:	1904      	adds	r4, r0, r4
20004c82:	68a1      	ldr	r1, [r4, #8]
20004c84:	42a1      	cmp	r1, r4
20004c86:	d103      	bne.n	20004c90 <_free_r+0xe0>
20004c88:	e064      	b.n	20004d54 <_free_r+0x1a4>
20004c8a:	6889      	ldr	r1, [r1, #8]
20004c8c:	428c      	cmp	r4, r1
20004c8e:	d004      	beq.n	20004c9a <_free_r+0xea>
20004c90:	6848      	ldr	r0, [r1, #4]
20004c92:	f020 0003 	bic.w	r0, r0, #3
20004c96:	4283      	cmp	r3, r0
20004c98:	d3f7      	bcc.n	20004c8a <_free_r+0xda>
20004c9a:	68cb      	ldr	r3, [r1, #12]
20004c9c:	60d3      	str	r3, [r2, #12]
20004c9e:	6091      	str	r1, [r2, #8]
20004ca0:	60ca      	str	r2, [r1, #12]
20004ca2:	609a      	str	r2, [r3, #8]
20004ca4:	4628      	mov	r0, r5
20004ca6:	e8bd 41f0 	ldmia.w	sp!, {r4, r5, r6, r7, r8, lr}
20004caa:	f000 bcdd 	b.w	20005668 <__malloc_unlock>
20004cae:	f854 4c08 	ldr.w	r4, [r4, #-8]
20004cb2:	f100 0c08 	add.w	ip, r0, #8
20004cb6:	1b12      	subs	r2, r2, r4
20004cb8:	191b      	adds	r3, r3, r4
20004cba:	6894      	ldr	r4, [r2, #8]
20004cbc:	4564      	cmp	r4, ip
20004cbe:	d047      	beq.n	20004d50 <_free_r+0x1a0>
20004cc0:	f8d2 c00c 	ldr.w	ip, [r2, #12]
20004cc4:	f8cc 4008 	str.w	r4, [ip, #8]
20004cc8:	f8c4 c00c 	str.w	ip, [r4, #12]
20004ccc:	e790      	b.n	20004bf0 <_free_r+0x40>
20004cce:	e8bd 81f0 	ldmia.w	sp!, {r4, r5, r6, r7, r8, pc}
20004cd2:	08db      	lsrs	r3, r3, #3
20004cd4:	f04f 0c01 	mov.w	ip, #1
20004cd8:	6846      	ldr	r6, [r0, #4]
20004cda:	eb00 01c3 	add.w	r1, r0, r3, lsl #3
20004cde:	109b      	asrs	r3, r3, #2
20004ce0:	fa0c f303 	lsl.w	r3, ip, r3
20004ce4:	60d1      	str	r1, [r2, #12]
20004ce6:	688c      	ldr	r4, [r1, #8]
20004ce8:	ea46 0303 	orr.w	r3, r6, r3
20004cec:	6043      	str	r3, [r0, #4]
20004cee:	6094      	str	r4, [r2, #8]
20004cf0:	60e2      	str	r2, [r4, #12]
20004cf2:	608a      	str	r2, [r1, #8]
20004cf4:	e7d6      	b.n	20004ca4 <_free_r+0xf4>
20004cf6:	688c      	ldr	r4, [r1, #8]
20004cf8:	4f1c      	ldr	r7, [pc, #112]	; (20004d6c <_free_r+0x1bc>)
20004cfa:	42bc      	cmp	r4, r7
20004cfc:	d181      	bne.n	20004c02 <_free_r+0x52>
20004cfe:	50d3      	str	r3, [r2, r3]
20004d00:	f043 0301 	orr.w	r3, r3, #1
20004d04:	60e2      	str	r2, [r4, #12]
20004d06:	60a2      	str	r2, [r4, #8]
20004d08:	6053      	str	r3, [r2, #4]
20004d0a:	6094      	str	r4, [r2, #8]
20004d0c:	60d4      	str	r4, [r2, #12]
20004d0e:	e7c9      	b.n	20004ca4 <_free_r+0xf4>
20004d10:	18fb      	adds	r3, r7, r3
20004d12:	f016 0f01 	tst.w	r6, #1
20004d16:	d107      	bne.n	20004d28 <_free_r+0x178>
20004d18:	f854 1c08 	ldr.w	r1, [r4, #-8]
20004d1c:	1a52      	subs	r2, r2, r1
20004d1e:	185b      	adds	r3, r3, r1
20004d20:	68d4      	ldr	r4, [r2, #12]
20004d22:	6891      	ldr	r1, [r2, #8]
20004d24:	60a1      	str	r1, [r4, #8]
20004d26:	60cc      	str	r4, [r1, #12]
20004d28:	f248 117c 	movw	r1, #33148	; 0x817c
20004d2c:	6082      	str	r2, [r0, #8]
20004d2e:	f2c2 0100 	movt	r1, #8192	; 0x2000
20004d32:	f043 0001 	orr.w	r0, r3, #1
20004d36:	6050      	str	r0, [r2, #4]
20004d38:	680a      	ldr	r2, [r1, #0]
20004d3a:	4293      	cmp	r3, r2
20004d3c:	d3b2      	bcc.n	20004ca4 <_free_r+0xf4>
20004d3e:	f248 43c0 	movw	r3, #33984	; 0x84c0
20004d42:	4628      	mov	r0, r5
20004d44:	f2c2 0300 	movt	r3, #8192	; 0x2000
20004d48:	6819      	ldr	r1, [r3, #0]
20004d4a:	f7ff fedd 	bl	20004b08 <_malloc_trim_r>
20004d4e:	e7a9      	b.n	20004ca4 <_free_r+0xf4>
20004d50:	2601      	movs	r6, #1
20004d52:	e74d      	b.n	20004bf0 <_free_r+0x40>
20004d54:	2601      	movs	r6, #1
20004d56:	6844      	ldr	r4, [r0, #4]
20004d58:	ea4f 0cac 	mov.w	ip, ip, asr #2
20004d5c:	460b      	mov	r3, r1
20004d5e:	fa06 fc0c 	lsl.w	ip, r6, ip
20004d62:	ea44 040c 	orr.w	r4, r4, ip
20004d66:	6044      	str	r4, [r0, #4]
20004d68:	e798      	b.n	20004c9c <_free_r+0xec>
20004d6a:	bf00      	nop
20004d6c:	20007d78 	.word	0x20007d78

20004d70 <__locale_charset>:
20004d70:	f647 2370 	movw	r3, #31344	; 0x7a70
20004d74:	f2c2 0300 	movt	r3, #8192	; 0x2000
20004d78:	6818      	ldr	r0, [r3, #0]
20004d7a:	4770      	bx	lr

20004d7c <_localeconv_r>:
20004d7c:	4800      	ldr	r0, [pc, #0]	; (20004d80 <_localeconv_r+0x4>)
20004d7e:	4770      	bx	lr
20004d80:	20007a74 	.word	0x20007a74

20004d84 <localeconv>:
20004d84:	4800      	ldr	r0, [pc, #0]	; (20004d88 <localeconv+0x4>)
20004d86:	4770      	bx	lr
20004d88:	20007a74 	.word	0x20007a74

20004d8c <_setlocale_r>:
20004d8c:	b570      	push	{r4, r5, r6, lr}
20004d8e:	4605      	mov	r5, r0
20004d90:	460e      	mov	r6, r1
20004d92:	4614      	mov	r4, r2
20004d94:	b172      	cbz	r2, 20004db4 <_setlocale_r+0x28>
20004d96:	f647 11f8 	movw	r1, #31224	; 0x79f8
20004d9a:	4610      	mov	r0, r2
20004d9c:	f2c2 0100 	movt	r1, #8192	; 0x2000
20004da0:	f001 fb1e 	bl	200063e0 <strcmp>
20004da4:	b958      	cbnz	r0, 20004dbe <_setlocale_r+0x32>
20004da6:	f647 10f8 	movw	r0, #31224	; 0x79f8
20004daa:	622c      	str	r4, [r5, #32]
20004dac:	f2c2 0000 	movt	r0, #8192	; 0x2000
20004db0:	61ee      	str	r6, [r5, #28]
20004db2:	bd70      	pop	{r4, r5, r6, pc}
20004db4:	f647 10f8 	movw	r0, #31224	; 0x79f8
20004db8:	f2c2 0000 	movt	r0, #8192	; 0x2000
20004dbc:	bd70      	pop	{r4, r5, r6, pc}
20004dbe:	f647 212c 	movw	r1, #31276	; 0x7a2c
20004dc2:	4620      	mov	r0, r4
20004dc4:	f2c2 0100 	movt	r1, #8192	; 0x2000
20004dc8:	f001 fb0a 	bl	200063e0 <strcmp>
20004dcc:	2800      	cmp	r0, #0
20004dce:	d0ea      	beq.n	20004da6 <_setlocale_r+0x1a>
20004dd0:	2000      	movs	r0, #0
20004dd2:	bd70      	pop	{r4, r5, r6, pc}

20004dd4 <setlocale>:
20004dd4:	f647 437c 	movw	r3, #31868	; 0x7c7c
20004dd8:	460a      	mov	r2, r1
20004dda:	f2c2 0300 	movt	r3, #8192	; 0x2000
20004dde:	4601      	mov	r1, r0
20004de0:	6818      	ldr	r0, [r3, #0]
20004de2:	e7d3      	b.n	20004d8c <_setlocale_r>

20004de4 <free>:
20004de4:	f647 437c 	movw	r3, #31868	; 0x7c7c
20004de8:	4601      	mov	r1, r0
20004dea:	f2c2 0300 	movt	r3, #8192	; 0x2000
20004dee:	6818      	ldr	r0, [r3, #0]
20004df0:	f7ff bede 	b.w	20004bb0 <_free_r>

20004df4 <malloc>:
20004df4:	f647 437c 	movw	r3, #31868	; 0x7c7c
20004df8:	4601      	mov	r1, r0
20004dfa:	f2c2 0300 	movt	r3, #8192	; 0x2000
20004dfe:	6818      	ldr	r0, [r3, #0]
20004e00:	f000 b800 	b.w	20004e04 <_malloc_r>

20004e04 <_malloc_r>:
20004e04:	e92d 4ff0 	stmdb	sp!, {r4, r5, r6, r7, r8, r9, sl, fp, lr}
20004e08:	f101 040b 	add.w	r4, r1, #11
20004e0c:	2c16      	cmp	r4, #22
20004e0e:	b083      	sub	sp, #12
20004e10:	4606      	mov	r6, r0
20004e12:	d82f      	bhi.n	20004e74 <_malloc_r+0x70>
20004e14:	2300      	movs	r3, #0
20004e16:	2410      	movs	r4, #16
20004e18:	428c      	cmp	r4, r1
20004e1a:	bf2c      	ite	cs
20004e1c:	4619      	movcs	r1, r3
20004e1e:	f043 0101 	orrcc.w	r1, r3, #1
20004e22:	2900      	cmp	r1, #0
20004e24:	d130      	bne.n	20004e88 <_malloc_r+0x84>
20004e26:	4630      	mov	r0, r6
20004e28:	f000 fc1c 	bl	20005664 <__malloc_lock>
20004e2c:	f5b4 7ffc 	cmp.w	r4, #504	; 0x1f8
20004e30:	d22e      	bcs.n	20004e90 <_malloc_r+0x8c>
20004e32:	ea4f 0ed4 	mov.w	lr, r4, lsr #3
20004e36:	f647 5570 	movw	r5, #32112	; 0x7d70
20004e3a:	f2c2 0500 	movt	r5, #8192	; 0x2000
20004e3e:	eb05 02ce 	add.w	r2, r5, lr, lsl #3
20004e42:	68d3      	ldr	r3, [r2, #12]
20004e44:	4293      	cmp	r3, r2
20004e46:	f000 8206 	beq.w	20005256 <_malloc_r+0x452>
20004e4a:	685a      	ldr	r2, [r3, #4]
20004e4c:	f103 0508 	add.w	r5, r3, #8
20004e50:	68d9      	ldr	r1, [r3, #12]
20004e52:	4630      	mov	r0, r6
20004e54:	f022 0c03 	bic.w	ip, r2, #3
20004e58:	689a      	ldr	r2, [r3, #8]
20004e5a:	4463      	add	r3, ip
20004e5c:	685c      	ldr	r4, [r3, #4]
20004e5e:	608a      	str	r2, [r1, #8]
20004e60:	f044 0401 	orr.w	r4, r4, #1
20004e64:	60d1      	str	r1, [r2, #12]
20004e66:	605c      	str	r4, [r3, #4]
20004e68:	f000 fbfe 	bl	20005668 <__malloc_unlock>
20004e6c:	4628      	mov	r0, r5
20004e6e:	b003      	add	sp, #12
20004e70:	e8bd 8ff0 	ldmia.w	sp!, {r4, r5, r6, r7, r8, r9, sl, fp, pc}
20004e74:	f024 0407 	bic.w	r4, r4, #7
20004e78:	0fe3      	lsrs	r3, r4, #31
20004e7a:	428c      	cmp	r4, r1
20004e7c:	bf2c      	ite	cs
20004e7e:	4619      	movcs	r1, r3
20004e80:	f043 0101 	orrcc.w	r1, r3, #1
20004e84:	2900      	cmp	r1, #0
20004e86:	d0ce      	beq.n	20004e26 <_malloc_r+0x22>
20004e88:	230c      	movs	r3, #12
20004e8a:	2500      	movs	r5, #0
20004e8c:	6033      	str	r3, [r6, #0]
20004e8e:	e7ed      	b.n	20004e6c <_malloc_r+0x68>
20004e90:	ea5f 2e54 	movs.w	lr, r4, lsr #9
20004e94:	bf04      	itt	eq
20004e96:	ea4f 0ed4 	moveq.w	lr, r4, lsr #3
20004e9a:	ea4f 00ce 	moveq.w	r0, lr, lsl #3
20004e9e:	f040 8090 	bne.w	20004fc2 <_malloc_r+0x1be>
20004ea2:	f647 5570 	movw	r5, #32112	; 0x7d70
20004ea6:	f2c2 0500 	movt	r5, #8192	; 0x2000
20004eaa:	1828      	adds	r0, r5, r0
20004eac:	68c3      	ldr	r3, [r0, #12]
20004eae:	4298      	cmp	r0, r3
20004eb0:	d106      	bne.n	20004ec0 <_malloc_r+0xbc>
20004eb2:	e00d      	b.n	20004ed0 <_malloc_r+0xcc>
20004eb4:	2a00      	cmp	r2, #0
20004eb6:	f280 816f 	bge.w	20005198 <_malloc_r+0x394>
20004eba:	68db      	ldr	r3, [r3, #12]
20004ebc:	4298      	cmp	r0, r3
20004ebe:	d007      	beq.n	20004ed0 <_malloc_r+0xcc>
20004ec0:	6859      	ldr	r1, [r3, #4]
20004ec2:	f021 0103 	bic.w	r1, r1, #3
20004ec6:	1b0a      	subs	r2, r1, r4
20004ec8:	2a0f      	cmp	r2, #15
20004eca:	ddf3      	ble.n	20004eb4 <_malloc_r+0xb0>
20004ecc:	f10e 3eff 	add.w	lr, lr, #4294967295
20004ed0:	f10e 0e01 	add.w	lr, lr, #1
20004ed4:	f647 5770 	movw	r7, #32112	; 0x7d70
20004ed8:	f2c2 0700 	movt	r7, #8192	; 0x2000
20004edc:	f107 0108 	add.w	r1, r7, #8
20004ee0:	688b      	ldr	r3, [r1, #8]
20004ee2:	4299      	cmp	r1, r3
20004ee4:	bf08      	it	eq
20004ee6:	687a      	ldreq	r2, [r7, #4]
20004ee8:	d026      	beq.n	20004f38 <_malloc_r+0x134>
20004eea:	685a      	ldr	r2, [r3, #4]
20004eec:	f022 0c03 	bic.w	ip, r2, #3
20004ef0:	ebc4 020c 	rsb	r2, r4, ip
20004ef4:	2a0f      	cmp	r2, #15
20004ef6:	f300 8194 	bgt.w	20005222 <_malloc_r+0x41e>
20004efa:	2a00      	cmp	r2, #0
20004efc:	60c9      	str	r1, [r1, #12]
20004efe:	6089      	str	r1, [r1, #8]
20004f00:	f280 8099 	bge.w	20005036 <_malloc_r+0x232>
20004f04:	f5bc 7f00 	cmp.w	ip, #512	; 0x200
20004f08:	f080 8165 	bcs.w	200051d6 <_malloc_r+0x3d2>
20004f0c:	ea4f 0cdc 	mov.w	ip, ip, lsr #3
20004f10:	f04f 0a01 	mov.w	sl, #1
20004f14:	687a      	ldr	r2, [r7, #4]
20004f16:	eb07 00cc 	add.w	r0, r7, ip, lsl #3
20004f1a:	ea4f 0cac 	mov.w	ip, ip, asr #2
20004f1e:	fa0a fc0c 	lsl.w	ip, sl, ip
20004f22:	60d8      	str	r0, [r3, #12]
20004f24:	f8d0 8008 	ldr.w	r8, [r0, #8]
20004f28:	ea4c 0202 	orr.w	r2, ip, r2
20004f2c:	607a      	str	r2, [r7, #4]
20004f2e:	f8c3 8008 	str.w	r8, [r3, #8]
20004f32:	f8c8 300c 	str.w	r3, [r8, #12]
20004f36:	6083      	str	r3, [r0, #8]
20004f38:	f04f 0c01 	mov.w	ip, #1
20004f3c:	ea4f 03ae 	mov.w	r3, lr, asr #2
20004f40:	fa0c fc03 	lsl.w	ip, ip, r3
20004f44:	4594      	cmp	ip, r2
20004f46:	f200 8082 	bhi.w	2000504e <_malloc_r+0x24a>
20004f4a:	ea12 0f0c 	tst.w	r2, ip
20004f4e:	d108      	bne.n	20004f62 <_malloc_r+0x15e>
20004f50:	f02e 0e03 	bic.w	lr, lr, #3
20004f54:	ea4f 0c4c 	mov.w	ip, ip, lsl #1
20004f58:	f10e 0e04 	add.w	lr, lr, #4
20004f5c:	ea12 0f0c 	tst.w	r2, ip
20004f60:	d0f8      	beq.n	20004f54 <_malloc_r+0x150>
20004f62:	eb07 09ce 	add.w	r9, r7, lr, lsl #3
20004f66:	46f2      	mov	sl, lr
20004f68:	46c8      	mov	r8, r9
20004f6a:	f8d8 300c 	ldr.w	r3, [r8, #12]
20004f6e:	4598      	cmp	r8, r3
20004f70:	d107      	bne.n	20004f82 <_malloc_r+0x17e>
20004f72:	e168      	b.n	20005246 <_malloc_r+0x442>
20004f74:	2a00      	cmp	r2, #0
20004f76:	f280 8178 	bge.w	2000526a <_malloc_r+0x466>
20004f7a:	68db      	ldr	r3, [r3, #12]
20004f7c:	4598      	cmp	r8, r3
20004f7e:	f000 8162 	beq.w	20005246 <_malloc_r+0x442>
20004f82:	6858      	ldr	r0, [r3, #4]
20004f84:	f020 0003 	bic.w	r0, r0, #3
20004f88:	1b02      	subs	r2, r0, r4
20004f8a:	2a0f      	cmp	r2, #15
20004f8c:	ddf2      	ble.n	20004f74 <_malloc_r+0x170>
20004f8e:	461d      	mov	r5, r3
20004f90:	191f      	adds	r7, r3, r4
20004f92:	f8d3 c00c 	ldr.w	ip, [r3, #12]
20004f96:	f044 0e01 	orr.w	lr, r4, #1
20004f9a:	f855 4f08 	ldr.w	r4, [r5, #8]!
20004f9e:	4630      	mov	r0, r6
20004fa0:	50ba      	str	r2, [r7, r2]
20004fa2:	f042 0201 	orr.w	r2, r2, #1
20004fa6:	f8c3 e004 	str.w	lr, [r3, #4]
20004faa:	f8cc 4008 	str.w	r4, [ip, #8]
20004fae:	f8c4 c00c 	str.w	ip, [r4, #12]
20004fb2:	608f      	str	r7, [r1, #8]
20004fb4:	60cf      	str	r7, [r1, #12]
20004fb6:	607a      	str	r2, [r7, #4]
20004fb8:	60b9      	str	r1, [r7, #8]
20004fba:	60f9      	str	r1, [r7, #12]
20004fbc:	f000 fb54 	bl	20005668 <__malloc_unlock>
20004fc0:	e754      	b.n	20004e6c <_malloc_r+0x68>
20004fc2:	f1be 0f04 	cmp.w	lr, #4
20004fc6:	bf9e      	ittt	ls
20004fc8:	ea4f 1e94 	movls.w	lr, r4, lsr #6
20004fcc:	f10e 0e38 	addls.w	lr, lr, #56	; 0x38
20004fd0:	ea4f 00ce 	movls.w	r0, lr, lsl #3
20004fd4:	f67f af65 	bls.w	20004ea2 <_malloc_r+0x9e>
20004fd8:	f1be 0f14 	cmp.w	lr, #20
20004fdc:	bf9c      	itt	ls
20004fde:	f10e 0e5b 	addls.w	lr, lr, #91	; 0x5b
20004fe2:	ea4f 00ce 	movls.w	r0, lr, lsl #3
20004fe6:	f67f af5c 	bls.w	20004ea2 <_malloc_r+0x9e>
20004fea:	f1be 0f54 	cmp.w	lr, #84	; 0x54
20004fee:	bf9e      	ittt	ls
20004ff0:	ea4f 3e14 	movls.w	lr, r4, lsr #12
20004ff4:	f10e 0e6e 	addls.w	lr, lr, #110	; 0x6e
20004ff8:	ea4f 00ce 	movls.w	r0, lr, lsl #3
20004ffc:	f67f af51 	bls.w	20004ea2 <_malloc_r+0x9e>
20005000:	f5be 7faa 	cmp.w	lr, #340	; 0x154
20005004:	bf9e      	ittt	ls
20005006:	ea4f 3ed4 	movls.w	lr, r4, lsr #15
2000500a:	f10e 0e77 	addls.w	lr, lr, #119	; 0x77
2000500e:	ea4f 00ce 	movls.w	r0, lr, lsl #3
20005012:	f67f af46 	bls.w	20004ea2 <_malloc_r+0x9e>
20005016:	f240 5354 	movw	r3, #1364	; 0x554
2000501a:	459e      	cmp	lr, r3
2000501c:	bf95      	itete	ls
2000501e:	ea4f 4e94 	movls.w	lr, r4, lsr #18
20005022:	f44f 707c 	movhi.w	r0, #1008	; 0x3f0
20005026:	f10e 0e7c 	addls.w	lr, lr, #124	; 0x7c
2000502a:	f04f 0e7e 	movhi.w	lr, #126	; 0x7e
2000502e:	bf98      	it	ls
20005030:	ea4f 00ce 	movls.w	r0, lr, lsl #3
20005034:	e735      	b.n	20004ea2 <_malloc_r+0x9e>
20005036:	eb03 020c 	add.w	r2, r3, ip
2000503a:	f103 0508 	add.w	r5, r3, #8
2000503e:	4630      	mov	r0, r6
20005040:	6853      	ldr	r3, [r2, #4]
20005042:	f043 0301 	orr.w	r3, r3, #1
20005046:	6053      	str	r3, [r2, #4]
20005048:	f000 fb0e 	bl	20005668 <__malloc_unlock>
2000504c:	e70e      	b.n	20004e6c <_malloc_r+0x68>
2000504e:	f8d7 8008 	ldr.w	r8, [r7, #8]
20005052:	f8d8 3004 	ldr.w	r3, [r8, #4]
20005056:	f023 0903 	bic.w	r9, r3, #3
2000505a:	ebc4 0209 	rsb	r2, r4, r9
2000505e:	454c      	cmp	r4, r9
20005060:	bf94      	ite	ls
20005062:	2300      	movls	r3, #0
20005064:	2301      	movhi	r3, #1
20005066:	2a0f      	cmp	r2, #15
20005068:	bfd8      	it	le
2000506a:	f043 0301 	orrle.w	r3, r3, #1
2000506e:	2b00      	cmp	r3, #0
20005070:	f000 80a1 	beq.w	200051b6 <_malloc_r+0x3b2>
20005074:	f248 4bc0 	movw	fp, #33984	; 0x84c0
20005078:	f8d5 2408 	ldr.w	r2, [r5, #1032]	; 0x408
2000507c:	f2c2 0b00 	movt	fp, #8192	; 0x2000
20005080:	f8db 3000 	ldr.w	r3, [fp]
20005084:	3310      	adds	r3, #16
20005086:	191b      	adds	r3, r3, r4
20005088:	f1b2 3fff 	cmp.w	r2, #4294967295
2000508c:	d006      	beq.n	2000509c <_malloc_r+0x298>
2000508e:	f503 637e 	add.w	r3, r3, #4064	; 0xfe0
20005092:	331f      	adds	r3, #31
20005094:	f423 637e 	bic.w	r3, r3, #4064	; 0xfe0
20005098:	f023 031f 	bic.w	r3, r3, #31
2000509c:	4619      	mov	r1, r3
2000509e:	4630      	mov	r0, r6
200050a0:	9301      	str	r3, [sp, #4]
200050a2:	f001 f989 	bl	200063b8 <_sbrk_r>
200050a6:	9b01      	ldr	r3, [sp, #4]
200050a8:	f1b0 3fff 	cmp.w	r0, #4294967295
200050ac:	4682      	mov	sl, r0
200050ae:	f000 80f4 	beq.w	2000529a <_malloc_r+0x496>
200050b2:	eb08 0109 	add.w	r1, r8, r9
200050b6:	4281      	cmp	r1, r0
200050b8:	f200 80ec 	bhi.w	20005294 <_malloc_r+0x490>
200050bc:	f8db 2004 	ldr.w	r2, [fp, #4]
200050c0:	189a      	adds	r2, r3, r2
200050c2:	4551      	cmp	r1, sl
200050c4:	f8cb 2004 	str.w	r2, [fp, #4]
200050c8:	f000 8145 	beq.w	20005356 <_malloc_r+0x552>
200050cc:	f8d5 5408 	ldr.w	r5, [r5, #1032]	; 0x408
200050d0:	f647 5070 	movw	r0, #32112	; 0x7d70
200050d4:	f2c2 0000 	movt	r0, #8192	; 0x2000
200050d8:	f1b5 3fff 	cmp.w	r5, #4294967295
200050dc:	bf08      	it	eq
200050de:	f8c0 a408 	streq.w	sl, [r0, #1032]	; 0x408
200050e2:	d003      	beq.n	200050ec <_malloc_r+0x2e8>
200050e4:	4452      	add	r2, sl
200050e6:	1a51      	subs	r1, r2, r1
200050e8:	f8cb 1004 	str.w	r1, [fp, #4]
200050ec:	f01a 0507 	ands.w	r5, sl, #7
200050f0:	4630      	mov	r0, r6
200050f2:	bf17      	itett	ne
200050f4:	f1c5 0508 	rsbne	r5, r5, #8
200050f8:	f44f 5580 	moveq.w	r5, #4096	; 0x1000
200050fc:	44aa      	addne	sl, r5
200050fe:	f505 5580 	addne.w	r5, r5, #4096	; 0x1000
20005102:	4453      	add	r3, sl
20005104:	051b      	lsls	r3, r3, #20
20005106:	0d1b      	lsrs	r3, r3, #20
20005108:	1aed      	subs	r5, r5, r3
2000510a:	4629      	mov	r1, r5
2000510c:	f001 f954 	bl	200063b8 <_sbrk_r>
20005110:	f1b0 3fff 	cmp.w	r0, #4294967295
20005114:	f000 812c 	beq.w	20005370 <_malloc_r+0x56c>
20005118:	ebca 0100 	rsb	r1, sl, r0
2000511c:	1949      	adds	r1, r1, r5
2000511e:	f041 0101 	orr.w	r1, r1, #1
20005122:	f8db 2004 	ldr.w	r2, [fp, #4]
20005126:	f248 43c0 	movw	r3, #33984	; 0x84c0
2000512a:	f8c7 a008 	str.w	sl, [r7, #8]
2000512e:	f2c2 0300 	movt	r3, #8192	; 0x2000
20005132:	18aa      	adds	r2, r5, r2
20005134:	45b8      	cmp	r8, r7
20005136:	f8cb 2004 	str.w	r2, [fp, #4]
2000513a:	f8ca 1004 	str.w	r1, [sl, #4]
2000513e:	d017      	beq.n	20005170 <_malloc_r+0x36c>
20005140:	f1b9 0f0f 	cmp.w	r9, #15
20005144:	f240 80df 	bls.w	20005306 <_malloc_r+0x502>
20005148:	f1a9 010c 	sub.w	r1, r9, #12
2000514c:	2505      	movs	r5, #5
2000514e:	f021 0107 	bic.w	r1, r1, #7
20005152:	eb08 0001 	add.w	r0, r8, r1
20005156:	290f      	cmp	r1, #15
20005158:	6085      	str	r5, [r0, #8]
2000515a:	6045      	str	r5, [r0, #4]
2000515c:	f8d8 0004 	ldr.w	r0, [r8, #4]
20005160:	f000 0001 	and.w	r0, r0, #1
20005164:	ea41 0000 	orr.w	r0, r1, r0
20005168:	f8c8 0004 	str.w	r0, [r8, #4]
2000516c:	f200 80ac 	bhi.w	200052c8 <_malloc_r+0x4c4>
20005170:	46d0      	mov	r8, sl
20005172:	f248 43c0 	movw	r3, #33984	; 0x84c0
20005176:	f8db 102c 	ldr.w	r1, [fp, #44]	; 0x2c
2000517a:	f2c2 0300 	movt	r3, #8192	; 0x2000
2000517e:	428a      	cmp	r2, r1
20005180:	f8db 1030 	ldr.w	r1, [fp, #48]	; 0x30
20005184:	bf88      	it	hi
20005186:	62da      	strhi	r2, [r3, #44]	; 0x2c
20005188:	f248 43c0 	movw	r3, #33984	; 0x84c0
2000518c:	f2c2 0300 	movt	r3, #8192	; 0x2000
20005190:	428a      	cmp	r2, r1
20005192:	bf88      	it	hi
20005194:	631a      	strhi	r2, [r3, #48]	; 0x30
20005196:	e082      	b.n	2000529e <_malloc_r+0x49a>
20005198:	185c      	adds	r4, r3, r1
2000519a:	689a      	ldr	r2, [r3, #8]
2000519c:	68d9      	ldr	r1, [r3, #12]
2000519e:	4630      	mov	r0, r6
200051a0:	6866      	ldr	r6, [r4, #4]
200051a2:	f103 0508 	add.w	r5, r3, #8
200051a6:	608a      	str	r2, [r1, #8]
200051a8:	f046 0301 	orr.w	r3, r6, #1
200051ac:	60d1      	str	r1, [r2, #12]
200051ae:	6063      	str	r3, [r4, #4]
200051b0:	f000 fa5a 	bl	20005668 <__malloc_unlock>
200051b4:	e65a      	b.n	20004e6c <_malloc_r+0x68>
200051b6:	eb08 0304 	add.w	r3, r8, r4
200051ba:	f042 0201 	orr.w	r2, r2, #1
200051be:	f044 0401 	orr.w	r4, r4, #1
200051c2:	4630      	mov	r0, r6
200051c4:	f8c8 4004 	str.w	r4, [r8, #4]
200051c8:	f108 0508 	add.w	r5, r8, #8
200051cc:	605a      	str	r2, [r3, #4]
200051ce:	60bb      	str	r3, [r7, #8]
200051d0:	f000 fa4a 	bl	20005668 <__malloc_unlock>
200051d4:	e64a      	b.n	20004e6c <_malloc_r+0x68>
200051d6:	ea4f 225c 	mov.w	r2, ip, lsr #9
200051da:	2a04      	cmp	r2, #4
200051dc:	d954      	bls.n	20005288 <_malloc_r+0x484>
200051de:	2a14      	cmp	r2, #20
200051e0:	f200 8089 	bhi.w	200052f6 <_malloc_r+0x4f2>
200051e4:	325b      	adds	r2, #91	; 0x5b
200051e6:	ea4f 08c2 	mov.w	r8, r2, lsl #3
200051ea:	44a8      	add	r8, r5
200051ec:	f647 5770 	movw	r7, #32112	; 0x7d70
200051f0:	f2c2 0700 	movt	r7, #8192	; 0x2000
200051f4:	f8d8 0008 	ldr.w	r0, [r8, #8]
200051f8:	4540      	cmp	r0, r8
200051fa:	d103      	bne.n	20005204 <_malloc_r+0x400>
200051fc:	e06f      	b.n	200052de <_malloc_r+0x4da>
200051fe:	6880      	ldr	r0, [r0, #8]
20005200:	4580      	cmp	r8, r0
20005202:	d004      	beq.n	2000520e <_malloc_r+0x40a>
20005204:	6842      	ldr	r2, [r0, #4]
20005206:	f022 0203 	bic.w	r2, r2, #3
2000520a:	4594      	cmp	ip, r2
2000520c:	d3f7      	bcc.n	200051fe <_malloc_r+0x3fa>
2000520e:	f8d0 c00c 	ldr.w	ip, [r0, #12]
20005212:	f8c3 c00c 	str.w	ip, [r3, #12]
20005216:	6098      	str	r0, [r3, #8]
20005218:	687a      	ldr	r2, [r7, #4]
2000521a:	60c3      	str	r3, [r0, #12]
2000521c:	f8cc 3008 	str.w	r3, [ip, #8]
20005220:	e68a      	b.n	20004f38 <_malloc_r+0x134>
20005222:	191f      	adds	r7, r3, r4
20005224:	4630      	mov	r0, r6
20005226:	f044 0401 	orr.w	r4, r4, #1
2000522a:	60cf      	str	r7, [r1, #12]
2000522c:	605c      	str	r4, [r3, #4]
2000522e:	f103 0508 	add.w	r5, r3, #8
20005232:	50ba      	str	r2, [r7, r2]
20005234:	f042 0201 	orr.w	r2, r2, #1
20005238:	608f      	str	r7, [r1, #8]
2000523a:	607a      	str	r2, [r7, #4]
2000523c:	60b9      	str	r1, [r7, #8]
2000523e:	60f9      	str	r1, [r7, #12]
20005240:	f000 fa12 	bl	20005668 <__malloc_unlock>
20005244:	e612      	b.n	20004e6c <_malloc_r+0x68>
20005246:	f10a 0a01 	add.w	sl, sl, #1
2000524a:	f01a 0f03 	tst.w	sl, #3
2000524e:	d05f      	beq.n	20005310 <_malloc_r+0x50c>
20005250:	f103 0808 	add.w	r8, r3, #8
20005254:	e689      	b.n	20004f6a <_malloc_r+0x166>
20005256:	f103 0208 	add.w	r2, r3, #8
2000525a:	68d3      	ldr	r3, [r2, #12]
2000525c:	429a      	cmp	r2, r3
2000525e:	bf08      	it	eq
20005260:	f10e 0e02 	addeq.w	lr, lr, #2
20005264:	f43f ae36 	beq.w	20004ed4 <_malloc_r+0xd0>
20005268:	e5ef      	b.n	20004e4a <_malloc_r+0x46>
2000526a:	461d      	mov	r5, r3
2000526c:	1819      	adds	r1, r3, r0
2000526e:	68da      	ldr	r2, [r3, #12]
20005270:	4630      	mov	r0, r6
20005272:	f855 3f08 	ldr.w	r3, [r5, #8]!
20005276:	684c      	ldr	r4, [r1, #4]
20005278:	6093      	str	r3, [r2, #8]
2000527a:	f044 0401 	orr.w	r4, r4, #1
2000527e:	60da      	str	r2, [r3, #12]
20005280:	604c      	str	r4, [r1, #4]
20005282:	f000 f9f1 	bl	20005668 <__malloc_unlock>
20005286:	e5f1      	b.n	20004e6c <_malloc_r+0x68>
20005288:	ea4f 129c 	mov.w	r2, ip, lsr #6
2000528c:	3238      	adds	r2, #56	; 0x38
2000528e:	ea4f 08c2 	mov.w	r8, r2, lsl #3
20005292:	e7aa      	b.n	200051ea <_malloc_r+0x3e6>
20005294:	45b8      	cmp	r8, r7
20005296:	f43f af11 	beq.w	200050bc <_malloc_r+0x2b8>
2000529a:	f8d7 8008 	ldr.w	r8, [r7, #8]
2000529e:	f8d8 2004 	ldr.w	r2, [r8, #4]
200052a2:	f022 0203 	bic.w	r2, r2, #3
200052a6:	4294      	cmp	r4, r2
200052a8:	bf94      	ite	ls
200052aa:	2300      	movls	r3, #0
200052ac:	2301      	movhi	r3, #1
200052ae:	1b12      	subs	r2, r2, r4
200052b0:	2a0f      	cmp	r2, #15
200052b2:	bfd8      	it	le
200052b4:	f043 0301 	orrle.w	r3, r3, #1
200052b8:	2b00      	cmp	r3, #0
200052ba:	f43f af7c 	beq.w	200051b6 <_malloc_r+0x3b2>
200052be:	4630      	mov	r0, r6
200052c0:	2500      	movs	r5, #0
200052c2:	f000 f9d1 	bl	20005668 <__malloc_unlock>
200052c6:	e5d1      	b.n	20004e6c <_malloc_r+0x68>
200052c8:	f108 0108 	add.w	r1, r8, #8
200052cc:	4630      	mov	r0, r6
200052ce:	9301      	str	r3, [sp, #4]
200052d0:	f7ff fc6e 	bl	20004bb0 <_free_r>
200052d4:	9b01      	ldr	r3, [sp, #4]
200052d6:	f8d7 8008 	ldr.w	r8, [r7, #8]
200052da:	685a      	ldr	r2, [r3, #4]
200052dc:	e749      	b.n	20005172 <_malloc_r+0x36e>
200052de:	f04f 0a01 	mov.w	sl, #1
200052e2:	f8d7 8004 	ldr.w	r8, [r7, #4]
200052e6:	1092      	asrs	r2, r2, #2
200052e8:	4684      	mov	ip, r0
200052ea:	fa0a f202 	lsl.w	r2, sl, r2
200052ee:	ea48 0202 	orr.w	r2, r8, r2
200052f2:	607a      	str	r2, [r7, #4]
200052f4:	e78d      	b.n	20005212 <_malloc_r+0x40e>
200052f6:	2a54      	cmp	r2, #84	; 0x54
200052f8:	d824      	bhi.n	20005344 <_malloc_r+0x540>
200052fa:	ea4f 321c 	mov.w	r2, ip, lsr #12
200052fe:	326e      	adds	r2, #110	; 0x6e
20005300:	ea4f 08c2 	mov.w	r8, r2, lsl #3
20005304:	e771      	b.n	200051ea <_malloc_r+0x3e6>
20005306:	2301      	movs	r3, #1
20005308:	46d0      	mov	r8, sl
2000530a:	f8ca 3004 	str.w	r3, [sl, #4]
2000530e:	e7c6      	b.n	2000529e <_malloc_r+0x49a>
20005310:	464a      	mov	r2, r9
20005312:	f01e 0f03 	tst.w	lr, #3
20005316:	4613      	mov	r3, r2
20005318:	f10e 3eff 	add.w	lr, lr, #4294967295
2000531c:	d033      	beq.n	20005386 <_malloc_r+0x582>
2000531e:	f853 2908 	ldr.w	r2, [r3], #-8
20005322:	429a      	cmp	r2, r3
20005324:	d0f5      	beq.n	20005312 <_malloc_r+0x50e>
20005326:	687b      	ldr	r3, [r7, #4]
20005328:	ea4f 0c4c 	mov.w	ip, ip, lsl #1
2000532c:	459c      	cmp	ip, r3
2000532e:	f63f ae8e 	bhi.w	2000504e <_malloc_r+0x24a>
20005332:	f1bc 0f00 	cmp.w	ip, #0
20005336:	f43f ae8a 	beq.w	2000504e <_malloc_r+0x24a>
2000533a:	ea1c 0f03 	tst.w	ip, r3
2000533e:	d027      	beq.n	20005390 <_malloc_r+0x58c>
20005340:	46d6      	mov	lr, sl
20005342:	e60e      	b.n	20004f62 <_malloc_r+0x15e>
20005344:	f5b2 7faa 	cmp.w	r2, #340	; 0x154
20005348:	d815      	bhi.n	20005376 <_malloc_r+0x572>
2000534a:	ea4f 32dc 	mov.w	r2, ip, lsr #15
2000534e:	3277      	adds	r2, #119	; 0x77
20005350:	ea4f 08c2 	mov.w	r8, r2, lsl #3
20005354:	e749      	b.n	200051ea <_malloc_r+0x3e6>
20005356:	0508      	lsls	r0, r1, #20
20005358:	0d00      	lsrs	r0, r0, #20
2000535a:	2800      	cmp	r0, #0
2000535c:	f47f aeb6 	bne.w	200050cc <_malloc_r+0x2c8>
20005360:	f8d7 8008 	ldr.w	r8, [r7, #8]
20005364:	444b      	add	r3, r9
20005366:	f043 0301 	orr.w	r3, r3, #1
2000536a:	f8c8 3004 	str.w	r3, [r8, #4]
2000536e:	e700      	b.n	20005172 <_malloc_r+0x36e>
20005370:	2101      	movs	r1, #1
20005372:	2500      	movs	r5, #0
20005374:	e6d5      	b.n	20005122 <_malloc_r+0x31e>
20005376:	f240 5054 	movw	r0, #1364	; 0x554
2000537a:	4282      	cmp	r2, r0
2000537c:	d90d      	bls.n	2000539a <_malloc_r+0x596>
2000537e:	f44f 787c 	mov.w	r8, #1008	; 0x3f0
20005382:	227e      	movs	r2, #126	; 0x7e
20005384:	e731      	b.n	200051ea <_malloc_r+0x3e6>
20005386:	687b      	ldr	r3, [r7, #4]
20005388:	ea23 030c 	bic.w	r3, r3, ip
2000538c:	607b      	str	r3, [r7, #4]
2000538e:	e7cb      	b.n	20005328 <_malloc_r+0x524>
20005390:	ea4f 0c4c 	mov.w	ip, ip, lsl #1
20005394:	f10a 0a04 	add.w	sl, sl, #4
20005398:	e7cf      	b.n	2000533a <_malloc_r+0x536>
2000539a:	ea4f 429c 	mov.w	r2, ip, lsr #18
2000539e:	327c      	adds	r2, #124	; 0x7c
200053a0:	ea4f 08c2 	mov.w	r8, r2, lsl #3
200053a4:	e721      	b.n	200051ea <_malloc_r+0x3e6>
200053a6:	bf00      	nop

200053a8 <memchr>:
200053a8:	f010 0f03 	tst.w	r0, #3
200053ac:	b2c9      	uxtb	r1, r1
200053ae:	b410      	push	{r4}
200053b0:	d010      	beq.n	200053d4 <memchr+0x2c>
200053b2:	2a00      	cmp	r2, #0
200053b4:	d02f      	beq.n	20005416 <memchr+0x6e>
200053b6:	7803      	ldrb	r3, [r0, #0]
200053b8:	428b      	cmp	r3, r1
200053ba:	d02a      	beq.n	20005412 <memchr+0x6a>
200053bc:	3a01      	subs	r2, #1
200053be:	e005      	b.n	200053cc <memchr+0x24>
200053c0:	2a00      	cmp	r2, #0
200053c2:	d028      	beq.n	20005416 <memchr+0x6e>
200053c4:	7803      	ldrb	r3, [r0, #0]
200053c6:	3a01      	subs	r2, #1
200053c8:	428b      	cmp	r3, r1
200053ca:	d022      	beq.n	20005412 <memchr+0x6a>
200053cc:	3001      	adds	r0, #1
200053ce:	f010 0f03 	tst.w	r0, #3
200053d2:	d1f5      	bne.n	200053c0 <memchr+0x18>
200053d4:	2a03      	cmp	r2, #3
200053d6:	d911      	bls.n	200053fc <memchr+0x54>
200053d8:	ea41 2401 	orr.w	r4, r1, r1, lsl #8
200053dc:	ea44 4404 	orr.w	r4, r4, r4, lsl #16
200053e0:	6803      	ldr	r3, [r0, #0]
200053e2:	ea84 0303 	eor.w	r3, r4, r3
200053e6:	f1a3 3c01 	sub.w	ip, r3, #16843009	; 0x1010101
200053ea:	ea2c 0303 	bic.w	r3, ip, r3
200053ee:	f013 3f80 	tst.w	r3, #2155905152	; 0x80808080
200053f2:	d103      	bne.n	200053fc <memchr+0x54>
200053f4:	3a04      	subs	r2, #4
200053f6:	3004      	adds	r0, #4
200053f8:	2a03      	cmp	r2, #3
200053fa:	d8f1      	bhi.n	200053e0 <memchr+0x38>
200053fc:	b15a      	cbz	r2, 20005416 <memchr+0x6e>
200053fe:	7803      	ldrb	r3, [r0, #0]
20005400:	428b      	cmp	r3, r1
20005402:	d006      	beq.n	20005412 <memchr+0x6a>
20005404:	3a01      	subs	r2, #1
20005406:	b132      	cbz	r2, 20005416 <memchr+0x6e>
20005408:	f810 3f01 	ldrb.w	r3, [r0, #1]!
2000540c:	3a01      	subs	r2, #1
2000540e:	428b      	cmp	r3, r1
20005410:	d1f9      	bne.n	20005406 <memchr+0x5e>
20005412:	bc10      	pop	{r4}
20005414:	4770      	bx	lr
20005416:	2000      	movs	r0, #0
20005418:	e7fb      	b.n	20005412 <memchr+0x6a>
2000541a:	bf00      	nop

2000541c <memcpy>:
2000541c:	2a03      	cmp	r2, #3
2000541e:	e92d 07f0 	stmdb	sp!, {r4, r5, r6, r7, r8, r9, sl}
20005422:	d80b      	bhi.n	2000543c <memcpy+0x20>
20005424:	b13a      	cbz	r2, 20005436 <memcpy+0x1a>
20005426:	2300      	movs	r3, #0
20005428:	f811 c003 	ldrb.w	ip, [r1, r3]
2000542c:	f800 c003 	strb.w	ip, [r0, r3]
20005430:	3301      	adds	r3, #1
20005432:	4293      	cmp	r3, r2
20005434:	d1f8      	bne.n	20005428 <memcpy+0xc>
20005436:	e8bd 07f0 	ldmia.w	sp!, {r4, r5, r6, r7, r8, r9, sl}
2000543a:	4770      	bx	lr
2000543c:	1882      	adds	r2, r0, r2
2000543e:	460c      	mov	r4, r1
20005440:	4603      	mov	r3, r0
20005442:	e003      	b.n	2000544c <memcpy+0x30>
20005444:	f814 1c01 	ldrb.w	r1, [r4, #-1]
20005448:	f803 1c01 	strb.w	r1, [r3, #-1]
2000544c:	f003 0603 	and.w	r6, r3, #3
20005450:	4619      	mov	r1, r3
20005452:	46a4      	mov	ip, r4
20005454:	3301      	adds	r3, #1
20005456:	3401      	adds	r4, #1
20005458:	2e00      	cmp	r6, #0
2000545a:	d1f3      	bne.n	20005444 <memcpy+0x28>
2000545c:	f01c 0403 	ands.w	r4, ip, #3
20005460:	4663      	mov	r3, ip
20005462:	bf08      	it	eq
20005464:	ebc1 0c02 	rsbeq	ip, r1, r2
20005468:	d068      	beq.n	2000553c <memcpy+0x120>
2000546a:	4265      	negs	r5, r4
2000546c:	f1c4 0a04 	rsb	sl, r4, #4
20005470:	eb0c 0705 	add.w	r7, ip, r5
20005474:	4633      	mov	r3, r6
20005476:	ea4f 0aca 	mov.w	sl, sl, lsl #3
2000547a:	f85c 6005 	ldr.w	r6, [ip, r5]
2000547e:	ea4f 08c4 	mov.w	r8, r4, lsl #3
20005482:	1a55      	subs	r5, r2, r1
20005484:	e008      	b.n	20005498 <memcpy+0x7c>
20005486:	f857 4f04 	ldr.w	r4, [r7, #4]!
2000548a:	4626      	mov	r6, r4
2000548c:	fa04 f40a 	lsl.w	r4, r4, sl
20005490:	ea49 0404 	orr.w	r4, r9, r4
20005494:	50cc      	str	r4, [r1, r3]
20005496:	3304      	adds	r3, #4
20005498:	185c      	adds	r4, r3, r1
2000549a:	2d03      	cmp	r5, #3
2000549c:	fa26 f908 	lsr.w	r9, r6, r8
200054a0:	f1a5 0504 	sub.w	r5, r5, #4
200054a4:	eb0c 0603 	add.w	r6, ip, r3
200054a8:	dced      	bgt.n	20005486 <memcpy+0x6a>
200054aa:	2300      	movs	r3, #0
200054ac:	e002      	b.n	200054b4 <memcpy+0x98>
200054ae:	5cf1      	ldrb	r1, [r6, r3]
200054b0:	54e1      	strb	r1, [r4, r3]
200054b2:	3301      	adds	r3, #1
200054b4:	1919      	adds	r1, r3, r4
200054b6:	4291      	cmp	r1, r2
200054b8:	d3f9      	bcc.n	200054ae <memcpy+0x92>
200054ba:	e7bc      	b.n	20005436 <memcpy+0x1a>
200054bc:	f853 4c40 	ldr.w	r4, [r3, #-64]
200054c0:	f841 4c40 	str.w	r4, [r1, #-64]
200054c4:	f853 4c3c 	ldr.w	r4, [r3, #-60]
200054c8:	f841 4c3c 	str.w	r4, [r1, #-60]
200054cc:	f853 4c38 	ldr.w	r4, [r3, #-56]
200054d0:	f841 4c38 	str.w	r4, [r1, #-56]
200054d4:	f853 4c34 	ldr.w	r4, [r3, #-52]
200054d8:	f841 4c34 	str.w	r4, [r1, #-52]
200054dc:	f853 4c30 	ldr.w	r4, [r3, #-48]
200054e0:	f841 4c30 	str.w	r4, [r1, #-48]
200054e4:	f853 4c2c 	ldr.w	r4, [r3, #-44]
200054e8:	f841 4c2c 	str.w	r4, [r1, #-44]
200054ec:	f853 4c28 	ldr.w	r4, [r3, #-40]
200054f0:	f841 4c28 	str.w	r4, [r1, #-40]
200054f4:	f853 4c24 	ldr.w	r4, [r3, #-36]
200054f8:	f841 4c24 	str.w	r4, [r1, #-36]
200054fc:	f853 4c20 	ldr.w	r4, [r3, #-32]
20005500:	f841 4c20 	str.w	r4, [r1, #-32]
20005504:	f853 4c1c 	ldr.w	r4, [r3, #-28]
20005508:	f841 4c1c 	str.w	r4, [r1, #-28]
2000550c:	f853 4c18 	ldr.w	r4, [r3, #-24]
20005510:	f841 4c18 	str.w	r4, [r1, #-24]
20005514:	f853 4c14 	ldr.w	r4, [r3, #-20]
20005518:	f841 4c14 	str.w	r4, [r1, #-20]
2000551c:	f853 4c10 	ldr.w	r4, [r3, #-16]
20005520:	f841 4c10 	str.w	r4, [r1, #-16]
20005524:	f853 4c0c 	ldr.w	r4, [r3, #-12]
20005528:	f841 4c0c 	str.w	r4, [r1, #-12]
2000552c:	f853 4c08 	ldr.w	r4, [r3, #-8]
20005530:	f841 4c08 	str.w	r4, [r1, #-8]
20005534:	f853 4c04 	ldr.w	r4, [r3, #-4]
20005538:	f841 4c04 	str.w	r4, [r1, #-4]
2000553c:	461c      	mov	r4, r3
2000553e:	460d      	mov	r5, r1
20005540:	3340      	adds	r3, #64	; 0x40
20005542:	3140      	adds	r1, #64	; 0x40
20005544:	f1bc 0f3f 	cmp.w	ip, #63	; 0x3f
20005548:	f1ac 0c40 	sub.w	ip, ip, #64	; 0x40
2000554c:	dcb6      	bgt.n	200054bc <memcpy+0xa0>
2000554e:	4621      	mov	r1, r4
20005550:	462b      	mov	r3, r5
20005552:	1b54      	subs	r4, r2, r5
20005554:	e00f      	b.n	20005576 <memcpy+0x15a>
20005556:	f851 5c10 	ldr.w	r5, [r1, #-16]
2000555a:	f843 5c10 	str.w	r5, [r3, #-16]
2000555e:	f851 5c0c 	ldr.w	r5, [r1, #-12]
20005562:	f843 5c0c 	str.w	r5, [r3, #-12]
20005566:	f851 5c08 	ldr.w	r5, [r1, #-8]
2000556a:	f843 5c08 	str.w	r5, [r3, #-8]
2000556e:	f851 5c04 	ldr.w	r5, [r1, #-4]
20005572:	f843 5c04 	str.w	r5, [r3, #-4]
20005576:	2c0f      	cmp	r4, #15
20005578:	460d      	mov	r5, r1
2000557a:	469c      	mov	ip, r3
2000557c:	f101 0110 	add.w	r1, r1, #16
20005580:	f103 0310 	add.w	r3, r3, #16
20005584:	f1a4 0410 	sub.w	r4, r4, #16
20005588:	dce5      	bgt.n	20005556 <memcpy+0x13a>
2000558a:	ebcc 0102 	rsb	r1, ip, r2
2000558e:	2300      	movs	r3, #0
20005590:	e003      	b.n	2000559a <memcpy+0x17e>
20005592:	58ec      	ldr	r4, [r5, r3]
20005594:	f84c 4003 	str.w	r4, [ip, r3]
20005598:	3304      	adds	r3, #4
2000559a:	195e      	adds	r6, r3, r5
2000559c:	2903      	cmp	r1, #3
2000559e:	eb03 040c 	add.w	r4, r3, ip
200055a2:	f1a1 0104 	sub.w	r1, r1, #4
200055a6:	dcf4      	bgt.n	20005592 <memcpy+0x176>
200055a8:	e77f      	b.n	200054aa <memcpy+0x8e>
200055aa:	bf00      	nop

200055ac <memmove>:
200055ac:	4288      	cmp	r0, r1
200055ae:	468c      	mov	ip, r1
200055b0:	b470      	push	{r4, r5, r6}
200055b2:	4605      	mov	r5, r0
200055b4:	4614      	mov	r4, r2
200055b6:	d90e      	bls.n	200055d6 <memmove+0x2a>
200055b8:	188b      	adds	r3, r1, r2
200055ba:	4298      	cmp	r0, r3
200055bc:	d20b      	bcs.n	200055d6 <memmove+0x2a>
200055be:	b142      	cbz	r2, 200055d2 <memmove+0x26>
200055c0:	ebc2 0c03 	rsb	ip, r2, r3
200055c4:	4601      	mov	r1, r0
200055c6:	1e53      	subs	r3, r2, #1
200055c8:	f81c 2003 	ldrb.w	r2, [ip, r3]
200055cc:	54ca      	strb	r2, [r1, r3]
200055ce:	3b01      	subs	r3, #1
200055d0:	d2fa      	bcs.n	200055c8 <memmove+0x1c>
200055d2:	bc70      	pop	{r4, r5, r6}
200055d4:	4770      	bx	lr
200055d6:	2a0f      	cmp	r2, #15
200055d8:	d809      	bhi.n	200055ee <memmove+0x42>
200055da:	2c00      	cmp	r4, #0
200055dc:	d0f9      	beq.n	200055d2 <memmove+0x26>
200055de:	2300      	movs	r3, #0
200055e0:	f81c 2003 	ldrb.w	r2, [ip, r3]
200055e4:	54ea      	strb	r2, [r5, r3]
200055e6:	3301      	adds	r3, #1
200055e8:	42a3      	cmp	r3, r4
200055ea:	d1f9      	bne.n	200055e0 <memmove+0x34>
200055ec:	e7f1      	b.n	200055d2 <memmove+0x26>
200055ee:	ea41 0300 	orr.w	r3, r1, r0
200055f2:	f013 0f03 	tst.w	r3, #3
200055f6:	d1f0      	bne.n	200055da <memmove+0x2e>
200055f8:	4694      	mov	ip, r2
200055fa:	460c      	mov	r4, r1
200055fc:	4603      	mov	r3, r0
200055fe:	6825      	ldr	r5, [r4, #0]
20005600:	f1ac 0c10 	sub.w	ip, ip, #16
20005604:	601d      	str	r5, [r3, #0]
20005606:	6865      	ldr	r5, [r4, #4]
20005608:	605d      	str	r5, [r3, #4]
2000560a:	68a5      	ldr	r5, [r4, #8]
2000560c:	609d      	str	r5, [r3, #8]
2000560e:	68e5      	ldr	r5, [r4, #12]
20005610:	3410      	adds	r4, #16
20005612:	60dd      	str	r5, [r3, #12]
20005614:	3310      	adds	r3, #16
20005616:	f1bc 0f0f 	cmp.w	ip, #15
2000561a:	d8f0      	bhi.n	200055fe <memmove+0x52>
2000561c:	3a10      	subs	r2, #16
2000561e:	ea4f 1c12 	mov.w	ip, r2, lsr #4
20005622:	f10c 0501 	add.w	r5, ip, #1
20005626:	ebcc 7c0c 	rsb	ip, ip, ip, lsl #28
2000562a:	012d      	lsls	r5, r5, #4
2000562c:	eb02 160c 	add.w	r6, r2, ip, lsl #4
20005630:	eb01 0c05 	add.w	ip, r1, r5
20005634:	1945      	adds	r5, r0, r5
20005636:	2e03      	cmp	r6, #3
20005638:	4634      	mov	r4, r6
2000563a:	d9ce      	bls.n	200055da <memmove+0x2e>
2000563c:	2300      	movs	r3, #0
2000563e:	f85c 2003 	ldr.w	r2, [ip, r3]
20005642:	50ea      	str	r2, [r5, r3]
20005644:	3304      	adds	r3, #4
20005646:	1af2      	subs	r2, r6, r3
20005648:	2a03      	cmp	r2, #3
2000564a:	d8f8      	bhi.n	2000563e <memmove+0x92>
2000564c:	3e04      	subs	r6, #4
2000564e:	08b3      	lsrs	r3, r6, #2
20005650:	1c5a      	adds	r2, r3, #1
20005652:	ebc3 7383 	rsb	r3, r3, r3, lsl #30
20005656:	0092      	lsls	r2, r2, #2
20005658:	4494      	add	ip, r2
2000565a:	eb06 0483 	add.w	r4, r6, r3, lsl #2
2000565e:	18ad      	adds	r5, r5, r2
20005660:	e7bb      	b.n	200055da <memmove+0x2e>
20005662:	bf00      	nop

20005664 <__malloc_lock>:
20005664:	4770      	bx	lr
20005666:	bf00      	nop

20005668 <__malloc_unlock>:
20005668:	4770      	bx	lr
2000566a:	bf00      	nop

2000566c <__hi0bits>:
2000566c:	0c02      	lsrs	r2, r0, #16
2000566e:	4603      	mov	r3, r0
20005670:	0412      	lsls	r2, r2, #16
20005672:	b1b2      	cbz	r2, 200056a2 <__hi0bits+0x36>
20005674:	2000      	movs	r0, #0
20005676:	f013 4f7f 	tst.w	r3, #4278190080	; 0xff000000
2000567a:	d101      	bne.n	20005680 <__hi0bits+0x14>
2000567c:	3008      	adds	r0, #8
2000567e:	021b      	lsls	r3, r3, #8
20005680:	f013 4f70 	tst.w	r3, #4026531840	; 0xf0000000
20005684:	d101      	bne.n	2000568a <__hi0bits+0x1e>
20005686:	3004      	adds	r0, #4
20005688:	011b      	lsls	r3, r3, #4
2000568a:	f013 4f40 	tst.w	r3, #3221225472	; 0xc0000000
2000568e:	d101      	bne.n	20005694 <__hi0bits+0x28>
20005690:	3002      	adds	r0, #2
20005692:	009b      	lsls	r3, r3, #2
20005694:	2b00      	cmp	r3, #0
20005696:	db03      	blt.n	200056a0 <__hi0bits+0x34>
20005698:	f013 4f80 	tst.w	r3, #1073741824	; 0x40000000
2000569c:	d004      	beq.n	200056a8 <__hi0bits+0x3c>
2000569e:	3001      	adds	r0, #1
200056a0:	4770      	bx	lr
200056a2:	0403      	lsls	r3, r0, #16
200056a4:	2010      	movs	r0, #16
200056a6:	e7e6      	b.n	20005676 <__hi0bits+0xa>
200056a8:	2020      	movs	r0, #32
200056aa:	4770      	bx	lr

200056ac <__lo0bits>:
200056ac:	6803      	ldr	r3, [r0, #0]
200056ae:	4602      	mov	r2, r0
200056b0:	f013 0007 	ands.w	r0, r3, #7
200056b4:	d009      	beq.n	200056ca <__lo0bits+0x1e>
200056b6:	f013 0f01 	tst.w	r3, #1
200056ba:	d121      	bne.n	20005700 <__lo0bits+0x54>
200056bc:	f013 0f02 	tst.w	r3, #2
200056c0:	d122      	bne.n	20005708 <__lo0bits+0x5c>
200056c2:	089b      	lsrs	r3, r3, #2
200056c4:	2002      	movs	r0, #2
200056c6:	6013      	str	r3, [r2, #0]
200056c8:	4770      	bx	lr
200056ca:	b299      	uxth	r1, r3
200056cc:	b909      	cbnz	r1, 200056d2 <__lo0bits+0x26>
200056ce:	0c1b      	lsrs	r3, r3, #16
200056d0:	2010      	movs	r0, #16
200056d2:	f013 0fff 	tst.w	r3, #255	; 0xff
200056d6:	d101      	bne.n	200056dc <__lo0bits+0x30>
200056d8:	3008      	adds	r0, #8
200056da:	0a1b      	lsrs	r3, r3, #8
200056dc:	f013 0f0f 	tst.w	r3, #15
200056e0:	d101      	bne.n	200056e6 <__lo0bits+0x3a>
200056e2:	3004      	adds	r0, #4
200056e4:	091b      	lsrs	r3, r3, #4
200056e6:	f013 0f03 	tst.w	r3, #3
200056ea:	d101      	bne.n	200056f0 <__lo0bits+0x44>
200056ec:	3002      	adds	r0, #2
200056ee:	089b      	lsrs	r3, r3, #2
200056f0:	f013 0f01 	tst.w	r3, #1
200056f4:	d102      	bne.n	200056fc <__lo0bits+0x50>
200056f6:	085b      	lsrs	r3, r3, #1
200056f8:	d004      	beq.n	20005704 <__lo0bits+0x58>
200056fa:	3001      	adds	r0, #1
200056fc:	6013      	str	r3, [r2, #0]
200056fe:	4770      	bx	lr
20005700:	2000      	movs	r0, #0
20005702:	4770      	bx	lr
20005704:	2020      	movs	r0, #32
20005706:	4770      	bx	lr
20005708:	085b      	lsrs	r3, r3, #1
2000570a:	2001      	movs	r0, #1
2000570c:	6013      	str	r3, [r2, #0]
2000570e:	4770      	bx	lr

20005710 <__mcmp>:
20005710:	4603      	mov	r3, r0
20005712:	690a      	ldr	r2, [r1, #16]
20005714:	6900      	ldr	r0, [r0, #16]
20005716:	b410      	push	{r4}
20005718:	1a80      	subs	r0, r0, r2
2000571a:	d111      	bne.n	20005740 <__mcmp+0x30>
2000571c:	3204      	adds	r2, #4
2000571e:	f103 0c14 	add.w	ip, r3, #20
20005722:	0092      	lsls	r2, r2, #2
20005724:	189b      	adds	r3, r3, r2
20005726:	1889      	adds	r1, r1, r2
20005728:	3104      	adds	r1, #4
2000572a:	3304      	adds	r3, #4
2000572c:	f853 4c04 	ldr.w	r4, [r3, #-4]
20005730:	3b04      	subs	r3, #4
20005732:	f851 2c04 	ldr.w	r2, [r1, #-4]
20005736:	3904      	subs	r1, #4
20005738:	4294      	cmp	r4, r2
2000573a:	d103      	bne.n	20005744 <__mcmp+0x34>
2000573c:	459c      	cmp	ip, r3
2000573e:	d3f5      	bcc.n	2000572c <__mcmp+0x1c>
20005740:	bc10      	pop	{r4}
20005742:	4770      	bx	lr
20005744:	bf38      	it	cc
20005746:	f04f 30ff 	movcc.w	r0, #4294967295
2000574a:	d3f9      	bcc.n	20005740 <__mcmp+0x30>
2000574c:	2001      	movs	r0, #1
2000574e:	e7f7      	b.n	20005740 <__mcmp+0x30>

20005750 <__ulp>:
20005750:	f240 0300 	movw	r3, #0
20005754:	f6c7 73f0 	movt	r3, #32752	; 0x7ff0
20005758:	ea01 0303 	and.w	r3, r1, r3
2000575c:	f1a3 7350 	sub.w	r3, r3, #54525952	; 0x3400000
20005760:	2b00      	cmp	r3, #0
20005762:	dd02      	ble.n	2000576a <__ulp+0x1a>
20005764:	4619      	mov	r1, r3
20005766:	2000      	movs	r0, #0
20005768:	4770      	bx	lr
2000576a:	425b      	negs	r3, r3
2000576c:	151b      	asrs	r3, r3, #20
2000576e:	2b13      	cmp	r3, #19
20005770:	dd0e      	ble.n	20005790 <__ulp+0x40>
20005772:	3b14      	subs	r3, #20
20005774:	2b1e      	cmp	r3, #30
20005776:	dd03      	ble.n	20005780 <__ulp+0x30>
20005778:	2301      	movs	r3, #1
2000577a:	2100      	movs	r1, #0
2000577c:	4618      	mov	r0, r3
2000577e:	4770      	bx	lr
20005780:	2201      	movs	r2, #1
20005782:	f1c3 031f 	rsb	r3, r3, #31
20005786:	2100      	movs	r1, #0
20005788:	fa12 f303 	lsls.w	r3, r2, r3
2000578c:	4618      	mov	r0, r3
2000578e:	4770      	bx	lr
20005790:	f44f 2200 	mov.w	r2, #524288	; 0x80000
20005794:	2000      	movs	r0, #0
20005796:	fa52 f103 	asrs.w	r1, r2, r3
2000579a:	4770      	bx	lr

2000579c <__b2d>:
2000579c:	e92d 41f0 	stmdb	sp!, {r4, r5, r6, r7, r8, lr}
200057a0:	6904      	ldr	r4, [r0, #16]
200057a2:	f100 0614 	add.w	r6, r0, #20
200057a6:	460f      	mov	r7, r1
200057a8:	3404      	adds	r4, #4
200057aa:	f850 5024 	ldr.w	r5, [r0, r4, lsl #2]
200057ae:	eb00 0484 	add.w	r4, r0, r4, lsl #2
200057b2:	46a0      	mov	r8, r4
200057b4:	4628      	mov	r0, r5
200057b6:	f7ff ff59 	bl	2000566c <__hi0bits>
200057ba:	280a      	cmp	r0, #10
200057bc:	f1c0 0320 	rsb	r3, r0, #32
200057c0:	603b      	str	r3, [r7, #0]
200057c2:	dc14      	bgt.n	200057ee <__b2d+0x52>
200057c4:	42a6      	cmp	r6, r4
200057c6:	f1c0 030b 	rsb	r3, r0, #11
200057ca:	d237      	bcs.n	2000583c <__b2d+0xa0>
200057cc:	f854 1c04 	ldr.w	r1, [r4, #-4]
200057d0:	40d9      	lsrs	r1, r3
200057d2:	fa25 fc03 	lsr.w	ip, r5, r3
200057d6:	3015      	adds	r0, #21
200057d8:	f04c 537e 	orr.w	r3, ip, #1065353216	; 0x3f800000
200057dc:	4085      	lsls	r5, r0
200057de:	f443 03e0 	orr.w	r3, r3, #7340032	; 0x700000
200057e2:	ea41 0205 	orr.w	r2, r1, r5
200057e6:	4610      	mov	r0, r2
200057e8:	4619      	mov	r1, r3
200057ea:	e8bd 81f0 	ldmia.w	sp!, {r4, r5, r6, r7, r8, pc}
200057ee:	42a6      	cmp	r6, r4
200057f0:	d320      	bcc.n	20005834 <__b2d+0x98>
200057f2:	2100      	movs	r1, #0
200057f4:	380b      	subs	r0, #11
200057f6:	bf02      	ittt	eq
200057f8:	f045 537e 	orreq.w	r3, r5, #1065353216	; 0x3f800000
200057fc:	460a      	moveq	r2, r1
200057fe:	f443 03e0 	orreq.w	r3, r3, #7340032	; 0x700000
20005802:	d0f0      	beq.n	200057e6 <__b2d+0x4a>
20005804:	42b4      	cmp	r4, r6
20005806:	f1c0 0320 	rsb	r3, r0, #32
2000580a:	d919      	bls.n	20005840 <__b2d+0xa4>
2000580c:	f854 4c04 	ldr.w	r4, [r4, #-4]
20005810:	40dc      	lsrs	r4, r3
20005812:	4085      	lsls	r5, r0
20005814:	fa21 fc03 	lsr.w	ip, r1, r3
20005818:	f045 557e 	orr.w	r5, r5, #1065353216	; 0x3f800000
2000581c:	fa11 f000 	lsls.w	r0, r1, r0
20005820:	f445 05e0 	orr.w	r5, r5, #7340032	; 0x700000
20005824:	ea44 0200 	orr.w	r2, r4, r0
20005828:	ea45 030c 	orr.w	r3, r5, ip
2000582c:	4610      	mov	r0, r2
2000582e:	4619      	mov	r1, r3
20005830:	e8bd 81f0 	ldmia.w	sp!, {r4, r5, r6, r7, r8, pc}
20005834:	f854 1c04 	ldr.w	r1, [r4, #-4]
20005838:	3c04      	subs	r4, #4
2000583a:	e7db      	b.n	200057f4 <__b2d+0x58>
2000583c:	2100      	movs	r1, #0
2000583e:	e7c8      	b.n	200057d2 <__b2d+0x36>
20005840:	2400      	movs	r4, #0
20005842:	e7e6      	b.n	20005812 <__b2d+0x76>

20005844 <__ratio>:
20005844:	e92d 43f0 	stmdb	sp!, {r4, r5, r6, r7, r8, r9, lr}
20005848:	b083      	sub	sp, #12
2000584a:	460e      	mov	r6, r1
2000584c:	a901      	add	r1, sp, #4
2000584e:	4607      	mov	r7, r0
20005850:	f7ff ffa4 	bl	2000579c <__b2d>
20005854:	460d      	mov	r5, r1
20005856:	4604      	mov	r4, r0
20005858:	4669      	mov	r1, sp
2000585a:	4630      	mov	r0, r6
2000585c:	f7ff ff9e 	bl	2000579c <__b2d>
20005860:	f8dd c004 	ldr.w	ip, [sp, #4]
20005864:	46a9      	mov	r9, r5
20005866:	46a0      	mov	r8, r4
20005868:	460b      	mov	r3, r1
2000586a:	4602      	mov	r2, r0
2000586c:	6931      	ldr	r1, [r6, #16]
2000586e:	4616      	mov	r6, r2
20005870:	6938      	ldr	r0, [r7, #16]
20005872:	461f      	mov	r7, r3
20005874:	1a40      	subs	r0, r0, r1
20005876:	9900      	ldr	r1, [sp, #0]
20005878:	ebc1 010c 	rsb	r1, r1, ip
2000587c:	eb01 1140 	add.w	r1, r1, r0, lsl #5
20005880:	2900      	cmp	r1, #0
20005882:	bfc9      	itett	gt
20005884:	eb05 5901 	addgt.w	r9, r5, r1, lsl #20
20005888:	eba3 5701 	suble.w	r7, r3, r1, lsl #20
2000588c:	4624      	movgt	r4, r4
2000588e:	464d      	movgt	r5, r9
20005890:	bfdc      	itt	le
20005892:	4612      	movle	r2, r2
20005894:	463b      	movle	r3, r7
20005896:	4620      	mov	r0, r4
20005898:	4629      	mov	r1, r5
2000589a:	f001 f9c1 	bl	20006c20 <__aeabi_ddiv>
2000589e:	b003      	add	sp, #12
200058a0:	e8bd 83f0 	ldmia.w	sp!, {r4, r5, r6, r7, r8, r9, pc}

200058a4 <_mprec_log10>:
200058a4:	2817      	cmp	r0, #23
200058a6:	b510      	push	{r4, lr}
200058a8:	4604      	mov	r4, r0
200058aa:	dd0e      	ble.n	200058ca <_mprec_log10+0x26>
200058ac:	f240 0100 	movw	r1, #0
200058b0:	2000      	movs	r0, #0
200058b2:	f6c3 71f0 	movt	r1, #16368	; 0x3ff0
200058b6:	f240 0300 	movw	r3, #0
200058ba:	2200      	movs	r2, #0
200058bc:	f2c4 0324 	movt	r3, #16420	; 0x4024
200058c0:	f001 f884 	bl	200069cc <__aeabi_dmul>
200058c4:	3c01      	subs	r4, #1
200058c6:	d1f6      	bne.n	200058b6 <_mprec_log10+0x12>
200058c8:	bd10      	pop	{r4, pc}
200058ca:	f647 23b8 	movw	r3, #31416	; 0x7ab8
200058ce:	f2c2 0300 	movt	r3, #8192	; 0x2000
200058d2:	eb03 03c0 	add.w	r3, r3, r0, lsl #3
200058d6:	e9d3 0100 	ldrd	r0, r1, [r3]
200058da:	bd10      	pop	{r4, pc}

200058dc <__copybits>:
200058dc:	6913      	ldr	r3, [r2, #16]
200058de:	3901      	subs	r1, #1
200058e0:	f102 0c14 	add.w	ip, r2, #20
200058e4:	b410      	push	{r4}
200058e6:	eb02 0283 	add.w	r2, r2, r3, lsl #2
200058ea:	114c      	asrs	r4, r1, #5
200058ec:	3214      	adds	r2, #20
200058ee:	3401      	adds	r4, #1
200058f0:	4594      	cmp	ip, r2
200058f2:	eb00 0484 	add.w	r4, r0, r4, lsl #2
200058f6:	d20f      	bcs.n	20005918 <__copybits+0x3c>
200058f8:	2300      	movs	r3, #0
200058fa:	f85c 1003 	ldr.w	r1, [ip, r3]
200058fe:	50c1      	str	r1, [r0, r3]
20005900:	3304      	adds	r3, #4
20005902:	eb03 010c 	add.w	r1, r3, ip
20005906:	428a      	cmp	r2, r1
20005908:	d8f7      	bhi.n	200058fa <__copybits+0x1e>
2000590a:	ea6f 0c0c 	mvn.w	ip, ip
2000590e:	4462      	add	r2, ip
20005910:	f022 0203 	bic.w	r2, r2, #3
20005914:	3204      	adds	r2, #4
20005916:	1880      	adds	r0, r0, r2
20005918:	4284      	cmp	r4, r0
2000591a:	d904      	bls.n	20005926 <__copybits+0x4a>
2000591c:	2300      	movs	r3, #0
2000591e:	f840 3b04 	str.w	r3, [r0], #4
20005922:	4284      	cmp	r4, r0
20005924:	d8fb      	bhi.n	2000591e <__copybits+0x42>
20005926:	bc10      	pop	{r4}
20005928:	4770      	bx	lr
2000592a:	bf00      	nop

2000592c <__any_on>:
2000592c:	6902      	ldr	r2, [r0, #16]
2000592e:	114b      	asrs	r3, r1, #5
20005930:	429a      	cmp	r2, r3
20005932:	db10      	blt.n	20005956 <__any_on+0x2a>
20005934:	dd0e      	ble.n	20005954 <__any_on+0x28>
20005936:	f011 011f 	ands.w	r1, r1, #31
2000593a:	d00b      	beq.n	20005954 <__any_on+0x28>
2000593c:	461a      	mov	r2, r3
2000593e:	eb00 0383 	add.w	r3, r0, r3, lsl #2
20005942:	695b      	ldr	r3, [r3, #20]
20005944:	fa23 fc01 	lsr.w	ip, r3, r1
20005948:	fa0c f101 	lsl.w	r1, ip, r1
2000594c:	4299      	cmp	r1, r3
2000594e:	d002      	beq.n	20005956 <__any_on+0x2a>
20005950:	2001      	movs	r0, #1
20005952:	4770      	bx	lr
20005954:	461a      	mov	r2, r3
20005956:	3204      	adds	r2, #4
20005958:	f100 0114 	add.w	r1, r0, #20
2000595c:	eb00 0382 	add.w	r3, r0, r2, lsl #2
20005960:	f103 0c04 	add.w	ip, r3, #4
20005964:	4561      	cmp	r1, ip
20005966:	d20b      	bcs.n	20005980 <__any_on+0x54>
20005968:	f850 2022 	ldr.w	r2, [r0, r2, lsl #2]
2000596c:	2a00      	cmp	r2, #0
2000596e:	d1ef      	bne.n	20005950 <__any_on+0x24>
20005970:	4299      	cmp	r1, r3
20005972:	d205      	bcs.n	20005980 <__any_on+0x54>
20005974:	f853 2d04 	ldr.w	r2, [r3, #-4]!
20005978:	2a00      	cmp	r2, #0
2000597a:	d1e9      	bne.n	20005950 <__any_on+0x24>
2000597c:	4299      	cmp	r1, r3
2000597e:	d3f9      	bcc.n	20005974 <__any_on+0x48>
20005980:	2000      	movs	r0, #0
20005982:	4770      	bx	lr

20005984 <_Bfree>:
20005984:	b530      	push	{r4, r5, lr}
20005986:	6a45      	ldr	r5, [r0, #36]	; 0x24
20005988:	b083      	sub	sp, #12
2000598a:	4604      	mov	r4, r0
2000598c:	b155      	cbz	r5, 200059a4 <_Bfree+0x20>
2000598e:	b139      	cbz	r1, 200059a0 <_Bfree+0x1c>
20005990:	6a63      	ldr	r3, [r4, #36]	; 0x24
20005992:	684a      	ldr	r2, [r1, #4]
20005994:	68db      	ldr	r3, [r3, #12]
20005996:	f853 0022 	ldr.w	r0, [r3, r2, lsl #2]
2000599a:	6008      	str	r0, [r1, #0]
2000599c:	f843 1022 	str.w	r1, [r3, r2, lsl #2]
200059a0:	b003      	add	sp, #12
200059a2:	bd30      	pop	{r4, r5, pc}
200059a4:	2010      	movs	r0, #16
200059a6:	9101      	str	r1, [sp, #4]
200059a8:	f7ff fa24 	bl	20004df4 <malloc>
200059ac:	9901      	ldr	r1, [sp, #4]
200059ae:	6260      	str	r0, [r4, #36]	; 0x24
200059b0:	60c5      	str	r5, [r0, #12]
200059b2:	6045      	str	r5, [r0, #4]
200059b4:	6085      	str	r5, [r0, #8]
200059b6:	6005      	str	r5, [r0, #0]
200059b8:	e7e9      	b.n	2000598e <_Bfree+0xa>
200059ba:	bf00      	nop

200059bc <_Balloc>:
200059bc:	b570      	push	{r4, r5, r6, lr}
200059be:	6a44      	ldr	r4, [r0, #36]	; 0x24
200059c0:	4606      	mov	r6, r0
200059c2:	460d      	mov	r5, r1
200059c4:	b164      	cbz	r4, 200059e0 <_Balloc+0x24>
200059c6:	68e2      	ldr	r2, [r4, #12]
200059c8:	b1a2      	cbz	r2, 200059f4 <_Balloc+0x38>
200059ca:	f852 3025 	ldr.w	r3, [r2, r5, lsl #2]
200059ce:	b1eb      	cbz	r3, 20005a0c <_Balloc+0x50>
200059d0:	6819      	ldr	r1, [r3, #0]
200059d2:	f842 1025 	str.w	r1, [r2, r5, lsl #2]
200059d6:	2200      	movs	r2, #0
200059d8:	60da      	str	r2, [r3, #12]
200059da:	611a      	str	r2, [r3, #16]
200059dc:	4618      	mov	r0, r3
200059de:	bd70      	pop	{r4, r5, r6, pc}
200059e0:	2010      	movs	r0, #16
200059e2:	f7ff fa07 	bl	20004df4 <malloc>
200059e6:	2300      	movs	r3, #0
200059e8:	4604      	mov	r4, r0
200059ea:	6270      	str	r0, [r6, #36]	; 0x24
200059ec:	60c3      	str	r3, [r0, #12]
200059ee:	6043      	str	r3, [r0, #4]
200059f0:	6083      	str	r3, [r0, #8]
200059f2:	6003      	str	r3, [r0, #0]
200059f4:	2210      	movs	r2, #16
200059f6:	4630      	mov	r0, r6
200059f8:	2104      	movs	r1, #4
200059fa:	f000 fe0f 	bl	2000661c <_calloc_r>
200059fe:	6a73      	ldr	r3, [r6, #36]	; 0x24
20005a00:	60e0      	str	r0, [r4, #12]
20005a02:	68da      	ldr	r2, [r3, #12]
20005a04:	2a00      	cmp	r2, #0
20005a06:	d1e0      	bne.n	200059ca <_Balloc+0xe>
20005a08:	4613      	mov	r3, r2
20005a0a:	e7e7      	b.n	200059dc <_Balloc+0x20>
20005a0c:	2401      	movs	r4, #1
20005a0e:	4630      	mov	r0, r6
20005a10:	4621      	mov	r1, r4
20005a12:	40ac      	lsls	r4, r5
20005a14:	1d62      	adds	r2, r4, #5
20005a16:	0092      	lsls	r2, r2, #2
20005a18:	f000 fe00 	bl	2000661c <_calloc_r>
20005a1c:	4603      	mov	r3, r0
20005a1e:	2800      	cmp	r0, #0
20005a20:	d0dc      	beq.n	200059dc <_Balloc+0x20>
20005a22:	6045      	str	r5, [r0, #4]
20005a24:	6084      	str	r4, [r0, #8]
20005a26:	e7d6      	b.n	200059d6 <_Balloc+0x1a>

20005a28 <__d2b>:
20005a28:	e92d 45f0 	stmdb	sp!, {r4, r5, r6, r7, r8, sl, lr}
20005a2c:	b083      	sub	sp, #12
20005a2e:	2101      	movs	r1, #1
20005a30:	461d      	mov	r5, r3
20005a32:	4614      	mov	r4, r2
20005a34:	9f0a      	ldr	r7, [sp, #40]	; 0x28
20005a36:	9e0b      	ldr	r6, [sp, #44]	; 0x2c
20005a38:	f7ff ffc0 	bl	200059bc <_Balloc>
20005a3c:	f025 4200 	bic.w	r2, r5, #2147483648	; 0x80000000
20005a40:	f025 437f 	bic.w	r3, r5, #4278190080	; 0xff000000
20005a44:	f423 0370 	bic.w	r3, r3, #15728640	; 0xf00000
20005a48:	4615      	mov	r5, r2
20005a4a:	ea5f 5a12 	movs.w	sl, r2, lsr #20
20005a4e:	9300      	str	r3, [sp, #0]
20005a50:	bf1c      	itt	ne
20005a52:	f443 1380 	orrne.w	r3, r3, #1048576	; 0x100000
20005a56:	9300      	strne	r3, [sp, #0]
20005a58:	4680      	mov	r8, r0
20005a5a:	2c00      	cmp	r4, #0
20005a5c:	d023      	beq.n	20005aa6 <__d2b+0x7e>
20005a5e:	a802      	add	r0, sp, #8
20005a60:	f840 4d04 	str.w	r4, [r0, #-4]!
20005a64:	f7ff fe22 	bl	200056ac <__lo0bits>
20005a68:	4603      	mov	r3, r0
20005a6a:	2800      	cmp	r0, #0
20005a6c:	d137      	bne.n	20005ade <__d2b+0xb6>
20005a6e:	9901      	ldr	r1, [sp, #4]
20005a70:	9a00      	ldr	r2, [sp, #0]
20005a72:	f8c8 1014 	str.w	r1, [r8, #20]
20005a76:	2a00      	cmp	r2, #0
20005a78:	bf14      	ite	ne
20005a7a:	2402      	movne	r4, #2
20005a7c:	2401      	moveq	r4, #1
20005a7e:	f8c8 2018 	str.w	r2, [r8, #24]
20005a82:	f8c8 4010 	str.w	r4, [r8, #16]
20005a86:	f1ba 0f00 	cmp.w	sl, #0
20005a8a:	d01b      	beq.n	20005ac4 <__d2b+0x9c>
20005a8c:	f5aa 6a86 	sub.w	sl, sl, #1072	; 0x430
20005a90:	f1c3 0235 	rsb	r2, r3, #53	; 0x35
20005a94:	f1aa 0a03 	sub.w	sl, sl, #3
20005a98:	4453      	add	r3, sl
20005a9a:	603b      	str	r3, [r7, #0]
20005a9c:	6032      	str	r2, [r6, #0]
20005a9e:	4640      	mov	r0, r8
20005aa0:	b003      	add	sp, #12
20005aa2:	e8bd 85f0 	ldmia.w	sp!, {r4, r5, r6, r7, r8, sl, pc}
20005aa6:	4668      	mov	r0, sp
20005aa8:	f7ff fe00 	bl	200056ac <__lo0bits>
20005aac:	2301      	movs	r3, #1
20005aae:	461c      	mov	r4, r3
20005ab0:	f8c8 3010 	str.w	r3, [r8, #16]
20005ab4:	9b00      	ldr	r3, [sp, #0]
20005ab6:	f8c8 3014 	str.w	r3, [r8, #20]
20005aba:	f100 0320 	add.w	r3, r0, #32
20005abe:	f1ba 0f00 	cmp.w	sl, #0
20005ac2:	d1e3      	bne.n	20005a8c <__d2b+0x64>
20005ac4:	eb08 0284 	add.w	r2, r8, r4, lsl #2
20005ac8:	f5a3 6386 	sub.w	r3, r3, #1072	; 0x430
20005acc:	3b02      	subs	r3, #2
20005ace:	603b      	str	r3, [r7, #0]
20005ad0:	6910      	ldr	r0, [r2, #16]
20005ad2:	f7ff fdcb 	bl	2000566c <__hi0bits>
20005ad6:	ebc0 1044 	rsb	r0, r0, r4, lsl #5
20005ada:	6030      	str	r0, [r6, #0]
20005adc:	e7df      	b.n	20005a9e <__d2b+0x76>
20005ade:	9a00      	ldr	r2, [sp, #0]
20005ae0:	f1c0 0120 	rsb	r1, r0, #32
20005ae4:	fa12 f101 	lsls.w	r1, r2, r1
20005ae8:	40c2      	lsrs	r2, r0
20005aea:	9801      	ldr	r0, [sp, #4]
20005aec:	4301      	orrs	r1, r0
20005aee:	f8c8 1014 	str.w	r1, [r8, #20]
20005af2:	9200      	str	r2, [sp, #0]
20005af4:	e7bf      	b.n	20005a76 <__d2b+0x4e>
20005af6:	bf00      	nop

20005af8 <__mdiff>:
20005af8:	e92d 4ff8 	stmdb	sp!, {r3, r4, r5, r6, r7, r8, r9, sl, fp, lr}
20005afc:	6913      	ldr	r3, [r2, #16]
20005afe:	690f      	ldr	r7, [r1, #16]
20005b00:	460c      	mov	r4, r1
20005b02:	4615      	mov	r5, r2
20005b04:	1aff      	subs	r7, r7, r3
20005b06:	2f00      	cmp	r7, #0
20005b08:	d04f      	beq.n	20005baa <__mdiff+0xb2>
20005b0a:	db6a      	blt.n	20005be2 <__mdiff+0xea>
20005b0c:	2700      	movs	r7, #0
20005b0e:	f101 0614 	add.w	r6, r1, #20
20005b12:	6861      	ldr	r1, [r4, #4]
20005b14:	f7ff ff52 	bl	200059bc <_Balloc>
20005b18:	f8d5 8010 	ldr.w	r8, [r5, #16]
20005b1c:	f8d4 c010 	ldr.w	ip, [r4, #16]
20005b20:	f105 0114 	add.w	r1, r5, #20
20005b24:	2200      	movs	r2, #0
20005b26:	eb05 0588 	add.w	r5, r5, r8, lsl #2
20005b2a:	eb04 048c 	add.w	r4, r4, ip, lsl #2
20005b2e:	f105 0814 	add.w	r8, r5, #20
20005b32:	3414      	adds	r4, #20
20005b34:	f100 0314 	add.w	r3, r0, #20
20005b38:	60c7      	str	r7, [r0, #12]
20005b3a:	f851 7b04 	ldr.w	r7, [r1], #4
20005b3e:	f856 5b04 	ldr.w	r5, [r6], #4
20005b42:	46bb      	mov	fp, r7
20005b44:	fa1f fa87 	uxth.w	sl, r7
20005b48:	0c3f      	lsrs	r7, r7, #16
20005b4a:	fa1f f985 	uxth.w	r9, r5
20005b4e:	ebc7 4715 	rsb	r7, r7, r5, lsr #16
20005b52:	ebca 0a09 	rsb	sl, sl, r9
20005b56:	4452      	add	r2, sl
20005b58:	eb07 4722 	add.w	r7, r7, r2, asr #16
20005b5c:	b292      	uxth	r2, r2
20005b5e:	ea42 4207 	orr.w	r2, r2, r7, lsl #16
20005b62:	f843 2b04 	str.w	r2, [r3], #4
20005b66:	143a      	asrs	r2, r7, #16
20005b68:	4588      	cmp	r8, r1
20005b6a:	d8e6      	bhi.n	20005b3a <__mdiff+0x42>
20005b6c:	42a6      	cmp	r6, r4
20005b6e:	d20e      	bcs.n	20005b8e <__mdiff+0x96>
20005b70:	f856 1b04 	ldr.w	r1, [r6], #4
20005b74:	b28d      	uxth	r5, r1
20005b76:	0c09      	lsrs	r1, r1, #16
20005b78:	1952      	adds	r2, r2, r5
20005b7a:	eb01 4122 	add.w	r1, r1, r2, asr #16
20005b7e:	b292      	uxth	r2, r2
20005b80:	ea42 4201 	orr.w	r2, r2, r1, lsl #16
20005b84:	f843 2b04 	str.w	r2, [r3], #4
20005b88:	140a      	asrs	r2, r1, #16
20005b8a:	42b4      	cmp	r4, r6
20005b8c:	d8f0      	bhi.n	20005b70 <__mdiff+0x78>
20005b8e:	f853 2c04 	ldr.w	r2, [r3, #-4]
20005b92:	b932      	cbnz	r2, 20005ba2 <__mdiff+0xaa>
20005b94:	f853 2c08 	ldr.w	r2, [r3, #-8]
20005b98:	f10c 3cff 	add.w	ip, ip, #4294967295
20005b9c:	3b04      	subs	r3, #4
20005b9e:	2a00      	cmp	r2, #0
20005ba0:	d0f8      	beq.n	20005b94 <__mdiff+0x9c>
20005ba2:	f8c0 c010 	str.w	ip, [r0, #16]
20005ba6:	e8bd 8ff8 	ldmia.w	sp!, {r3, r4, r5, r6, r7, r8, r9, sl, fp, pc}
20005baa:	3304      	adds	r3, #4
20005bac:	f101 0614 	add.w	r6, r1, #20
20005bb0:	009b      	lsls	r3, r3, #2
20005bb2:	18d2      	adds	r2, r2, r3
20005bb4:	18cb      	adds	r3, r1, r3
20005bb6:	3304      	adds	r3, #4
20005bb8:	3204      	adds	r2, #4
20005bba:	f853 cc04 	ldr.w	ip, [r3, #-4]
20005bbe:	3b04      	subs	r3, #4
20005bc0:	f852 1c04 	ldr.w	r1, [r2, #-4]
20005bc4:	3a04      	subs	r2, #4
20005bc6:	458c      	cmp	ip, r1
20005bc8:	d10a      	bne.n	20005be0 <__mdiff+0xe8>
20005bca:	429e      	cmp	r6, r3
20005bcc:	d3f5      	bcc.n	20005bba <__mdiff+0xc2>
20005bce:	2100      	movs	r1, #0
20005bd0:	f7ff fef4 	bl	200059bc <_Balloc>
20005bd4:	2301      	movs	r3, #1
20005bd6:	6103      	str	r3, [r0, #16]
20005bd8:	2300      	movs	r3, #0
20005bda:	6143      	str	r3, [r0, #20]
20005bdc:	e8bd 8ff8 	ldmia.w	sp!, {r3, r4, r5, r6, r7, r8, r9, sl, fp, pc}
20005be0:	d297      	bcs.n	20005b12 <__mdiff+0x1a>
20005be2:	4623      	mov	r3, r4
20005be4:	462c      	mov	r4, r5
20005be6:	2701      	movs	r7, #1
20005be8:	461d      	mov	r5, r3
20005bea:	f104 0614 	add.w	r6, r4, #20
20005bee:	e790      	b.n	20005b12 <__mdiff+0x1a>

20005bf0 <__lshift>:
20005bf0:	e92d 45f8 	stmdb	sp!, {r3, r4, r5, r6, r7, r8, sl, lr}
20005bf4:	690d      	ldr	r5, [r1, #16]
20005bf6:	688b      	ldr	r3, [r1, #8]
20005bf8:	1156      	asrs	r6, r2, #5
20005bfa:	3501      	adds	r5, #1
20005bfc:	460c      	mov	r4, r1
20005bfe:	19ad      	adds	r5, r5, r6
20005c00:	4690      	mov	r8, r2
20005c02:	429d      	cmp	r5, r3
20005c04:	4682      	mov	sl, r0
20005c06:	6849      	ldr	r1, [r1, #4]
20005c08:	dd03      	ble.n	20005c12 <__lshift+0x22>
20005c0a:	005b      	lsls	r3, r3, #1
20005c0c:	3101      	adds	r1, #1
20005c0e:	429d      	cmp	r5, r3
20005c10:	dcfb      	bgt.n	20005c0a <__lshift+0x1a>
20005c12:	4650      	mov	r0, sl
20005c14:	f7ff fed2 	bl	200059bc <_Balloc>
20005c18:	2e00      	cmp	r6, #0
20005c1a:	4607      	mov	r7, r0
20005c1c:	f100 0214 	add.w	r2, r0, #20
20005c20:	dd0a      	ble.n	20005c38 <__lshift+0x48>
20005c22:	2300      	movs	r3, #0
20005c24:	4619      	mov	r1, r3
20005c26:	f842 1023 	str.w	r1, [r2, r3, lsl #2]
20005c2a:	3301      	adds	r3, #1
20005c2c:	42b3      	cmp	r3, r6
20005c2e:	d1fa      	bne.n	20005c26 <__lshift+0x36>
20005c30:	eb07 0383 	add.w	r3, r7, r3, lsl #2
20005c34:	f103 0214 	add.w	r2, r3, #20
20005c38:	6920      	ldr	r0, [r4, #16]
20005c3a:	f104 0314 	add.w	r3, r4, #20
20005c3e:	eb04 0080 	add.w	r0, r4, r0, lsl #2
20005c42:	3014      	adds	r0, #20
20005c44:	f018 081f 	ands.w	r8, r8, #31
20005c48:	d01b      	beq.n	20005c82 <__lshift+0x92>
20005c4a:	f1c8 0e20 	rsb	lr, r8, #32
20005c4e:	2100      	movs	r1, #0
20005c50:	681e      	ldr	r6, [r3, #0]
20005c52:	fa06 fc08 	lsl.w	ip, r6, r8
20005c56:	ea41 010c 	orr.w	r1, r1, ip
20005c5a:	f842 1b04 	str.w	r1, [r2], #4
20005c5e:	f853 1b04 	ldr.w	r1, [r3], #4
20005c62:	4298      	cmp	r0, r3
20005c64:	fa21 f10e 	lsr.w	r1, r1, lr
20005c68:	d8f2      	bhi.n	20005c50 <__lshift+0x60>
20005c6a:	6011      	str	r1, [r2, #0]
20005c6c:	b101      	cbz	r1, 20005c70 <__lshift+0x80>
20005c6e:	3501      	adds	r5, #1
20005c70:	4650      	mov	r0, sl
20005c72:	3d01      	subs	r5, #1
20005c74:	4621      	mov	r1, r4
20005c76:	613d      	str	r5, [r7, #16]
20005c78:	f7ff fe84 	bl	20005984 <_Bfree>
20005c7c:	4638      	mov	r0, r7
20005c7e:	e8bd 85f8 	ldmia.w	sp!, {r3, r4, r5, r6, r7, r8, sl, pc}
20005c82:	f853 1008 	ldr.w	r1, [r3, r8]
20005c86:	f842 1008 	str.w	r1, [r2, r8]
20005c8a:	f108 0804 	add.w	r8, r8, #4
20005c8e:	eb08 0103 	add.w	r1, r8, r3
20005c92:	4288      	cmp	r0, r1
20005c94:	d9ec      	bls.n	20005c70 <__lshift+0x80>
20005c96:	f853 1008 	ldr.w	r1, [r3, r8]
20005c9a:	f842 1008 	str.w	r1, [r2, r8]
20005c9e:	f108 0804 	add.w	r8, r8, #4
20005ca2:	eb08 0103 	add.w	r1, r8, r3
20005ca6:	4288      	cmp	r0, r1
20005ca8:	d8eb      	bhi.n	20005c82 <__lshift+0x92>
20005caa:	e7e1      	b.n	20005c70 <__lshift+0x80>

20005cac <__multiply>:
20005cac:	e92d 4ff0 	stmdb	sp!, {r4, r5, r6, r7, r8, r9, sl, fp, lr}
20005cb0:	f8d1 8010 	ldr.w	r8, [r1, #16]
20005cb4:	6917      	ldr	r7, [r2, #16]
20005cb6:	460d      	mov	r5, r1
20005cb8:	4616      	mov	r6, r2
20005cba:	b087      	sub	sp, #28
20005cbc:	45b8      	cmp	r8, r7
20005cbe:	bfb5      	itete	lt
20005cc0:	4615      	movlt	r5, r2
20005cc2:	463b      	movge	r3, r7
20005cc4:	460b      	movlt	r3, r1
20005cc6:	4647      	movge	r7, r8
20005cc8:	bfb4      	ite	lt
20005cca:	461e      	movlt	r6, r3
20005ccc:	4698      	movge	r8, r3
20005cce:	68ab      	ldr	r3, [r5, #8]
20005cd0:	eb08 0407 	add.w	r4, r8, r7
20005cd4:	6869      	ldr	r1, [r5, #4]
20005cd6:	429c      	cmp	r4, r3
20005cd8:	bfc8      	it	gt
20005cda:	3101      	addgt	r1, #1
20005cdc:	f7ff fe6e 	bl	200059bc <_Balloc>
20005ce0:	eb00 0384 	add.w	r3, r0, r4, lsl #2
20005ce4:	f100 0b14 	add.w	fp, r0, #20
20005ce8:	3314      	adds	r3, #20
20005cea:	9003      	str	r0, [sp, #12]
20005cec:	459b      	cmp	fp, r3
20005cee:	9304      	str	r3, [sp, #16]
20005cf0:	d206      	bcs.n	20005d00 <__multiply+0x54>
20005cf2:	9904      	ldr	r1, [sp, #16]
20005cf4:	465b      	mov	r3, fp
20005cf6:	2200      	movs	r2, #0
20005cf8:	f843 2b04 	str.w	r2, [r3], #4
20005cfc:	4299      	cmp	r1, r3
20005cfe:	d8fb      	bhi.n	20005cf8 <__multiply+0x4c>
20005d00:	eb06 0888 	add.w	r8, r6, r8, lsl #2
20005d04:	f106 0914 	add.w	r9, r6, #20
20005d08:	f108 0814 	add.w	r8, r8, #20
20005d0c:	eb05 0c87 	add.w	ip, r5, r7, lsl #2
20005d10:	3514      	adds	r5, #20
20005d12:	45c1      	cmp	r9, r8
20005d14:	f8cd 8004 	str.w	r8, [sp, #4]
20005d18:	f10c 0c14 	add.w	ip, ip, #20
20005d1c:	9502      	str	r5, [sp, #8]
20005d1e:	d24b      	bcs.n	20005db8 <__multiply+0x10c>
20005d20:	f04f 0a00 	mov.w	sl, #0
20005d24:	9405      	str	r4, [sp, #20]
20005d26:	f859 400a 	ldr.w	r4, [r9, sl]
20005d2a:	eb0a 080b 	add.w	r8, sl, fp
20005d2e:	b2a0      	uxth	r0, r4
20005d30:	b1d8      	cbz	r0, 20005d6a <__multiply+0xbe>
20005d32:	9a02      	ldr	r2, [sp, #8]
20005d34:	4643      	mov	r3, r8
20005d36:	2400      	movs	r4, #0
20005d38:	f852 5b04 	ldr.w	r5, [r2], #4
20005d3c:	6819      	ldr	r1, [r3, #0]
20005d3e:	b2af      	uxth	r7, r5
20005d40:	0c2d      	lsrs	r5, r5, #16
20005d42:	b28e      	uxth	r6, r1
20005d44:	0c09      	lsrs	r1, r1, #16
20005d46:	fb00 6607 	mla	r6, r0, r7, r6
20005d4a:	fb00 1105 	mla	r1, r0, r5, r1
20005d4e:	1936      	adds	r6, r6, r4
20005d50:	eb01 4116 	add.w	r1, r1, r6, lsr #16
20005d54:	b2b6      	uxth	r6, r6
20005d56:	0c0c      	lsrs	r4, r1, #16
20005d58:	4594      	cmp	ip, r2
20005d5a:	ea46 4601 	orr.w	r6, r6, r1, lsl #16
20005d5e:	f843 6b04 	str.w	r6, [r3], #4
20005d62:	d8e9      	bhi.n	20005d38 <__multiply+0x8c>
20005d64:	601c      	str	r4, [r3, #0]
20005d66:	f859 400a 	ldr.w	r4, [r9, sl]
20005d6a:	0c24      	lsrs	r4, r4, #16
20005d6c:	d01c      	beq.n	20005da8 <__multiply+0xfc>
20005d6e:	f85b 200a 	ldr.w	r2, [fp, sl]
20005d72:	4641      	mov	r1, r8
20005d74:	9b02      	ldr	r3, [sp, #8]
20005d76:	2500      	movs	r5, #0
20005d78:	4610      	mov	r0, r2
20005d7a:	881e      	ldrh	r6, [r3, #0]
20005d7c:	b297      	uxth	r7, r2
20005d7e:	fb06 5504 	mla	r5, r6, r4, r5
20005d82:	eb05 4510 	add.w	r5, r5, r0, lsr #16
20005d86:	ea47 4705 	orr.w	r7, r7, r5, lsl #16
20005d8a:	600f      	str	r7, [r1, #0]
20005d8c:	f851 0f04 	ldr.w	r0, [r1, #4]!
20005d90:	f853 2b04 	ldr.w	r2, [r3], #4
20005d94:	b286      	uxth	r6, r0
20005d96:	0c12      	lsrs	r2, r2, #16
20005d98:	fb02 6204 	mla	r2, r2, r4, r6
20005d9c:	eb02 4215 	add.w	r2, r2, r5, lsr #16
20005da0:	0c15      	lsrs	r5, r2, #16
20005da2:	459c      	cmp	ip, r3
20005da4:	d8e9      	bhi.n	20005d7a <__multiply+0xce>
20005da6:	600a      	str	r2, [r1, #0]
20005da8:	f10a 0a04 	add.w	sl, sl, #4
20005dac:	9a01      	ldr	r2, [sp, #4]
20005dae:	eb0a 0309 	add.w	r3, sl, r9
20005db2:	429a      	cmp	r2, r3
20005db4:	d8b7      	bhi.n	20005d26 <__multiply+0x7a>
20005db6:	9c05      	ldr	r4, [sp, #20]
20005db8:	2c00      	cmp	r4, #0
20005dba:	dd0b      	ble.n	20005dd4 <__multiply+0x128>
20005dbc:	9a04      	ldr	r2, [sp, #16]
20005dbe:	f852 3c04 	ldr.w	r3, [r2, #-4]
20005dc2:	b93b      	cbnz	r3, 20005dd4 <__multiply+0x128>
20005dc4:	4613      	mov	r3, r2
20005dc6:	e003      	b.n	20005dd0 <__multiply+0x124>
20005dc8:	f853 2c08 	ldr.w	r2, [r3, #-8]
20005dcc:	3b04      	subs	r3, #4
20005dce:	b90a      	cbnz	r2, 20005dd4 <__multiply+0x128>
20005dd0:	3c01      	subs	r4, #1
20005dd2:	d1f9      	bne.n	20005dc8 <__multiply+0x11c>
20005dd4:	9b03      	ldr	r3, [sp, #12]
20005dd6:	4618      	mov	r0, r3
20005dd8:	611c      	str	r4, [r3, #16]
20005dda:	b007      	add	sp, #28
20005ddc:	e8bd 8ff0 	ldmia.w	sp!, {r4, r5, r6, r7, r8, r9, sl, fp, pc}

20005de0 <__i2b>:
20005de0:	b510      	push	{r4, lr}
20005de2:	460c      	mov	r4, r1
20005de4:	2101      	movs	r1, #1
20005de6:	f7ff fde9 	bl	200059bc <_Balloc>
20005dea:	2201      	movs	r2, #1
20005dec:	6144      	str	r4, [r0, #20]
20005dee:	6102      	str	r2, [r0, #16]
20005df0:	bd10      	pop	{r4, pc}
20005df2:	bf00      	nop

20005df4 <__multadd>:
20005df4:	e92d 45f0 	stmdb	sp!, {r4, r5, r6, r7, r8, sl, lr}
20005df8:	460d      	mov	r5, r1
20005dfa:	2100      	movs	r1, #0
20005dfc:	4606      	mov	r6, r0
20005dfe:	692c      	ldr	r4, [r5, #16]
20005e00:	b083      	sub	sp, #12
20005e02:	f105 0814 	add.w	r8, r5, #20
20005e06:	4608      	mov	r0, r1
20005e08:	f858 7001 	ldr.w	r7, [r8, r1]
20005e0c:	3001      	adds	r0, #1
20005e0e:	fa1f fa87 	uxth.w	sl, r7
20005e12:	ea4f 4c17 	mov.w	ip, r7, lsr #16
20005e16:	fb0a 3302 	mla	r3, sl, r2, r3
20005e1a:	fb0c fc02 	mul.w	ip, ip, r2
20005e1e:	eb0c 4c13 	add.w	ip, ip, r3, lsr #16
20005e22:	b29b      	uxth	r3, r3
20005e24:	eb03 430c 	add.w	r3, r3, ip, lsl #16
20005e28:	f848 3001 	str.w	r3, [r8, r1]
20005e2c:	3104      	adds	r1, #4
20005e2e:	4284      	cmp	r4, r0
20005e30:	ea4f 431c 	mov.w	r3, ip, lsr #16
20005e34:	dce8      	bgt.n	20005e08 <__multadd+0x14>
20005e36:	b13b      	cbz	r3, 20005e48 <__multadd+0x54>
20005e38:	68aa      	ldr	r2, [r5, #8]
20005e3a:	4294      	cmp	r4, r2
20005e3c:	da08      	bge.n	20005e50 <__multadd+0x5c>
20005e3e:	eb05 0284 	add.w	r2, r5, r4, lsl #2
20005e42:	3401      	adds	r4, #1
20005e44:	612c      	str	r4, [r5, #16]
20005e46:	6153      	str	r3, [r2, #20]
20005e48:	4628      	mov	r0, r5
20005e4a:	b003      	add	sp, #12
20005e4c:	e8bd 85f0 	ldmia.w	sp!, {r4, r5, r6, r7, r8, sl, pc}
20005e50:	6869      	ldr	r1, [r5, #4]
20005e52:	4630      	mov	r0, r6
20005e54:	9301      	str	r3, [sp, #4]
20005e56:	3101      	adds	r1, #1
20005e58:	f7ff fdb0 	bl	200059bc <_Balloc>
20005e5c:	692a      	ldr	r2, [r5, #16]
20005e5e:	f105 010c 	add.w	r1, r5, #12
20005e62:	3202      	adds	r2, #2
20005e64:	0092      	lsls	r2, r2, #2
20005e66:	4607      	mov	r7, r0
20005e68:	300c      	adds	r0, #12
20005e6a:	f7ff fad7 	bl	2000541c <memcpy>
20005e6e:	4629      	mov	r1, r5
20005e70:	4630      	mov	r0, r6
20005e72:	463d      	mov	r5, r7
20005e74:	f7ff fd86 	bl	20005984 <_Bfree>
20005e78:	9b01      	ldr	r3, [sp, #4]
20005e7a:	e7e0      	b.n	20005e3e <__multadd+0x4a>

20005e7c <__pow5mult>:
20005e7c:	e92d 41f0 	stmdb	sp!, {r4, r5, r6, r7, r8, lr}
20005e80:	4615      	mov	r5, r2
20005e82:	f012 0203 	ands.w	r2, r2, #3
20005e86:	4604      	mov	r4, r0
20005e88:	4688      	mov	r8, r1
20005e8a:	d12c      	bne.n	20005ee6 <__pow5mult+0x6a>
20005e8c:	10ad      	asrs	r5, r5, #2
20005e8e:	d01e      	beq.n	20005ece <__pow5mult+0x52>
20005e90:	6a66      	ldr	r6, [r4, #36]	; 0x24
20005e92:	2e00      	cmp	r6, #0
20005e94:	d034      	beq.n	20005f00 <__pow5mult+0x84>
20005e96:	68b7      	ldr	r7, [r6, #8]
20005e98:	2f00      	cmp	r7, #0
20005e9a:	d03b      	beq.n	20005f14 <__pow5mult+0x98>
20005e9c:	f015 0f01 	tst.w	r5, #1
20005ea0:	d108      	bne.n	20005eb4 <__pow5mult+0x38>
20005ea2:	106d      	asrs	r5, r5, #1
20005ea4:	d013      	beq.n	20005ece <__pow5mult+0x52>
20005ea6:	683e      	ldr	r6, [r7, #0]
20005ea8:	b1a6      	cbz	r6, 20005ed4 <__pow5mult+0x58>
20005eaa:	4630      	mov	r0, r6
20005eac:	4607      	mov	r7, r0
20005eae:	f015 0f01 	tst.w	r5, #1
20005eb2:	d0f6      	beq.n	20005ea2 <__pow5mult+0x26>
20005eb4:	4641      	mov	r1, r8
20005eb6:	463a      	mov	r2, r7
20005eb8:	4620      	mov	r0, r4
20005eba:	f7ff fef7 	bl	20005cac <__multiply>
20005ebe:	4641      	mov	r1, r8
20005ec0:	4606      	mov	r6, r0
20005ec2:	4620      	mov	r0, r4
20005ec4:	f7ff fd5e 	bl	20005984 <_Bfree>
20005ec8:	106d      	asrs	r5, r5, #1
20005eca:	46b0      	mov	r8, r6
20005ecc:	d1eb      	bne.n	20005ea6 <__pow5mult+0x2a>
20005ece:	4640      	mov	r0, r8
20005ed0:	e8bd 81f0 	ldmia.w	sp!, {r4, r5, r6, r7, r8, pc}
20005ed4:	4639      	mov	r1, r7
20005ed6:	463a      	mov	r2, r7
20005ed8:	4620      	mov	r0, r4
20005eda:	f7ff fee7 	bl	20005cac <__multiply>
20005ede:	6038      	str	r0, [r7, #0]
20005ee0:	4607      	mov	r7, r0
20005ee2:	6006      	str	r6, [r0, #0]
20005ee4:	e7e3      	b.n	20005eae <__pow5mult+0x32>
20005ee6:	f647 2cb8 	movw	ip, #31416	; 0x7ab8
20005eea:	2300      	movs	r3, #0
20005eec:	f2c2 0c00 	movt	ip, #8192	; 0x2000
20005ef0:	eb0c 0282 	add.w	r2, ip, r2, lsl #2
20005ef4:	f8d2 20c4 	ldr.w	r2, [r2, #196]	; 0xc4
20005ef8:	f7ff ff7c 	bl	20005df4 <__multadd>
20005efc:	4680      	mov	r8, r0
20005efe:	e7c5      	b.n	20005e8c <__pow5mult+0x10>
20005f00:	2010      	movs	r0, #16
20005f02:	f7fe ff77 	bl	20004df4 <malloc>
20005f06:	2300      	movs	r3, #0
20005f08:	4606      	mov	r6, r0
20005f0a:	6260      	str	r0, [r4, #36]	; 0x24
20005f0c:	60c3      	str	r3, [r0, #12]
20005f0e:	6043      	str	r3, [r0, #4]
20005f10:	6083      	str	r3, [r0, #8]
20005f12:	6003      	str	r3, [r0, #0]
20005f14:	4620      	mov	r0, r4
20005f16:	f240 2171 	movw	r1, #625	; 0x271
20005f1a:	f7ff ff61 	bl	20005de0 <__i2b>
20005f1e:	2300      	movs	r3, #0
20005f20:	60b0      	str	r0, [r6, #8]
20005f22:	4607      	mov	r7, r0
20005f24:	6003      	str	r3, [r0, #0]
20005f26:	e7b9      	b.n	20005e9c <__pow5mult+0x20>

20005f28 <__s2b>:
20005f28:	e92d 45f8 	stmdb	sp!, {r3, r4, r5, r6, r7, r8, sl, lr}
20005f2c:	461e      	mov	r6, r3
20005f2e:	f648 6339 	movw	r3, #36409	; 0x8e39
20005f32:	f106 0c08 	add.w	ip, r6, #8
20005f36:	f6c3 03e3 	movt	r3, #14563	; 0x38e3
20005f3a:	4688      	mov	r8, r1
20005f3c:	4605      	mov	r5, r0
20005f3e:	4617      	mov	r7, r2
20005f40:	fb83 130c 	smull	r1, r3, r3, ip
20005f44:	ea4f 7cec 	mov.w	ip, ip, asr #31
20005f48:	ebcc 0c63 	rsb	ip, ip, r3, asr #1
20005f4c:	f1bc 0f01 	cmp.w	ip, #1
20005f50:	dd35      	ble.n	20005fbe <__s2b+0x96>
20005f52:	2100      	movs	r1, #0
20005f54:	2201      	movs	r2, #1
20005f56:	0052      	lsls	r2, r2, #1
20005f58:	3101      	adds	r1, #1
20005f5a:	4594      	cmp	ip, r2
20005f5c:	dcfb      	bgt.n	20005f56 <__s2b+0x2e>
20005f5e:	4628      	mov	r0, r5
20005f60:	f7ff fd2c 	bl	200059bc <_Balloc>
20005f64:	9b08      	ldr	r3, [sp, #32]
20005f66:	6143      	str	r3, [r0, #20]
20005f68:	2301      	movs	r3, #1
20005f6a:	2f09      	cmp	r7, #9
20005f6c:	6103      	str	r3, [r0, #16]
20005f6e:	dd22      	ble.n	20005fb6 <__s2b+0x8e>
20005f70:	f108 0a09 	add.w	sl, r8, #9
20005f74:	2409      	movs	r4, #9
20005f76:	f818 3004 	ldrb.w	r3, [r8, r4]
20005f7a:	4601      	mov	r1, r0
20005f7c:	220a      	movs	r2, #10
20005f7e:	3401      	adds	r4, #1
20005f80:	3b30      	subs	r3, #48	; 0x30
20005f82:	4628      	mov	r0, r5
20005f84:	f7ff ff36 	bl	20005df4 <__multadd>
20005f88:	42a7      	cmp	r7, r4
20005f8a:	dcf4      	bgt.n	20005f76 <__s2b+0x4e>
20005f8c:	eb0a 0807 	add.w	r8, sl, r7
20005f90:	f1a8 0808 	sub.w	r8, r8, #8
20005f94:	42be      	cmp	r6, r7
20005f96:	dd0c      	ble.n	20005fb2 <__s2b+0x8a>
20005f98:	2400      	movs	r4, #0
20005f9a:	f818 3004 	ldrb.w	r3, [r8, r4]
20005f9e:	4601      	mov	r1, r0
20005fa0:	3401      	adds	r4, #1
20005fa2:	220a      	movs	r2, #10
20005fa4:	3b30      	subs	r3, #48	; 0x30
20005fa6:	4628      	mov	r0, r5
20005fa8:	f7ff ff24 	bl	20005df4 <__multadd>
20005fac:	19e3      	adds	r3, r4, r7
20005fae:	429e      	cmp	r6, r3
20005fb0:	dcf3      	bgt.n	20005f9a <__s2b+0x72>
20005fb2:	e8bd 85f8 	ldmia.w	sp!, {r3, r4, r5, r6, r7, r8, sl, pc}
20005fb6:	f108 080a 	add.w	r8, r8, #10
20005fba:	2709      	movs	r7, #9
20005fbc:	e7ea      	b.n	20005f94 <__s2b+0x6c>
20005fbe:	2100      	movs	r1, #0
20005fc0:	e7cd      	b.n	20005f5e <__s2b+0x36>
20005fc2:	bf00      	nop

20005fc4 <_realloc_r>:
20005fc4:	e92d 4ff0 	stmdb	sp!, {r4, r5, r6, r7, r8, r9, sl, fp, lr}
20005fc8:	4691      	mov	r9, r2
20005fca:	b083      	sub	sp, #12
20005fcc:	4607      	mov	r7, r0
20005fce:	460e      	mov	r6, r1
20005fd0:	2900      	cmp	r1, #0
20005fd2:	f000 813a 	beq.w	2000624a <_realloc_r+0x286>
20005fd6:	f1a1 0808 	sub.w	r8, r1, #8
20005fda:	f109 040b 	add.w	r4, r9, #11
20005fde:	f7ff fb41 	bl	20005664 <__malloc_lock>
20005fe2:	2c16      	cmp	r4, #22
20005fe4:	f8d8 1004 	ldr.w	r1, [r8, #4]
20005fe8:	460b      	mov	r3, r1
20005fea:	f200 80a0 	bhi.w	2000612e <_realloc_r+0x16a>
20005fee:	2210      	movs	r2, #16
20005ff0:	2500      	movs	r5, #0
20005ff2:	4614      	mov	r4, r2
20005ff4:	454c      	cmp	r4, r9
20005ff6:	bf38      	it	cc
20005ff8:	f045 0501 	orrcc.w	r5, r5, #1
20005ffc:	2d00      	cmp	r5, #0
20005ffe:	f040 812a 	bne.w	20006256 <_realloc_r+0x292>
20006002:	f021 0a03 	bic.w	sl, r1, #3
20006006:	4592      	cmp	sl, r2
20006008:	bfa2      	ittt	ge
2000600a:	4640      	movge	r0, r8
2000600c:	4655      	movge	r5, sl
2000600e:	f108 0808 	addge.w	r8, r8, #8
20006012:	da75      	bge.n	20006100 <_realloc_r+0x13c>
20006014:	f647 5370 	movw	r3, #32112	; 0x7d70
20006018:	eb08 000a 	add.w	r0, r8, sl
2000601c:	f2c2 0300 	movt	r3, #8192	; 0x2000
20006020:	f8d3 e008 	ldr.w	lr, [r3, #8]
20006024:	4586      	cmp	lr, r0
20006026:	f000 811a 	beq.w	2000625e <_realloc_r+0x29a>
2000602a:	f8d0 c004 	ldr.w	ip, [r0, #4]
2000602e:	f02c 0b01 	bic.w	fp, ip, #1
20006032:	4483      	add	fp, r0
20006034:	f8db b004 	ldr.w	fp, [fp, #4]
20006038:	f01b 0f01 	tst.w	fp, #1
2000603c:	d07c      	beq.n	20006138 <_realloc_r+0x174>
2000603e:	46ac      	mov	ip, r5
20006040:	4628      	mov	r0, r5
20006042:	f011 0f01 	tst.w	r1, #1
20006046:	f040 809b 	bne.w	20006180 <_realloc_r+0x1bc>
2000604a:	f856 1c08 	ldr.w	r1, [r6, #-8]
2000604e:	ebc1 0b08 	rsb	fp, r1, r8
20006052:	f8db 5004 	ldr.w	r5, [fp, #4]
20006056:	f025 0503 	bic.w	r5, r5, #3
2000605a:	2800      	cmp	r0, #0
2000605c:	f000 80dd 	beq.w	2000621a <_realloc_r+0x256>
20006060:	4570      	cmp	r0, lr
20006062:	f000 811f 	beq.w	200062a4 <_realloc_r+0x2e0>
20006066:	eb05 030a 	add.w	r3, r5, sl
2000606a:	eb0c 0503 	add.w	r5, ip, r3
2000606e:	4295      	cmp	r5, r2
20006070:	bfb8      	it	lt
20006072:	461d      	movlt	r5, r3
20006074:	f2c0 80d2 	blt.w	2000621c <_realloc_r+0x258>
20006078:	6881      	ldr	r1, [r0, #8]
2000607a:	465b      	mov	r3, fp
2000607c:	68c0      	ldr	r0, [r0, #12]
2000607e:	f1aa 0204 	sub.w	r2, sl, #4
20006082:	2a24      	cmp	r2, #36	; 0x24
20006084:	6081      	str	r1, [r0, #8]
20006086:	60c8      	str	r0, [r1, #12]
20006088:	f853 1f08 	ldr.w	r1, [r3, #8]!
2000608c:	f8db 000c 	ldr.w	r0, [fp, #12]
20006090:	6081      	str	r1, [r0, #8]
20006092:	60c8      	str	r0, [r1, #12]
20006094:	f200 80d0 	bhi.w	20006238 <_realloc_r+0x274>
20006098:	2a13      	cmp	r2, #19
2000609a:	469c      	mov	ip, r3
2000609c:	d921      	bls.n	200060e2 <_realloc_r+0x11e>
2000609e:	4631      	mov	r1, r6
200060a0:	f10b 0c10 	add.w	ip, fp, #16
200060a4:	f851 0b04 	ldr.w	r0, [r1], #4
200060a8:	f8cb 0008 	str.w	r0, [fp, #8]
200060ac:	6870      	ldr	r0, [r6, #4]
200060ae:	1d0e      	adds	r6, r1, #4
200060b0:	2a1b      	cmp	r2, #27
200060b2:	f8cb 000c 	str.w	r0, [fp, #12]
200060b6:	d914      	bls.n	200060e2 <_realloc_r+0x11e>
200060b8:	6848      	ldr	r0, [r1, #4]
200060ba:	1d31      	adds	r1, r6, #4
200060bc:	f10b 0c18 	add.w	ip, fp, #24
200060c0:	f8cb 0010 	str.w	r0, [fp, #16]
200060c4:	6870      	ldr	r0, [r6, #4]
200060c6:	1d0e      	adds	r6, r1, #4
200060c8:	2a24      	cmp	r2, #36	; 0x24
200060ca:	f8cb 0014 	str.w	r0, [fp, #20]
200060ce:	d108      	bne.n	200060e2 <_realloc_r+0x11e>
200060d0:	684a      	ldr	r2, [r1, #4]
200060d2:	f10b 0c20 	add.w	ip, fp, #32
200060d6:	f8cb 2018 	str.w	r2, [fp, #24]
200060da:	6872      	ldr	r2, [r6, #4]
200060dc:	3608      	adds	r6, #8
200060de:	f8cb 201c 	str.w	r2, [fp, #28]
200060e2:	4631      	mov	r1, r6
200060e4:	4698      	mov	r8, r3
200060e6:	4662      	mov	r2, ip
200060e8:	4658      	mov	r0, fp
200060ea:	f851 3b04 	ldr.w	r3, [r1], #4
200060ee:	f842 3b04 	str.w	r3, [r2], #4
200060f2:	6873      	ldr	r3, [r6, #4]
200060f4:	f8cc 3004 	str.w	r3, [ip, #4]
200060f8:	684b      	ldr	r3, [r1, #4]
200060fa:	6053      	str	r3, [r2, #4]
200060fc:	f8db 3004 	ldr.w	r3, [fp, #4]
20006100:	ebc4 0c05 	rsb	ip, r4, r5
20006104:	f1bc 0f0f 	cmp.w	ip, #15
20006108:	d826      	bhi.n	20006158 <_realloc_r+0x194>
2000610a:	1942      	adds	r2, r0, r5
2000610c:	f003 0301 	and.w	r3, r3, #1
20006110:	ea43 0505 	orr.w	r5, r3, r5
20006114:	6045      	str	r5, [r0, #4]
20006116:	6853      	ldr	r3, [r2, #4]
20006118:	f043 0301 	orr.w	r3, r3, #1
2000611c:	6053      	str	r3, [r2, #4]
2000611e:	4638      	mov	r0, r7
20006120:	4645      	mov	r5, r8
20006122:	f7ff faa1 	bl	20005668 <__malloc_unlock>
20006126:	4628      	mov	r0, r5
20006128:	b003      	add	sp, #12
2000612a:	e8bd 8ff0 	ldmia.w	sp!, {r4, r5, r6, r7, r8, r9, sl, fp, pc}
2000612e:	f024 0407 	bic.w	r4, r4, #7
20006132:	4622      	mov	r2, r4
20006134:	0fe5      	lsrs	r5, r4, #31
20006136:	e75d      	b.n	20005ff4 <_realloc_r+0x30>
20006138:	f02c 0c03 	bic.w	ip, ip, #3
2000613c:	eb0c 050a 	add.w	r5, ip, sl
20006140:	4295      	cmp	r5, r2
20006142:	f6ff af7e 	blt.w	20006042 <_realloc_r+0x7e>
20006146:	6882      	ldr	r2, [r0, #8]
20006148:	460b      	mov	r3, r1
2000614a:	68c1      	ldr	r1, [r0, #12]
2000614c:	4640      	mov	r0, r8
2000614e:	f108 0808 	add.w	r8, r8, #8
20006152:	608a      	str	r2, [r1, #8]
20006154:	60d1      	str	r1, [r2, #12]
20006156:	e7d3      	b.n	20006100 <_realloc_r+0x13c>
20006158:	1901      	adds	r1, r0, r4
2000615a:	f003 0301 	and.w	r3, r3, #1
2000615e:	eb01 020c 	add.w	r2, r1, ip
20006162:	ea43 0404 	orr.w	r4, r3, r4
20006166:	f04c 0301 	orr.w	r3, ip, #1
2000616a:	6044      	str	r4, [r0, #4]
2000616c:	604b      	str	r3, [r1, #4]
2000616e:	4638      	mov	r0, r7
20006170:	6853      	ldr	r3, [r2, #4]
20006172:	3108      	adds	r1, #8
20006174:	f043 0301 	orr.w	r3, r3, #1
20006178:	6053      	str	r3, [r2, #4]
2000617a:	f7fe fd19 	bl	20004bb0 <_free_r>
2000617e:	e7ce      	b.n	2000611e <_realloc_r+0x15a>
20006180:	4649      	mov	r1, r9
20006182:	4638      	mov	r0, r7
20006184:	f7fe fe3e 	bl	20004e04 <_malloc_r>
20006188:	4605      	mov	r5, r0
2000618a:	2800      	cmp	r0, #0
2000618c:	d041      	beq.n	20006212 <_realloc_r+0x24e>
2000618e:	f8d8 3004 	ldr.w	r3, [r8, #4]
20006192:	f1a0 0208 	sub.w	r2, r0, #8
20006196:	f023 0101 	bic.w	r1, r3, #1
2000619a:	4441      	add	r1, r8
2000619c:	428a      	cmp	r2, r1
2000619e:	f000 80d7 	beq.w	20006350 <_realloc_r+0x38c>
200061a2:	f1aa 0204 	sub.w	r2, sl, #4
200061a6:	4631      	mov	r1, r6
200061a8:	2a24      	cmp	r2, #36	; 0x24
200061aa:	d878      	bhi.n	2000629e <_realloc_r+0x2da>
200061ac:	2a13      	cmp	r2, #19
200061ae:	4603      	mov	r3, r0
200061b0:	d921      	bls.n	200061f6 <_realloc_r+0x232>
200061b2:	4634      	mov	r4, r6
200061b4:	f854 3b04 	ldr.w	r3, [r4], #4
200061b8:	1d21      	adds	r1, r4, #4
200061ba:	f840 3b04 	str.w	r3, [r0], #4
200061be:	1d03      	adds	r3, r0, #4
200061c0:	f8d6 c004 	ldr.w	ip, [r6, #4]
200061c4:	2a1b      	cmp	r2, #27
200061c6:	f8c5 c004 	str.w	ip, [r5, #4]
200061ca:	d914      	bls.n	200061f6 <_realloc_r+0x232>
200061cc:	f8d4 e004 	ldr.w	lr, [r4, #4]
200061d0:	1d1c      	adds	r4, r3, #4
200061d2:	f101 0c04 	add.w	ip, r1, #4
200061d6:	f8c0 e004 	str.w	lr, [r0, #4]
200061da:	6848      	ldr	r0, [r1, #4]
200061dc:	f10c 0104 	add.w	r1, ip, #4
200061e0:	6058      	str	r0, [r3, #4]
200061e2:	1d23      	adds	r3, r4, #4
200061e4:	2a24      	cmp	r2, #36	; 0x24
200061e6:	d106      	bne.n	200061f6 <_realloc_r+0x232>
200061e8:	f8dc 2004 	ldr.w	r2, [ip, #4]
200061ec:	6062      	str	r2, [r4, #4]
200061ee:	684a      	ldr	r2, [r1, #4]
200061f0:	3108      	adds	r1, #8
200061f2:	605a      	str	r2, [r3, #4]
200061f4:	3308      	adds	r3, #8
200061f6:	4608      	mov	r0, r1
200061f8:	461a      	mov	r2, r3
200061fa:	f850 4b04 	ldr.w	r4, [r0], #4
200061fe:	f842 4b04 	str.w	r4, [r2], #4
20006202:	6849      	ldr	r1, [r1, #4]
20006204:	6059      	str	r1, [r3, #4]
20006206:	6843      	ldr	r3, [r0, #4]
20006208:	6053      	str	r3, [r2, #4]
2000620a:	4631      	mov	r1, r6
2000620c:	4638      	mov	r0, r7
2000620e:	f7fe fccf 	bl	20004bb0 <_free_r>
20006212:	4638      	mov	r0, r7
20006214:	f7ff fa28 	bl	20005668 <__malloc_unlock>
20006218:	e785      	b.n	20006126 <_realloc_r+0x162>
2000621a:	4455      	add	r5, sl
2000621c:	4295      	cmp	r5, r2
2000621e:	dbaf      	blt.n	20006180 <_realloc_r+0x1bc>
20006220:	465b      	mov	r3, fp
20006222:	f8db 000c 	ldr.w	r0, [fp, #12]
20006226:	f1aa 0204 	sub.w	r2, sl, #4
2000622a:	f853 1f08 	ldr.w	r1, [r3, #8]!
2000622e:	2a24      	cmp	r2, #36	; 0x24
20006230:	6081      	str	r1, [r0, #8]
20006232:	60c8      	str	r0, [r1, #12]
20006234:	f67f af30 	bls.w	20006098 <_realloc_r+0xd4>
20006238:	4618      	mov	r0, r3
2000623a:	4631      	mov	r1, r6
2000623c:	4698      	mov	r8, r3
2000623e:	f7ff f9b5 	bl	200055ac <memmove>
20006242:	4658      	mov	r0, fp
20006244:	f8db 3004 	ldr.w	r3, [fp, #4]
20006248:	e75a      	b.n	20006100 <_realloc_r+0x13c>
2000624a:	4611      	mov	r1, r2
2000624c:	b003      	add	sp, #12
2000624e:	e8bd 4ff0 	ldmia.w	sp!, {r4, r5, r6, r7, r8, r9, sl, fp, lr}
20006252:	f7fe bdd7 	b.w	20004e04 <_malloc_r>
20006256:	230c      	movs	r3, #12
20006258:	2500      	movs	r5, #0
2000625a:	603b      	str	r3, [r7, #0]
2000625c:	e763      	b.n	20006126 <_realloc_r+0x162>
2000625e:	f8de 5004 	ldr.w	r5, [lr, #4]
20006262:	f104 0b10 	add.w	fp, r4, #16
20006266:	f025 0c03 	bic.w	ip, r5, #3
2000626a:	eb0c 000a 	add.w	r0, ip, sl
2000626e:	4558      	cmp	r0, fp
20006270:	bfb8      	it	lt
20006272:	4670      	movlt	r0, lr
20006274:	f6ff aee5 	blt.w	20006042 <_realloc_r+0x7e>
20006278:	eb08 0204 	add.w	r2, r8, r4
2000627c:	1b01      	subs	r1, r0, r4
2000627e:	f041 0101 	orr.w	r1, r1, #1
20006282:	609a      	str	r2, [r3, #8]
20006284:	6051      	str	r1, [r2, #4]
20006286:	4638      	mov	r0, r7
20006288:	f8d8 1004 	ldr.w	r1, [r8, #4]
2000628c:	4635      	mov	r5, r6
2000628e:	f001 0301 	and.w	r3, r1, #1
20006292:	431c      	orrs	r4, r3
20006294:	f8c8 4004 	str.w	r4, [r8, #4]
20006298:	f7ff f9e6 	bl	20005668 <__malloc_unlock>
2000629c:	e743      	b.n	20006126 <_realloc_r+0x162>
2000629e:	f7ff f985 	bl	200055ac <memmove>
200062a2:	e7b2      	b.n	2000620a <_realloc_r+0x246>
200062a4:	4455      	add	r5, sl
200062a6:	f104 0110 	add.w	r1, r4, #16
200062aa:	44ac      	add	ip, r5
200062ac:	458c      	cmp	ip, r1
200062ae:	dbb5      	blt.n	2000621c <_realloc_r+0x258>
200062b0:	465d      	mov	r5, fp
200062b2:	f8db 000c 	ldr.w	r0, [fp, #12]
200062b6:	f1aa 0204 	sub.w	r2, sl, #4
200062ba:	f855 1f08 	ldr.w	r1, [r5, #8]!
200062be:	2a24      	cmp	r2, #36	; 0x24
200062c0:	6081      	str	r1, [r0, #8]
200062c2:	60c8      	str	r0, [r1, #12]
200062c4:	d84c      	bhi.n	20006360 <_realloc_r+0x39c>
200062c6:	2a13      	cmp	r2, #19
200062c8:	4628      	mov	r0, r5
200062ca:	d924      	bls.n	20006316 <_realloc_r+0x352>
200062cc:	4631      	mov	r1, r6
200062ce:	f10b 0010 	add.w	r0, fp, #16
200062d2:	f851 eb04 	ldr.w	lr, [r1], #4
200062d6:	f8cb e008 	str.w	lr, [fp, #8]
200062da:	f8d6 e004 	ldr.w	lr, [r6, #4]
200062de:	1d0e      	adds	r6, r1, #4
200062e0:	2a1b      	cmp	r2, #27
200062e2:	f8cb e00c 	str.w	lr, [fp, #12]
200062e6:	d916      	bls.n	20006316 <_realloc_r+0x352>
200062e8:	f8d1 e004 	ldr.w	lr, [r1, #4]
200062ec:	1d31      	adds	r1, r6, #4
200062ee:	f10b 0018 	add.w	r0, fp, #24
200062f2:	f8cb e010 	str.w	lr, [fp, #16]
200062f6:	f8d6 e004 	ldr.w	lr, [r6, #4]
200062fa:	1d0e      	adds	r6, r1, #4
200062fc:	2a24      	cmp	r2, #36	; 0x24
200062fe:	f8cb e014 	str.w	lr, [fp, #20]
20006302:	d108      	bne.n	20006316 <_realloc_r+0x352>
20006304:	684a      	ldr	r2, [r1, #4]
20006306:	f10b 0020 	add.w	r0, fp, #32
2000630a:	f8cb 2018 	str.w	r2, [fp, #24]
2000630e:	6872      	ldr	r2, [r6, #4]
20006310:	3608      	adds	r6, #8
20006312:	f8cb 201c 	str.w	r2, [fp, #28]
20006316:	4631      	mov	r1, r6
20006318:	4602      	mov	r2, r0
2000631a:	f851 eb04 	ldr.w	lr, [r1], #4
2000631e:	f842 eb04 	str.w	lr, [r2], #4
20006322:	6876      	ldr	r6, [r6, #4]
20006324:	6046      	str	r6, [r0, #4]
20006326:	6849      	ldr	r1, [r1, #4]
20006328:	6051      	str	r1, [r2, #4]
2000632a:	eb0b 0204 	add.w	r2, fp, r4
2000632e:	ebc4 010c 	rsb	r1, r4, ip
20006332:	f041 0101 	orr.w	r1, r1, #1
20006336:	609a      	str	r2, [r3, #8]
20006338:	6051      	str	r1, [r2, #4]
2000633a:	4638      	mov	r0, r7
2000633c:	f8db 1004 	ldr.w	r1, [fp, #4]
20006340:	f001 0301 	and.w	r3, r1, #1
20006344:	431c      	orrs	r4, r3
20006346:	f8cb 4004 	str.w	r4, [fp, #4]
2000634a:	f7ff f98d 	bl	20005668 <__malloc_unlock>
2000634e:	e6ea      	b.n	20006126 <_realloc_r+0x162>
20006350:	6855      	ldr	r5, [r2, #4]
20006352:	4640      	mov	r0, r8
20006354:	f108 0808 	add.w	r8, r8, #8
20006358:	f025 0503 	bic.w	r5, r5, #3
2000635c:	4455      	add	r5, sl
2000635e:	e6cf      	b.n	20006100 <_realloc_r+0x13c>
20006360:	4631      	mov	r1, r6
20006362:	4628      	mov	r0, r5
20006364:	9300      	str	r3, [sp, #0]
20006366:	f8cd c004 	str.w	ip, [sp, #4]
2000636a:	f7ff f91f 	bl	200055ac <memmove>
2000636e:	f8dd c004 	ldr.w	ip, [sp, #4]
20006372:	9b00      	ldr	r3, [sp, #0]
20006374:	e7d9      	b.n	2000632a <_realloc_r+0x366>
20006376:	bf00      	nop

20006378 <__isinfd>:
20006378:	4602      	mov	r2, r0
2000637a:	4240      	negs	r0, r0
2000637c:	ea40 0302 	orr.w	r3, r0, r2
20006380:	f021 4100 	bic.w	r1, r1, #2147483648	; 0x80000000
20006384:	ea41 73d3 	orr.w	r3, r1, r3, lsr #31
20006388:	f1c3 43fe 	rsb	r3, r3, #2130706432	; 0x7f000000
2000638c:	f503 0370 	add.w	r3, r3, #15728640	; 0xf00000
20006390:	4258      	negs	r0, r3
20006392:	ea40 0303 	orr.w	r3, r0, r3
20006396:	17d8      	asrs	r0, r3, #31
20006398:	3001      	adds	r0, #1
2000639a:	4770      	bx	lr

2000639c <__isnand>:
2000639c:	4602      	mov	r2, r0
2000639e:	4240      	negs	r0, r0
200063a0:	4310      	orrs	r0, r2
200063a2:	f021 4100 	bic.w	r1, r1, #2147483648	; 0x80000000
200063a6:	ea41 70d0 	orr.w	r0, r1, r0, lsr #31
200063aa:	f1c0 40fe 	rsb	r0, r0, #2130706432	; 0x7f000000
200063ae:	f500 0070 	add.w	r0, r0, #15728640	; 0xf00000
200063b2:	0fc0      	lsrs	r0, r0, #31
200063b4:	4770      	bx	lr
200063b6:	bf00      	nop

200063b8 <_sbrk_r>:
200063b8:	b538      	push	{r3, r4, r5, lr}
200063ba:	f248 5444 	movw	r4, #34116	; 0x8544
200063be:	f2c2 0400 	movt	r4, #8192	; 0x2000
200063c2:	4605      	mov	r5, r0
200063c4:	4608      	mov	r0, r1
200063c6:	2300      	movs	r3, #0
200063c8:	6023      	str	r3, [r4, #0]
200063ca:	f7fa f97d 	bl	200006c8 <_sbrk>
200063ce:	f1b0 3fff 	cmp.w	r0, #4294967295
200063d2:	d000      	beq.n	200063d6 <_sbrk_r+0x1e>
200063d4:	bd38      	pop	{r3, r4, r5, pc}
200063d6:	6823      	ldr	r3, [r4, #0]
200063d8:	2b00      	cmp	r3, #0
200063da:	d0fb      	beq.n	200063d4 <_sbrk_r+0x1c>
200063dc:	602b      	str	r3, [r5, #0]
200063de:	bd38      	pop	{r3, r4, r5, pc}

200063e0 <strcmp>:
200063e0:	ea80 0201 	eor.w	r2, r0, r1
200063e4:	f012 0f03 	tst.w	r2, #3
200063e8:	d13a      	bne.n	20006460 <strcmp_unaligned>
200063ea:	f010 0203 	ands.w	r2, r0, #3
200063ee:	f020 0003 	bic.w	r0, r0, #3
200063f2:	f021 0103 	bic.w	r1, r1, #3
200063f6:	f850 cb04 	ldr.w	ip, [r0], #4
200063fa:	bf08      	it	eq
200063fc:	f851 3b04 	ldreq.w	r3, [r1], #4
20006400:	d00d      	beq.n	2000641e <strcmp+0x3e>
20006402:	f082 0203 	eor.w	r2, r2, #3
20006406:	ea4f 02c2 	mov.w	r2, r2, lsl #3
2000640a:	f06f 437f 	mvn.w	r3, #4278190080	; 0xff000000
2000640e:	fa23 f202 	lsr.w	r2, r3, r2
20006412:	f851 3b04 	ldr.w	r3, [r1], #4
20006416:	ea4c 0c02 	orr.w	ip, ip, r2
2000641a:	ea43 0302 	orr.w	r3, r3, r2
2000641e:	bf00      	nop
20006420:	f1ac 3201 	sub.w	r2, ip, #16843009	; 0x1010101
20006424:	459c      	cmp	ip, r3
20006426:	bf01      	itttt	eq
20006428:	ea22 020c 	biceq.w	r2, r2, ip
2000642c:	f012 3f80 	tsteq.w	r2, #2155905152	; 0x80808080
20006430:	f850 cb04 	ldreq.w	ip, [r0], #4
20006434:	f851 3b04 	ldreq.w	r3, [r1], #4
20006438:	d0f2      	beq.n	20006420 <strcmp+0x40>
2000643a:	ea4f 600c 	mov.w	r0, ip, lsl #24
2000643e:	ea4f 2c1c 	mov.w	ip, ip, lsr #8
20006442:	2801      	cmp	r0, #1
20006444:	bf28      	it	cs
20006446:	ebb0 6f03 	cmpcs.w	r0, r3, lsl #24
2000644a:	bf08      	it	eq
2000644c:	0a1b      	lsreq	r3, r3, #8
2000644e:	d0f4      	beq.n	2000643a <strcmp+0x5a>
20006450:	f003 03ff 	and.w	r3, r3, #255	; 0xff
20006454:	ea4f 6010 	mov.w	r0, r0, lsr #24
20006458:	eba0 0003 	sub.w	r0, r0, r3
2000645c:	4770      	bx	lr
2000645e:	bf00      	nop

20006460 <strcmp_unaligned>:
20006460:	f010 0f03 	tst.w	r0, #3
20006464:	d00a      	beq.n	2000647c <strcmp_unaligned+0x1c>
20006466:	f810 2b01 	ldrb.w	r2, [r0], #1
2000646a:	f811 3b01 	ldrb.w	r3, [r1], #1
2000646e:	2a01      	cmp	r2, #1
20006470:	bf28      	it	cs
20006472:	429a      	cmpcs	r2, r3
20006474:	d0f4      	beq.n	20006460 <strcmp_unaligned>
20006476:	eba2 0003 	sub.w	r0, r2, r3
2000647a:	4770      	bx	lr
2000647c:	f84d 5d04 	str.w	r5, [sp, #-4]!
20006480:	f84d 4d04 	str.w	r4, [sp, #-4]!
20006484:	f04f 0201 	mov.w	r2, #1
20006488:	ea42 2202 	orr.w	r2, r2, r2, lsl #8
2000648c:	ea42 4202 	orr.w	r2, r2, r2, lsl #16
20006490:	f001 0c03 	and.w	ip, r1, #3
20006494:	f021 0103 	bic.w	r1, r1, #3
20006498:	f850 4b04 	ldr.w	r4, [r0], #4
2000649c:	f851 5b04 	ldr.w	r5, [r1], #4
200064a0:	f1bc 0f02 	cmp.w	ip, #2
200064a4:	d026      	beq.n	200064f4 <strcmp_unaligned+0x94>
200064a6:	d84b      	bhi.n	20006540 <strcmp_unaligned+0xe0>
200064a8:	f024 4c7f 	bic.w	ip, r4, #4278190080	; 0xff000000
200064ac:	ebbc 2f15 	cmp.w	ip, r5, lsr #8
200064b0:	eba4 0302 	sub.w	r3, r4, r2
200064b4:	ea23 0304 	bic.w	r3, r3, r4
200064b8:	d10d      	bne.n	200064d6 <strcmp_unaligned+0x76>
200064ba:	ea13 13c2 	ands.w	r3, r3, r2, lsl #7
200064be:	bf08      	it	eq
200064c0:	f851 5b04 	ldreq.w	r5, [r1], #4
200064c4:	d10a      	bne.n	200064dc <strcmp_unaligned+0x7c>
200064c6:	ea8c 0c04 	eor.w	ip, ip, r4
200064ca:	ebbc 6f05 	cmp.w	ip, r5, lsl #24
200064ce:	d10c      	bne.n	200064ea <strcmp_unaligned+0x8a>
200064d0:	f850 4b04 	ldr.w	r4, [r0], #4
200064d4:	e7e8      	b.n	200064a8 <strcmp_unaligned+0x48>
200064d6:	ea4f 2515 	mov.w	r5, r5, lsr #8
200064da:	e05c      	b.n	20006596 <strcmp_unaligned+0x136>
200064dc:	f033 437f 	bics.w	r3, r3, #4278190080	; 0xff000000
200064e0:	d152      	bne.n	20006588 <strcmp_unaligned+0x128>
200064e2:	780d      	ldrb	r5, [r1, #0]
200064e4:	ea4f 6c14 	mov.w	ip, r4, lsr #24
200064e8:	e055      	b.n	20006596 <strcmp_unaligned+0x136>
200064ea:	ea4f 6c14 	mov.w	ip, r4, lsr #24
200064ee:	f005 05ff 	and.w	r5, r5, #255	; 0xff
200064f2:	e050      	b.n	20006596 <strcmp_unaligned+0x136>
200064f4:	ea4f 4c04 	mov.w	ip, r4, lsl #16
200064f8:	eba4 0302 	sub.w	r3, r4, r2
200064fc:	ea4f 4c1c 	mov.w	ip, ip, lsr #16
20006500:	ea23 0304 	bic.w	r3, r3, r4
20006504:	ebbc 4f15 	cmp.w	ip, r5, lsr #16
20006508:	d117      	bne.n	2000653a <strcmp_unaligned+0xda>
2000650a:	ea13 13c2 	ands.w	r3, r3, r2, lsl #7
2000650e:	bf08      	it	eq
20006510:	f851 5b04 	ldreq.w	r5, [r1], #4
20006514:	d107      	bne.n	20006526 <strcmp_unaligned+0xc6>
20006516:	ea8c 0c04 	eor.w	ip, ip, r4
2000651a:	ebbc 4f05 	cmp.w	ip, r5, lsl #16
2000651e:	d108      	bne.n	20006532 <strcmp_unaligned+0xd2>
20006520:	f850 4b04 	ldr.w	r4, [r0], #4
20006524:	e7e6      	b.n	200064f4 <strcmp_unaligned+0x94>
20006526:	041b      	lsls	r3, r3, #16
20006528:	d12e      	bne.n	20006588 <strcmp_unaligned+0x128>
2000652a:	880d      	ldrh	r5, [r1, #0]
2000652c:	ea4f 4c14 	mov.w	ip, r4, lsr #16
20006530:	e031      	b.n	20006596 <strcmp_unaligned+0x136>
20006532:	ea4f 4505 	mov.w	r5, r5, lsl #16
20006536:	ea4f 4c14 	mov.w	ip, r4, lsr #16
2000653a:	ea4f 4515 	mov.w	r5, r5, lsr #16
2000653e:	e02a      	b.n	20006596 <strcmp_unaligned+0x136>
20006540:	f004 0cff 	and.w	ip, r4, #255	; 0xff
20006544:	ebbc 6f15 	cmp.w	ip, r5, lsr #24
20006548:	eba4 0302 	sub.w	r3, r4, r2
2000654c:	ea23 0304 	bic.w	r3, r3, r4
20006550:	d10d      	bne.n	2000656e <strcmp_unaligned+0x10e>
20006552:	ea13 13c2 	ands.w	r3, r3, r2, lsl #7
20006556:	bf08      	it	eq
20006558:	f851 5b04 	ldreq.w	r5, [r1], #4
2000655c:	d10a      	bne.n	20006574 <strcmp_unaligned+0x114>
2000655e:	ea8c 0c04 	eor.w	ip, ip, r4
20006562:	ebbc 2f05 	cmp.w	ip, r5, lsl #8
20006566:	d10a      	bne.n	2000657e <strcmp_unaligned+0x11e>
20006568:	f850 4b04 	ldr.w	r4, [r0], #4
2000656c:	e7e8      	b.n	20006540 <strcmp_unaligned+0xe0>
2000656e:	ea4f 6515 	mov.w	r5, r5, lsr #24
20006572:	e010      	b.n	20006596 <strcmp_unaligned+0x136>
20006574:	f014 0fff 	tst.w	r4, #255	; 0xff
20006578:	d006      	beq.n	20006588 <strcmp_unaligned+0x128>
2000657a:	f851 5b04 	ldr.w	r5, [r1], #4
2000657e:	ea4f 2c14 	mov.w	ip, r4, lsr #8
20006582:	f025 457f 	bic.w	r5, r5, #4278190080	; 0xff000000
20006586:	e006      	b.n	20006596 <strcmp_unaligned+0x136>
20006588:	f04f 0000 	mov.w	r0, #0
2000658c:	f85d 4b04 	ldr.w	r4, [sp], #4
20006590:	f85d 5b04 	ldr.w	r5, [sp], #4
20006594:	4770      	bx	lr
20006596:	f00c 02ff 	and.w	r2, ip, #255	; 0xff
2000659a:	f005 00ff 	and.w	r0, r5, #255	; 0xff
2000659e:	2801      	cmp	r0, #1
200065a0:	bf28      	it	cs
200065a2:	4290      	cmpcs	r0, r2
200065a4:	bf04      	itt	eq
200065a6:	ea4f 2c1c 	moveq.w	ip, ip, lsr #8
200065aa:	0a2d      	lsreq	r5, r5, #8
200065ac:	d0f3      	beq.n	20006596 <strcmp_unaligned+0x136>
200065ae:	eba2 0000 	sub.w	r0, r2, r0
200065b2:	f85d 4b04 	ldr.w	r4, [sp], #4
200065b6:	f85d 5b04 	ldr.w	r5, [sp], #4
200065ba:	4770      	bx	lr

200065bc <strlen>:
200065bc:	f020 0103 	bic.w	r1, r0, #3
200065c0:	f010 0003 	ands.w	r0, r0, #3
200065c4:	f1c0 0000 	rsb	r0, r0, #0
200065c8:	f851 3b04 	ldr.w	r3, [r1], #4
200065cc:	f100 0c04 	add.w	ip, r0, #4
200065d0:	ea4f 0ccc 	mov.w	ip, ip, lsl #3
200065d4:	f06f 0200 	mvn.w	r2, #0
200065d8:	bf1c      	itt	ne
200065da:	fa22 f20c 	lsrne.w	r2, r2, ip
200065de:	4313      	orrne	r3, r2
200065e0:	f04f 0c01 	mov.w	ip, #1
200065e4:	ea4c 2c0c 	orr.w	ip, ip, ip, lsl #8
200065e8:	ea4c 4c0c 	orr.w	ip, ip, ip, lsl #16
200065ec:	eba3 020c 	sub.w	r2, r3, ip
200065f0:	ea22 0203 	bic.w	r2, r2, r3
200065f4:	ea12 12cc 	ands.w	r2, r2, ip, lsl #7
200065f8:	bf04      	itt	eq
200065fa:	f851 3b04 	ldreq.w	r3, [r1], #4
200065fe:	3004      	addeq	r0, #4
20006600:	d0f4      	beq.n	200065ec <strlen+0x30>
20006602:	f013 0fff 	tst.w	r3, #255	; 0xff
20006606:	bf1f      	itttt	ne
20006608:	3001      	addne	r0, #1
2000660a:	f413 4f7f 	tstne.w	r3, #65280	; 0xff00
2000660e:	3001      	addne	r0, #1
20006610:	f413 0f7f 	tstne.w	r3, #16711680	; 0xff0000
20006614:	bf18      	it	ne
20006616:	3001      	addne	r0, #1
20006618:	4770      	bx	lr
2000661a:	bf00      	nop

2000661c <_calloc_r>:
2000661c:	b538      	push	{r3, r4, r5, lr}
2000661e:	fb01 f102 	mul.w	r1, r1, r2
20006622:	f7fe fbef 	bl	20004e04 <_malloc_r>
20006626:	4604      	mov	r4, r0
20006628:	b1f8      	cbz	r0, 2000666a <_calloc_r+0x4e>
2000662a:	f850 2c04 	ldr.w	r2, [r0, #-4]
2000662e:	f022 0203 	bic.w	r2, r2, #3
20006632:	3a04      	subs	r2, #4
20006634:	2a24      	cmp	r2, #36	; 0x24
20006636:	d81a      	bhi.n	2000666e <_calloc_r+0x52>
20006638:	2a13      	cmp	r2, #19
2000663a:	4603      	mov	r3, r0
2000663c:	d90f      	bls.n	2000665e <_calloc_r+0x42>
2000663e:	2100      	movs	r1, #0
20006640:	f840 1b04 	str.w	r1, [r0], #4
20006644:	1d03      	adds	r3, r0, #4
20006646:	2a1b      	cmp	r2, #27
20006648:	6061      	str	r1, [r4, #4]
2000664a:	d908      	bls.n	2000665e <_calloc_r+0x42>
2000664c:	1d1d      	adds	r5, r3, #4
2000664e:	6041      	str	r1, [r0, #4]
20006650:	6059      	str	r1, [r3, #4]
20006652:	1d2b      	adds	r3, r5, #4
20006654:	2a24      	cmp	r2, #36	; 0x24
20006656:	bf02      	ittt	eq
20006658:	6069      	streq	r1, [r5, #4]
2000665a:	6059      	streq	r1, [r3, #4]
2000665c:	3308      	addeq	r3, #8
2000665e:	461a      	mov	r2, r3
20006660:	2100      	movs	r1, #0
20006662:	f842 1b04 	str.w	r1, [r2], #4
20006666:	6059      	str	r1, [r3, #4]
20006668:	6051      	str	r1, [r2, #4]
2000666a:	4620      	mov	r0, r4
2000666c:	bd38      	pop	{r3, r4, r5, pc}
2000666e:	2100      	movs	r1, #0
20006670:	f000 f802 	bl	20006678 <memset>
20006674:	4620      	mov	r0, r4
20006676:	bd38      	pop	{r3, r4, r5, pc}

20006678 <memset>:
20006678:	2a03      	cmp	r2, #3
2000667a:	b2c9      	uxtb	r1, r1
2000667c:	b430      	push	{r4, r5}
2000667e:	d807      	bhi.n	20006690 <memset+0x18>
20006680:	b122      	cbz	r2, 2000668c <memset+0x14>
20006682:	2300      	movs	r3, #0
20006684:	54c1      	strb	r1, [r0, r3]
20006686:	3301      	adds	r3, #1
20006688:	4293      	cmp	r3, r2
2000668a:	d1fb      	bne.n	20006684 <memset+0xc>
2000668c:	bc30      	pop	{r4, r5}
2000668e:	4770      	bx	lr
20006690:	eb00 0c02 	add.w	ip, r0, r2
20006694:	4603      	mov	r3, r0
20006696:	e001      	b.n	2000669c <memset+0x24>
20006698:	f803 1c01 	strb.w	r1, [r3, #-1]
2000669c:	f003 0403 	and.w	r4, r3, #3
200066a0:	461a      	mov	r2, r3
200066a2:	3301      	adds	r3, #1
200066a4:	2c00      	cmp	r4, #0
200066a6:	d1f7      	bne.n	20006698 <memset+0x20>
200066a8:	f04f 3301 	mov.w	r3, #16843009	; 0x1010101
200066ac:	ebc2 040c 	rsb	r4, r2, ip
200066b0:	fb03 f301 	mul.w	r3, r3, r1
200066b4:	e01f      	b.n	200066f6 <memset+0x7e>
200066b6:	f842 3c40 	str.w	r3, [r2, #-64]
200066ba:	f842 3c3c 	str.w	r3, [r2, #-60]
200066be:	f842 3c38 	str.w	r3, [r2, #-56]
200066c2:	f842 3c34 	str.w	r3, [r2, #-52]
200066c6:	f842 3c30 	str.w	r3, [r2, #-48]
200066ca:	f842 3c2c 	str.w	r3, [r2, #-44]
200066ce:	f842 3c28 	str.w	r3, [r2, #-40]
200066d2:	f842 3c24 	str.w	r3, [r2, #-36]
200066d6:	f842 3c20 	str.w	r3, [r2, #-32]
200066da:	f842 3c1c 	str.w	r3, [r2, #-28]
200066de:	f842 3c18 	str.w	r3, [r2, #-24]
200066e2:	f842 3c14 	str.w	r3, [r2, #-20]
200066e6:	f842 3c10 	str.w	r3, [r2, #-16]
200066ea:	f842 3c0c 	str.w	r3, [r2, #-12]
200066ee:	f842 3c08 	str.w	r3, [r2, #-8]
200066f2:	f842 3c04 	str.w	r3, [r2, #-4]
200066f6:	4615      	mov	r5, r2
200066f8:	3240      	adds	r2, #64	; 0x40
200066fa:	2c3f      	cmp	r4, #63	; 0x3f
200066fc:	f1a4 0440 	sub.w	r4, r4, #64	; 0x40
20006700:	dcd9      	bgt.n	200066b6 <memset+0x3e>
20006702:	462a      	mov	r2, r5
20006704:	ebc5 040c 	rsb	r4, r5, ip
20006708:	e007      	b.n	2000671a <memset+0xa2>
2000670a:	f842 3c10 	str.w	r3, [r2, #-16]
2000670e:	f842 3c0c 	str.w	r3, [r2, #-12]
20006712:	f842 3c08 	str.w	r3, [r2, #-8]
20006716:	f842 3c04 	str.w	r3, [r2, #-4]
2000671a:	4615      	mov	r5, r2
2000671c:	3210      	adds	r2, #16
2000671e:	2c0f      	cmp	r4, #15
20006720:	f1a4 0410 	sub.w	r4, r4, #16
20006724:	dcf1      	bgt.n	2000670a <memset+0x92>
20006726:	462a      	mov	r2, r5
20006728:	ebc5 050c 	rsb	r5, r5, ip
2000672c:	e001      	b.n	20006732 <memset+0xba>
2000672e:	f842 3c04 	str.w	r3, [r2, #-4]
20006732:	4614      	mov	r4, r2
20006734:	3204      	adds	r2, #4
20006736:	2d03      	cmp	r5, #3
20006738:	f1a5 0504 	sub.w	r5, r5, #4
2000673c:	dcf7      	bgt.n	2000672e <memset+0xb6>
2000673e:	e001      	b.n	20006744 <memset+0xcc>
20006740:	f804 1b01 	strb.w	r1, [r4], #1
20006744:	4564      	cmp	r4, ip
20006746:	d3fb      	bcc.n	20006740 <memset+0xc8>
20006748:	e7a0      	b.n	2000668c <memset+0x14>
2000674a:	bf00      	nop
2000674c:	0000      	lsls	r0, r0, #0
	...

20006750 <__aeabi_uidiv>:
20006750:	1e4a      	subs	r2, r1, #1
20006752:	bf08      	it	eq
20006754:	4770      	bxeq	lr
20006756:	f0c0 8124 	bcc.w	200069a2 <__aeabi_uidiv+0x252>
2000675a:	4288      	cmp	r0, r1
2000675c:	f240 8116 	bls.w	2000698c <__aeabi_uidiv+0x23c>
20006760:	4211      	tst	r1, r2
20006762:	f000 8117 	beq.w	20006994 <__aeabi_uidiv+0x244>
20006766:	fab0 f380 	clz	r3, r0
2000676a:	fab1 f281 	clz	r2, r1
2000676e:	eba2 0303 	sub.w	r3, r2, r3
20006772:	f1c3 031f 	rsb	r3, r3, #31
20006776:	a204      	add	r2, pc, #16	; (adr r2, 20006788 <__aeabi_uidiv+0x38>)
20006778:	eb02 1303 	add.w	r3, r2, r3, lsl #4
2000677c:	f04f 0200 	mov.w	r2, #0
20006780:	469f      	mov	pc, r3
20006782:	bf00      	nop
20006784:	f3af 8000 	nop.w
20006788:	ebb0 7fc1 	cmp.w	r0, r1, lsl #31
2000678c:	bf00      	nop
2000678e:	eb42 0202 	adc.w	r2, r2, r2
20006792:	bf28      	it	cs
20006794:	eba0 70c1 	subcs.w	r0, r0, r1, lsl #31
20006798:	ebb0 7f81 	cmp.w	r0, r1, lsl #30
2000679c:	bf00      	nop
2000679e:	eb42 0202 	adc.w	r2, r2, r2
200067a2:	bf28      	it	cs
200067a4:	eba0 7081 	subcs.w	r0, r0, r1, lsl #30
200067a8:	ebb0 7f41 	cmp.w	r0, r1, lsl #29
200067ac:	bf00      	nop
200067ae:	eb42 0202 	adc.w	r2, r2, r2
200067b2:	bf28      	it	cs
200067b4:	eba0 7041 	subcs.w	r0, r0, r1, lsl #29
200067b8:	ebb0 7f01 	cmp.w	r0, r1, lsl #28
200067bc:	bf00      	nop
200067be:	eb42 0202 	adc.w	r2, r2, r2
200067c2:	bf28      	it	cs
200067c4:	eba0 7001 	subcs.w	r0, r0, r1, lsl #28
200067c8:	ebb0 6fc1 	cmp.w	r0, r1, lsl #27
200067cc:	bf00      	nop
200067ce:	eb42 0202 	adc.w	r2, r2, r2
200067d2:	bf28      	it	cs
200067d4:	eba0 60c1 	subcs.w	r0, r0, r1, lsl #27
200067d8:	ebb0 6f81 	cmp.w	r0, r1, lsl #26
200067dc:	bf00      	nop
200067de:	eb42 0202 	adc.w	r2, r2, r2
200067e2:	bf28      	it	cs
200067e4:	eba0 6081 	subcs.w	r0, r0, r1, lsl #26
200067e8:	ebb0 6f41 	cmp.w	r0, r1, lsl #25
200067ec:	bf00      	nop
200067ee:	eb42 0202 	adc.w	r2, r2, r2
200067f2:	bf28      	it	cs
200067f4:	eba0 6041 	subcs.w	r0, r0, r1, lsl #25
200067f8:	ebb0 6f01 	cmp.w	r0, r1, lsl #24
200067fc:	bf00      	nop
200067fe:	eb42 0202 	adc.w	r2, r2, r2
20006802:	bf28      	it	cs
20006804:	eba0 6001 	subcs.w	r0, r0, r1, lsl #24
20006808:	ebb0 5fc1 	cmp.w	r0, r1, lsl #23
2000680c:	bf00      	nop
2000680e:	eb42 0202 	adc.w	r2, r2, r2
20006812:	bf28      	it	cs
20006814:	eba0 50c1 	subcs.w	r0, r0, r1, lsl #23
20006818:	ebb0 5f81 	cmp.w	r0, r1, lsl #22
2000681c:	bf00      	nop
2000681e:	eb42 0202 	adc.w	r2, r2, r2
20006822:	bf28      	it	cs
20006824:	eba0 5081 	subcs.w	r0, r0, r1, lsl #22
20006828:	ebb0 5f41 	cmp.w	r0, r1, lsl #21
2000682c:	bf00      	nop
2000682e:	eb42 0202 	adc.w	r2, r2, r2
20006832:	bf28      	it	cs
20006834:	eba0 5041 	subcs.w	r0, r0, r1, lsl #21
20006838:	ebb0 5f01 	cmp.w	r0, r1, lsl #20
2000683c:	bf00      	nop
2000683e:	eb42 0202 	adc.w	r2, r2, r2
20006842:	bf28      	it	cs
20006844:	eba0 5001 	subcs.w	r0, r0, r1, lsl #20
20006848:	ebb0 4fc1 	cmp.w	r0, r1, lsl #19
2000684c:	bf00      	nop
2000684e:	eb42 0202 	adc.w	r2, r2, r2
20006852:	bf28      	it	cs
20006854:	eba0 40c1 	subcs.w	r0, r0, r1, lsl #19
20006858:	ebb0 4f81 	cmp.w	r0, r1, lsl #18
2000685c:	bf00      	nop
2000685e:	eb42 0202 	adc.w	r2, r2, r2
20006862:	bf28      	it	cs
20006864:	eba0 4081 	subcs.w	r0, r0, r1, lsl #18
20006868:	ebb0 4f41 	cmp.w	r0, r1, lsl #17
2000686c:	bf00      	nop
2000686e:	eb42 0202 	adc.w	r2, r2, r2
20006872:	bf28      	it	cs
20006874:	eba0 4041 	subcs.w	r0, r0, r1, lsl #17
20006878:	ebb0 4f01 	cmp.w	r0, r1, lsl #16
2000687c:	bf00      	nop
2000687e:	eb42 0202 	adc.w	r2, r2, r2
20006882:	bf28      	it	cs
20006884:	eba0 4001 	subcs.w	r0, r0, r1, lsl #16
20006888:	ebb0 3fc1 	cmp.w	r0, r1, lsl #15
2000688c:	bf00      	nop
2000688e:	eb42 0202 	adc.w	r2, r2, r2
20006892:	bf28      	it	cs
20006894:	eba0 30c1 	subcs.w	r0, r0, r1, lsl #15
20006898:	ebb0 3f81 	cmp.w	r0, r1, lsl #14
2000689c:	bf00      	nop
2000689e:	eb42 0202 	adc.w	r2, r2, r2
200068a2:	bf28      	it	cs
200068a4:	eba0 3081 	subcs.w	r0, r0, r1, lsl #14
200068a8:	ebb0 3f41 	cmp.w	r0, r1, lsl #13
200068ac:	bf00      	nop
200068ae:	eb42 0202 	adc.w	r2, r2, r2
200068b2:	bf28      	it	cs
200068b4:	eba0 3041 	subcs.w	r0, r0, r1, lsl #13
200068b8:	ebb0 3f01 	cmp.w	r0, r1, lsl #12
200068bc:	bf00      	nop
200068be:	eb42 0202 	adc.w	r2, r2, r2
200068c2:	bf28      	it	cs
200068c4:	eba0 3001 	subcs.w	r0, r0, r1, lsl #12
200068c8:	ebb0 2fc1 	cmp.w	r0, r1, lsl #11
200068cc:	bf00      	nop
200068ce:	eb42 0202 	adc.w	r2, r2, r2
200068d2:	bf28      	it	cs
200068d4:	eba0 20c1 	subcs.w	r0, r0, r1, lsl #11
200068d8:	ebb0 2f81 	cmp.w	r0, r1, lsl #10
200068dc:	bf00      	nop
200068de:	eb42 0202 	adc.w	r2, r2, r2
200068e2:	bf28      	it	cs
200068e4:	eba0 2081 	subcs.w	r0, r0, r1, lsl #10
200068e8:	ebb0 2f41 	cmp.w	r0, r1, lsl #9
200068ec:	bf00      	nop
200068ee:	eb42 0202 	adc.w	r2, r2, r2
200068f2:	bf28      	it	cs
200068f4:	eba0 2041 	subcs.w	r0, r0, r1, lsl #9
200068f8:	ebb0 2f01 	cmp.w	r0, r1, lsl #8
200068fc:	bf00      	nop
200068fe:	eb42 0202 	adc.w	r2, r2, r2
20006902:	bf28      	it	cs
20006904:	eba0 2001 	subcs.w	r0, r0, r1, lsl #8
20006908:	ebb0 1fc1 	cmp.w	r0, r1, lsl #7
2000690c:	bf00      	nop
2000690e:	eb42 0202 	adc.w	r2, r2, r2
20006912:	bf28      	it	cs
20006914:	eba0 10c1 	subcs.w	r0, r0, r1, lsl #7
20006918:	ebb0 1f81 	cmp.w	r0, r1, lsl #6
2000691c:	bf00      	nop
2000691e:	eb42 0202 	adc.w	r2, r2, r2
20006922:	bf28      	it	cs
20006924:	eba0 1081 	subcs.w	r0, r0, r1, lsl #6
20006928:	ebb0 1f41 	cmp.w	r0, r1, lsl #5
2000692c:	bf00      	nop
2000692e:	eb42 0202 	adc.w	r2, r2, r2
20006932:	bf28      	it	cs
20006934:	eba0 1041 	subcs.w	r0, r0, r1, lsl #5
20006938:	ebb0 1f01 	cmp.w	r0, r1, lsl #4
2000693c:	bf00      	nop
2000693e:	eb42 0202 	adc.w	r2, r2, r2
20006942:	bf28      	it	cs
20006944:	eba0 1001 	subcs.w	r0, r0, r1, lsl #4
20006948:	ebb0 0fc1 	cmp.w	r0, r1, lsl #3
2000694c:	bf00      	nop
2000694e:	eb42 0202 	adc.w	r2, r2, r2
20006952:	bf28      	it	cs
20006954:	eba0 00c1 	subcs.w	r0, r0, r1, lsl #3
20006958:	ebb0 0f81 	cmp.w	r0, r1, lsl #2
2000695c:	bf00      	nop
2000695e:	eb42 0202 	adc.w	r2, r2, r2
20006962:	bf28      	it	cs
20006964:	eba0 0081 	subcs.w	r0, r0, r1, lsl #2
20006968:	ebb0 0f41 	cmp.w	r0, r1, lsl #1
2000696c:	bf00      	nop
2000696e:	eb42 0202 	adc.w	r2, r2, r2
20006972:	bf28      	it	cs
20006974:	eba0 0041 	subcs.w	r0, r0, r1, lsl #1
20006978:	ebb0 0f01 	cmp.w	r0, r1
2000697c:	bf00      	nop
2000697e:	eb42 0202 	adc.w	r2, r2, r2
20006982:	bf28      	it	cs
20006984:	eba0 0001 	subcs.w	r0, r0, r1
20006988:	4610      	mov	r0, r2
2000698a:	4770      	bx	lr
2000698c:	bf0c      	ite	eq
2000698e:	2001      	moveq	r0, #1
20006990:	2000      	movne	r0, #0
20006992:	4770      	bx	lr
20006994:	fab1 f281 	clz	r2, r1
20006998:	f1c2 021f 	rsb	r2, r2, #31
2000699c:	fa20 f002 	lsr.w	r0, r0, r2
200069a0:	4770      	bx	lr
200069a2:	b108      	cbz	r0, 200069a8 <__aeabi_uidiv+0x258>
200069a4:	f04f 30ff 	mov.w	r0, #4294967295
200069a8:	f000 b80e 	b.w	200069c8 <__aeabi_idiv0>

200069ac <__aeabi_uidivmod>:
200069ac:	2900      	cmp	r1, #0
200069ae:	d0f8      	beq.n	200069a2 <__aeabi_uidiv+0x252>
200069b0:	e92d 4003 	stmdb	sp!, {r0, r1, lr}
200069b4:	f7ff fecc 	bl	20006750 <__aeabi_uidiv>
200069b8:	e8bd 4006 	ldmia.w	sp!, {r1, r2, lr}
200069bc:	fb02 f300 	mul.w	r3, r2, r0
200069c0:	eba1 0103 	sub.w	r1, r1, r3
200069c4:	4770      	bx	lr
200069c6:	bf00      	nop

200069c8 <__aeabi_idiv0>:
200069c8:	4770      	bx	lr
200069ca:	bf00      	nop

200069cc <__aeabi_dmul>:
200069cc:	b570      	push	{r4, r5, r6, lr}
200069ce:	f04f 0cff 	mov.w	ip, #255	; 0xff
200069d2:	f44c 6ce0 	orr.w	ip, ip, #1792	; 0x700
200069d6:	ea1c 5411 	ands.w	r4, ip, r1, lsr #20
200069da:	bf1d      	ittte	ne
200069dc:	ea1c 5513 	andsne.w	r5, ip, r3, lsr #20
200069e0:	ea94 0f0c 	teqne	r4, ip
200069e4:	ea95 0f0c 	teqne	r5, ip
200069e8:	f000 f8de 	bleq	20006ba8 <__aeabi_dmul+0x1dc>
200069ec:	442c      	add	r4, r5
200069ee:	ea81 0603 	eor.w	r6, r1, r3
200069f2:	ea21 514c 	bic.w	r1, r1, ip, lsl #21
200069f6:	ea23 534c 	bic.w	r3, r3, ip, lsl #21
200069fa:	ea50 3501 	orrs.w	r5, r0, r1, lsl #12
200069fe:	bf18      	it	ne
20006a00:	ea52 3503 	orrsne.w	r5, r2, r3, lsl #12
20006a04:	f441 1180 	orr.w	r1, r1, #1048576	; 0x100000
20006a08:	f443 1380 	orr.w	r3, r3, #1048576	; 0x100000
20006a0c:	d038      	beq.n	20006a80 <__aeabi_dmul+0xb4>
20006a0e:	fba0 ce02 	umull	ip, lr, r0, r2
20006a12:	f04f 0500 	mov.w	r5, #0
20006a16:	fbe1 e502 	umlal	lr, r5, r1, r2
20006a1a:	f006 4200 	and.w	r2, r6, #2147483648	; 0x80000000
20006a1e:	fbe0 e503 	umlal	lr, r5, r0, r3
20006a22:	f04f 0600 	mov.w	r6, #0
20006a26:	fbe1 5603 	umlal	r5, r6, r1, r3
20006a2a:	f09c 0f00 	teq	ip, #0
20006a2e:	bf18      	it	ne
20006a30:	f04e 0e01 	orrne.w	lr, lr, #1
20006a34:	f1a4 04ff 	sub.w	r4, r4, #255	; 0xff
20006a38:	f5b6 7f00 	cmp.w	r6, #512	; 0x200
20006a3c:	f564 7440 	sbc.w	r4, r4, #768	; 0x300
20006a40:	d204      	bcs.n	20006a4c <__aeabi_dmul+0x80>
20006a42:	ea5f 0e4e 	movs.w	lr, lr, lsl #1
20006a46:	416d      	adcs	r5, r5
20006a48:	eb46 0606 	adc.w	r6, r6, r6
20006a4c:	ea42 21c6 	orr.w	r1, r2, r6, lsl #11
20006a50:	ea41 5155 	orr.w	r1, r1, r5, lsr #21
20006a54:	ea4f 20c5 	mov.w	r0, r5, lsl #11
20006a58:	ea40 505e 	orr.w	r0, r0, lr, lsr #21
20006a5c:	ea4f 2ece 	mov.w	lr, lr, lsl #11
20006a60:	f1b4 0cfd 	subs.w	ip, r4, #253	; 0xfd
20006a64:	bf88      	it	hi
20006a66:	f5bc 6fe0 	cmphi.w	ip, #1792	; 0x700
20006a6a:	d81e      	bhi.n	20006aaa <__aeabi_dmul+0xde>
20006a6c:	f1be 4f00 	cmp.w	lr, #2147483648	; 0x80000000
20006a70:	bf08      	it	eq
20006a72:	ea5f 0e50 	movseq.w	lr, r0, lsr #1
20006a76:	f150 0000 	adcs.w	r0, r0, #0
20006a7a:	eb41 5104 	adc.w	r1, r1, r4, lsl #20
20006a7e:	bd70      	pop	{r4, r5, r6, pc}
20006a80:	f006 4600 	and.w	r6, r6, #2147483648	; 0x80000000
20006a84:	ea46 0101 	orr.w	r1, r6, r1
20006a88:	ea40 0002 	orr.w	r0, r0, r2
20006a8c:	ea81 0103 	eor.w	r1, r1, r3
20006a90:	ebb4 045c 	subs.w	r4, r4, ip, lsr #1
20006a94:	bfc2      	ittt	gt
20006a96:	ebd4 050c 	rsbsgt	r5, r4, ip
20006a9a:	ea41 5104 	orrgt.w	r1, r1, r4, lsl #20
20006a9e:	bd70      	popgt	{r4, r5, r6, pc}
20006aa0:	f441 1180 	orr.w	r1, r1, #1048576	; 0x100000
20006aa4:	f04f 0e00 	mov.w	lr, #0
20006aa8:	3c01      	subs	r4, #1
20006aaa:	f300 80ab 	bgt.w	20006c04 <__aeabi_dmul+0x238>
20006aae:	f114 0f36 	cmn.w	r4, #54	; 0x36
20006ab2:	bfde      	ittt	le
20006ab4:	2000      	movle	r0, #0
20006ab6:	f001 4100 	andle.w	r1, r1, #2147483648	; 0x80000000
20006aba:	bd70      	pople	{r4, r5, r6, pc}
20006abc:	f1c4 0400 	rsb	r4, r4, #0
20006ac0:	3c20      	subs	r4, #32
20006ac2:	da35      	bge.n	20006b30 <__aeabi_dmul+0x164>
20006ac4:	340c      	adds	r4, #12
20006ac6:	dc1b      	bgt.n	20006b00 <__aeabi_dmul+0x134>
20006ac8:	f104 0414 	add.w	r4, r4, #20
20006acc:	f1c4 0520 	rsb	r5, r4, #32
20006ad0:	fa00 f305 	lsl.w	r3, r0, r5
20006ad4:	fa20 f004 	lsr.w	r0, r0, r4
20006ad8:	fa01 f205 	lsl.w	r2, r1, r5
20006adc:	ea40 0002 	orr.w	r0, r0, r2
20006ae0:	f001 4200 	and.w	r2, r1, #2147483648	; 0x80000000
20006ae4:	f021 4100 	bic.w	r1, r1, #2147483648	; 0x80000000
20006ae8:	eb10 70d3 	adds.w	r0, r0, r3, lsr #31
20006aec:	fa21 f604 	lsr.w	r6, r1, r4
20006af0:	eb42 0106 	adc.w	r1, r2, r6
20006af4:	ea5e 0e43 	orrs.w	lr, lr, r3, lsl #1
20006af8:	bf08      	it	eq
20006afa:	ea20 70d3 	biceq.w	r0, r0, r3, lsr #31
20006afe:	bd70      	pop	{r4, r5, r6, pc}
20006b00:	f1c4 040c 	rsb	r4, r4, #12
20006b04:	f1c4 0520 	rsb	r5, r4, #32
20006b08:	fa00 f304 	lsl.w	r3, r0, r4
20006b0c:	fa20 f005 	lsr.w	r0, r0, r5
20006b10:	fa01 f204 	lsl.w	r2, r1, r4
20006b14:	ea40 0002 	orr.w	r0, r0, r2
20006b18:	f001 4100 	and.w	r1, r1, #2147483648	; 0x80000000
20006b1c:	eb10 70d3 	adds.w	r0, r0, r3, lsr #31
20006b20:	f141 0100 	adc.w	r1, r1, #0
20006b24:	ea5e 0e43 	orrs.w	lr, lr, r3, lsl #1
20006b28:	bf08      	it	eq
20006b2a:	ea20 70d3 	biceq.w	r0, r0, r3, lsr #31
20006b2e:	bd70      	pop	{r4, r5, r6, pc}
20006b30:	f1c4 0520 	rsb	r5, r4, #32
20006b34:	fa00 f205 	lsl.w	r2, r0, r5
20006b38:	ea4e 0e02 	orr.w	lr, lr, r2
20006b3c:	fa20 f304 	lsr.w	r3, r0, r4
20006b40:	fa01 f205 	lsl.w	r2, r1, r5
20006b44:	ea43 0302 	orr.w	r3, r3, r2
20006b48:	fa21 f004 	lsr.w	r0, r1, r4
20006b4c:	f001 4100 	and.w	r1, r1, #2147483648	; 0x80000000
20006b50:	fa21 f204 	lsr.w	r2, r1, r4
20006b54:	ea20 0002 	bic.w	r0, r0, r2
20006b58:	eb00 70d3 	add.w	r0, r0, r3, lsr #31
20006b5c:	ea5e 0e43 	orrs.w	lr, lr, r3, lsl #1
20006b60:	bf08      	it	eq
20006b62:	ea20 70d3 	biceq.w	r0, r0, r3, lsr #31
20006b66:	bd70      	pop	{r4, r5, r6, pc}
20006b68:	f094 0f00 	teq	r4, #0
20006b6c:	d10f      	bne.n	20006b8e <__aeabi_dmul+0x1c2>
20006b6e:	f001 4600 	and.w	r6, r1, #2147483648	; 0x80000000
20006b72:	0040      	lsls	r0, r0, #1
20006b74:	eb41 0101 	adc.w	r1, r1, r1
20006b78:	f411 1f80 	tst.w	r1, #1048576	; 0x100000
20006b7c:	bf08      	it	eq
20006b7e:	3c01      	subeq	r4, #1
20006b80:	d0f7      	beq.n	20006b72 <__aeabi_dmul+0x1a6>
20006b82:	ea41 0106 	orr.w	r1, r1, r6
20006b86:	f095 0f00 	teq	r5, #0
20006b8a:	bf18      	it	ne
20006b8c:	4770      	bxne	lr
20006b8e:	f003 4600 	and.w	r6, r3, #2147483648	; 0x80000000
20006b92:	0052      	lsls	r2, r2, #1
20006b94:	eb43 0303 	adc.w	r3, r3, r3
20006b98:	f413 1f80 	tst.w	r3, #1048576	; 0x100000
20006b9c:	bf08      	it	eq
20006b9e:	3d01      	subeq	r5, #1
20006ba0:	d0f7      	beq.n	20006b92 <__aeabi_dmul+0x1c6>
20006ba2:	ea43 0306 	orr.w	r3, r3, r6
20006ba6:	4770      	bx	lr
20006ba8:	ea94 0f0c 	teq	r4, ip
20006bac:	ea0c 5513 	and.w	r5, ip, r3, lsr #20
20006bb0:	bf18      	it	ne
20006bb2:	ea95 0f0c 	teqne	r5, ip
20006bb6:	d00c      	beq.n	20006bd2 <__aeabi_dmul+0x206>
20006bb8:	ea50 0641 	orrs.w	r6, r0, r1, lsl #1
20006bbc:	bf18      	it	ne
20006bbe:	ea52 0643 	orrsne.w	r6, r2, r3, lsl #1
20006bc2:	d1d1      	bne.n	20006b68 <__aeabi_dmul+0x19c>
20006bc4:	ea81 0103 	eor.w	r1, r1, r3
20006bc8:	f001 4100 	and.w	r1, r1, #2147483648	; 0x80000000
20006bcc:	f04f 0000 	mov.w	r0, #0
20006bd0:	bd70      	pop	{r4, r5, r6, pc}
20006bd2:	ea50 0641 	orrs.w	r6, r0, r1, lsl #1
20006bd6:	bf06      	itte	eq
20006bd8:	4610      	moveq	r0, r2
20006bda:	4619      	moveq	r1, r3
20006bdc:	ea52 0643 	orrsne.w	r6, r2, r3, lsl #1
20006be0:	d019      	beq.n	20006c16 <__aeabi_dmul+0x24a>
20006be2:	ea94 0f0c 	teq	r4, ip
20006be6:	d102      	bne.n	20006bee <__aeabi_dmul+0x222>
20006be8:	ea50 3601 	orrs.w	r6, r0, r1, lsl #12
20006bec:	d113      	bne.n	20006c16 <__aeabi_dmul+0x24a>
20006bee:	ea95 0f0c 	teq	r5, ip
20006bf2:	d105      	bne.n	20006c00 <__aeabi_dmul+0x234>
20006bf4:	ea52 3603 	orrs.w	r6, r2, r3, lsl #12
20006bf8:	bf1c      	itt	ne
20006bfa:	4610      	movne	r0, r2
20006bfc:	4619      	movne	r1, r3
20006bfe:	d10a      	bne.n	20006c16 <__aeabi_dmul+0x24a>
20006c00:	ea81 0103 	eor.w	r1, r1, r3
20006c04:	f001 4100 	and.w	r1, r1, #2147483648	; 0x80000000
20006c08:	f041 41fe 	orr.w	r1, r1, #2130706432	; 0x7f000000
20006c0c:	f441 0170 	orr.w	r1, r1, #15728640	; 0xf00000
20006c10:	f04f 0000 	mov.w	r0, #0
20006c14:	bd70      	pop	{r4, r5, r6, pc}
20006c16:	f041 41fe 	orr.w	r1, r1, #2130706432	; 0x7f000000
20006c1a:	f441 0178 	orr.w	r1, r1, #16252928	; 0xf80000
20006c1e:	bd70      	pop	{r4, r5, r6, pc}

20006c20 <__aeabi_ddiv>:
20006c20:	b570      	push	{r4, r5, r6, lr}
20006c22:	f04f 0cff 	mov.w	ip, #255	; 0xff
20006c26:	f44c 6ce0 	orr.w	ip, ip, #1792	; 0x700
20006c2a:	ea1c 5411 	ands.w	r4, ip, r1, lsr #20
20006c2e:	bf1d      	ittte	ne
20006c30:	ea1c 5513 	andsne.w	r5, ip, r3, lsr #20
20006c34:	ea94 0f0c 	teqne	r4, ip
20006c38:	ea95 0f0c 	teqne	r5, ip
20006c3c:	f000 f8a7 	bleq	20006d8e <__aeabi_ddiv+0x16e>
20006c40:	eba4 0405 	sub.w	r4, r4, r5
20006c44:	ea81 0e03 	eor.w	lr, r1, r3
20006c48:	ea52 3503 	orrs.w	r5, r2, r3, lsl #12
20006c4c:	ea4f 3101 	mov.w	r1, r1, lsl #12
20006c50:	f000 8088 	beq.w	20006d64 <__aeabi_ddiv+0x144>
20006c54:	ea4f 3303 	mov.w	r3, r3, lsl #12
20006c58:	f04f 5580 	mov.w	r5, #268435456	; 0x10000000
20006c5c:	ea45 1313 	orr.w	r3, r5, r3, lsr #4
20006c60:	ea43 6312 	orr.w	r3, r3, r2, lsr #24
20006c64:	ea4f 2202 	mov.w	r2, r2, lsl #8
20006c68:	ea45 1511 	orr.w	r5, r5, r1, lsr #4
20006c6c:	ea45 6510 	orr.w	r5, r5, r0, lsr #24
20006c70:	ea4f 2600 	mov.w	r6, r0, lsl #8
20006c74:	f00e 4100 	and.w	r1, lr, #2147483648	; 0x80000000
20006c78:	429d      	cmp	r5, r3
20006c7a:	bf08      	it	eq
20006c7c:	4296      	cmpeq	r6, r2
20006c7e:	f144 04fd 	adc.w	r4, r4, #253	; 0xfd
20006c82:	f504 7440 	add.w	r4, r4, #768	; 0x300
20006c86:	d202      	bcs.n	20006c8e <__aeabi_ddiv+0x6e>
20006c88:	085b      	lsrs	r3, r3, #1
20006c8a:	ea4f 0232 	mov.w	r2, r2, rrx
20006c8e:	1ab6      	subs	r6, r6, r2
20006c90:	eb65 0503 	sbc.w	r5, r5, r3
20006c94:	085b      	lsrs	r3, r3, #1
20006c96:	ea4f 0232 	mov.w	r2, r2, rrx
20006c9a:	f44f 1080 	mov.w	r0, #1048576	; 0x100000
20006c9e:	f44f 2c00 	mov.w	ip, #524288	; 0x80000
20006ca2:	ebb6 0e02 	subs.w	lr, r6, r2
20006ca6:	eb75 0e03 	sbcs.w	lr, r5, r3
20006caa:	bf22      	ittt	cs
20006cac:	1ab6      	subcs	r6, r6, r2
20006cae:	4675      	movcs	r5, lr
20006cb0:	ea40 000c 	orrcs.w	r0, r0, ip
20006cb4:	085b      	lsrs	r3, r3, #1
20006cb6:	ea4f 0232 	mov.w	r2, r2, rrx
20006cba:	ebb6 0e02 	subs.w	lr, r6, r2
20006cbe:	eb75 0e03 	sbcs.w	lr, r5, r3
20006cc2:	bf22      	ittt	cs
20006cc4:	1ab6      	subcs	r6, r6, r2
20006cc6:	4675      	movcs	r5, lr
20006cc8:	ea40 005c 	orrcs.w	r0, r0, ip, lsr #1
20006ccc:	085b      	lsrs	r3, r3, #1
20006cce:	ea4f 0232 	mov.w	r2, r2, rrx
20006cd2:	ebb6 0e02 	subs.w	lr, r6, r2
20006cd6:	eb75 0e03 	sbcs.w	lr, r5, r3
20006cda:	bf22      	ittt	cs
20006cdc:	1ab6      	subcs	r6, r6, r2
20006cde:	4675      	movcs	r5, lr
20006ce0:	ea40 009c 	orrcs.w	r0, r0, ip, lsr #2
20006ce4:	085b      	lsrs	r3, r3, #1
20006ce6:	ea4f 0232 	mov.w	r2, r2, rrx
20006cea:	ebb6 0e02 	subs.w	lr, r6, r2
20006cee:	eb75 0e03 	sbcs.w	lr, r5, r3
20006cf2:	bf22      	ittt	cs
20006cf4:	1ab6      	subcs	r6, r6, r2
20006cf6:	4675      	movcs	r5, lr
20006cf8:	ea40 00dc 	orrcs.w	r0, r0, ip, lsr #3
20006cfc:	ea55 0e06 	orrs.w	lr, r5, r6
20006d00:	d018      	beq.n	20006d34 <__aeabi_ddiv+0x114>
20006d02:	ea4f 1505 	mov.w	r5, r5, lsl #4
20006d06:	ea45 7516 	orr.w	r5, r5, r6, lsr #28
20006d0a:	ea4f 1606 	mov.w	r6, r6, lsl #4
20006d0e:	ea4f 03c3 	mov.w	r3, r3, lsl #3
20006d12:	ea43 7352 	orr.w	r3, r3, r2, lsr #29
20006d16:	ea4f 02c2 	mov.w	r2, r2, lsl #3
20006d1a:	ea5f 1c1c 	movs.w	ip, ip, lsr #4
20006d1e:	d1c0      	bne.n	20006ca2 <__aeabi_ddiv+0x82>
20006d20:	f411 1f80 	tst.w	r1, #1048576	; 0x100000
20006d24:	d10b      	bne.n	20006d3e <__aeabi_ddiv+0x11e>
20006d26:	ea41 0100 	orr.w	r1, r1, r0
20006d2a:	f04f 0000 	mov.w	r0, #0
20006d2e:	f04f 4c00 	mov.w	ip, #2147483648	; 0x80000000
20006d32:	e7b6      	b.n	20006ca2 <__aeabi_ddiv+0x82>
20006d34:	f411 1f80 	tst.w	r1, #1048576	; 0x100000
20006d38:	bf04      	itt	eq
20006d3a:	4301      	orreq	r1, r0
20006d3c:	2000      	moveq	r0, #0
20006d3e:	f1b4 0cfd 	subs.w	ip, r4, #253	; 0xfd
20006d42:	bf88      	it	hi
20006d44:	f5bc 6fe0 	cmphi.w	ip, #1792	; 0x700
20006d48:	f63f aeaf 	bhi.w	20006aaa <__aeabi_dmul+0xde>
20006d4c:	ebb5 0c03 	subs.w	ip, r5, r3
20006d50:	bf04      	itt	eq
20006d52:	ebb6 0c02 	subseq.w	ip, r6, r2
20006d56:	ea5f 0c50 	movseq.w	ip, r0, lsr #1
20006d5a:	f150 0000 	adcs.w	r0, r0, #0
20006d5e:	eb41 5104 	adc.w	r1, r1, r4, lsl #20
20006d62:	bd70      	pop	{r4, r5, r6, pc}
20006d64:	f00e 4e00 	and.w	lr, lr, #2147483648	; 0x80000000
20006d68:	ea4e 3111 	orr.w	r1, lr, r1, lsr #12
20006d6c:	eb14 045c 	adds.w	r4, r4, ip, lsr #1
20006d70:	bfc2      	ittt	gt
20006d72:	ebd4 050c 	rsbsgt	r5, r4, ip
20006d76:	ea41 5104 	orrgt.w	r1, r1, r4, lsl #20
20006d7a:	bd70      	popgt	{r4, r5, r6, pc}
20006d7c:	f441 1180 	orr.w	r1, r1, #1048576	; 0x100000
20006d80:	f04f 0e00 	mov.w	lr, #0
20006d84:	3c01      	subs	r4, #1
20006d86:	e690      	b.n	20006aaa <__aeabi_dmul+0xde>
20006d88:	ea45 0e06 	orr.w	lr, r5, r6
20006d8c:	e68d      	b.n	20006aaa <__aeabi_dmul+0xde>
20006d8e:	ea0c 5513 	and.w	r5, ip, r3, lsr #20
20006d92:	ea94 0f0c 	teq	r4, ip
20006d96:	bf08      	it	eq
20006d98:	ea95 0f0c 	teqeq	r5, ip
20006d9c:	f43f af3b 	beq.w	20006c16 <__aeabi_dmul+0x24a>
20006da0:	ea94 0f0c 	teq	r4, ip
20006da4:	d10a      	bne.n	20006dbc <__aeabi_ddiv+0x19c>
20006da6:	ea50 3401 	orrs.w	r4, r0, r1, lsl #12
20006daa:	f47f af34 	bne.w	20006c16 <__aeabi_dmul+0x24a>
20006dae:	ea95 0f0c 	teq	r5, ip
20006db2:	f47f af25 	bne.w	20006c00 <__aeabi_dmul+0x234>
20006db6:	4610      	mov	r0, r2
20006db8:	4619      	mov	r1, r3
20006dba:	e72c      	b.n	20006c16 <__aeabi_dmul+0x24a>
20006dbc:	ea95 0f0c 	teq	r5, ip
20006dc0:	d106      	bne.n	20006dd0 <__aeabi_ddiv+0x1b0>
20006dc2:	ea52 3503 	orrs.w	r5, r2, r3, lsl #12
20006dc6:	f43f aefd 	beq.w	20006bc4 <__aeabi_dmul+0x1f8>
20006dca:	4610      	mov	r0, r2
20006dcc:	4619      	mov	r1, r3
20006dce:	e722      	b.n	20006c16 <__aeabi_dmul+0x24a>
20006dd0:	ea50 0641 	orrs.w	r6, r0, r1, lsl #1
20006dd4:	bf18      	it	ne
20006dd6:	ea52 0643 	orrsne.w	r6, r2, r3, lsl #1
20006dda:	f47f aec5 	bne.w	20006b68 <__aeabi_dmul+0x19c>
20006dde:	ea50 0441 	orrs.w	r4, r0, r1, lsl #1
20006de2:	f47f af0d 	bne.w	20006c00 <__aeabi_dmul+0x234>
20006de6:	ea52 0543 	orrs.w	r5, r2, r3, lsl #1
20006dea:	f47f aeeb 	bne.w	20006bc4 <__aeabi_dmul+0x1f8>
20006dee:	e712      	b.n	20006c16 <__aeabi_dmul+0x24a>

20006df0 <__gedf2>:
20006df0:	f04f 3cff 	mov.w	ip, #4294967295
20006df4:	e006      	b.n	20006e04 <__cmpdf2+0x4>
20006df6:	bf00      	nop

20006df8 <__ledf2>:
20006df8:	f04f 0c01 	mov.w	ip, #1
20006dfc:	e002      	b.n	20006e04 <__cmpdf2+0x4>
20006dfe:	bf00      	nop

20006e00 <__cmpdf2>:
20006e00:	f04f 0c01 	mov.w	ip, #1
20006e04:	f84d cd04 	str.w	ip, [sp, #-4]!
20006e08:	ea4f 0c41 	mov.w	ip, r1, lsl #1
20006e0c:	ea7f 5c6c 	mvns.w	ip, ip, asr #21
20006e10:	ea4f 0c43 	mov.w	ip, r3, lsl #1
20006e14:	bf18      	it	ne
20006e16:	ea7f 5c6c 	mvnsne.w	ip, ip, asr #21
20006e1a:	d01b      	beq.n	20006e54 <__cmpdf2+0x54>
20006e1c:	b001      	add	sp, #4
20006e1e:	ea50 0c41 	orrs.w	ip, r0, r1, lsl #1
20006e22:	bf0c      	ite	eq
20006e24:	ea52 0c43 	orrseq.w	ip, r2, r3, lsl #1
20006e28:	ea91 0f03 	teqne	r1, r3
20006e2c:	bf02      	ittt	eq
20006e2e:	ea90 0f02 	teqeq	r0, r2
20006e32:	2000      	moveq	r0, #0
20006e34:	4770      	bxeq	lr
20006e36:	f110 0f00 	cmn.w	r0, #0
20006e3a:	ea91 0f03 	teq	r1, r3
20006e3e:	bf58      	it	pl
20006e40:	4299      	cmppl	r1, r3
20006e42:	bf08      	it	eq
20006e44:	4290      	cmpeq	r0, r2
20006e46:	bf2c      	ite	cs
20006e48:	17d8      	asrcs	r0, r3, #31
20006e4a:	ea6f 70e3 	mvncc.w	r0, r3, asr #31
20006e4e:	f040 0001 	orr.w	r0, r0, #1
20006e52:	4770      	bx	lr
20006e54:	ea4f 0c41 	mov.w	ip, r1, lsl #1
20006e58:	ea7f 5c6c 	mvns.w	ip, ip, asr #21
20006e5c:	d102      	bne.n	20006e64 <__cmpdf2+0x64>
20006e5e:	ea50 3c01 	orrs.w	ip, r0, r1, lsl #12
20006e62:	d107      	bne.n	20006e74 <__cmpdf2+0x74>
20006e64:	ea4f 0c43 	mov.w	ip, r3, lsl #1
20006e68:	ea7f 5c6c 	mvns.w	ip, ip, asr #21
20006e6c:	d1d6      	bne.n	20006e1c <__cmpdf2+0x1c>
20006e6e:	ea52 3c03 	orrs.w	ip, r2, r3, lsl #12
20006e72:	d0d3      	beq.n	20006e1c <__cmpdf2+0x1c>
20006e74:	f85d 0b04 	ldr.w	r0, [sp], #4
20006e78:	4770      	bx	lr
20006e7a:	bf00      	nop

20006e7c <__aeabi_cdrcmple>:
20006e7c:	4684      	mov	ip, r0
20006e7e:	4610      	mov	r0, r2
20006e80:	4662      	mov	r2, ip
20006e82:	468c      	mov	ip, r1
20006e84:	4619      	mov	r1, r3
20006e86:	4663      	mov	r3, ip
20006e88:	e000      	b.n	20006e8c <__aeabi_cdcmpeq>
20006e8a:	bf00      	nop

20006e8c <__aeabi_cdcmpeq>:
20006e8c:	b501      	push	{r0, lr}
20006e8e:	f7ff ffb7 	bl	20006e00 <__cmpdf2>
20006e92:	2800      	cmp	r0, #0
20006e94:	bf48      	it	mi
20006e96:	f110 0f00 	cmnmi.w	r0, #0
20006e9a:	bd01      	pop	{r0, pc}

20006e9c <__aeabi_dcmpeq>:
20006e9c:	f84d ed08 	str.w	lr, [sp, #-8]!
20006ea0:	f7ff fff4 	bl	20006e8c <__aeabi_cdcmpeq>
20006ea4:	bf0c      	ite	eq
20006ea6:	2001      	moveq	r0, #1
20006ea8:	2000      	movne	r0, #0
20006eaa:	f85d fb08 	ldr.w	pc, [sp], #8
20006eae:	bf00      	nop

20006eb0 <__aeabi_dcmplt>:
20006eb0:	f84d ed08 	str.w	lr, [sp, #-8]!
20006eb4:	f7ff ffea 	bl	20006e8c <__aeabi_cdcmpeq>
20006eb8:	bf34      	ite	cc
20006eba:	2001      	movcc	r0, #1
20006ebc:	2000      	movcs	r0, #0
20006ebe:	f85d fb08 	ldr.w	pc, [sp], #8
20006ec2:	bf00      	nop

20006ec4 <__aeabi_dcmple>:
20006ec4:	f84d ed08 	str.w	lr, [sp, #-8]!
20006ec8:	f7ff ffe0 	bl	20006e8c <__aeabi_cdcmpeq>
20006ecc:	bf94      	ite	ls
20006ece:	2001      	movls	r0, #1
20006ed0:	2000      	movhi	r0, #0
20006ed2:	f85d fb08 	ldr.w	pc, [sp], #8
20006ed6:	bf00      	nop

20006ed8 <__aeabi_dcmpge>:
20006ed8:	f84d ed08 	str.w	lr, [sp, #-8]!
20006edc:	f7ff ffce 	bl	20006e7c <__aeabi_cdrcmple>
20006ee0:	bf94      	ite	ls
20006ee2:	2001      	movls	r0, #1
20006ee4:	2000      	movhi	r0, #0
20006ee6:	f85d fb08 	ldr.w	pc, [sp], #8
20006eea:	bf00      	nop

20006eec <__aeabi_dcmpgt>:
20006eec:	f84d ed08 	str.w	lr, [sp, #-8]!
20006ef0:	f7ff ffc4 	bl	20006e7c <__aeabi_cdrcmple>
20006ef4:	bf34      	ite	cc
20006ef6:	2001      	movcc	r0, #1
20006ef8:	2000      	movcs	r0, #0
20006efa:	f85d fb08 	ldr.w	pc, [sp], #8
20006efe:	bf00      	nop

20006f00 <__aeabi_d2iz>:
20006f00:	ea4f 0241 	mov.w	r2, r1, lsl #1
20006f04:	f512 1200 	adds.w	r2, r2, #2097152	; 0x200000
20006f08:	d215      	bcs.n	20006f36 <__aeabi_d2iz+0x36>
20006f0a:	d511      	bpl.n	20006f30 <__aeabi_d2iz+0x30>
20006f0c:	f46f 7378 	mvn.w	r3, #992	; 0x3e0
20006f10:	ebb3 5262 	subs.w	r2, r3, r2, asr #21
20006f14:	d912      	bls.n	20006f3c <__aeabi_d2iz+0x3c>
20006f16:	ea4f 23c1 	mov.w	r3, r1, lsl #11
20006f1a:	f043 4300 	orr.w	r3, r3, #2147483648	; 0x80000000
20006f1e:	ea43 5350 	orr.w	r3, r3, r0, lsr #21
20006f22:	f011 4f00 	tst.w	r1, #2147483648	; 0x80000000
20006f26:	fa23 f002 	lsr.w	r0, r3, r2
20006f2a:	bf18      	it	ne
20006f2c:	4240      	negne	r0, r0
20006f2e:	4770      	bx	lr
20006f30:	f04f 0000 	mov.w	r0, #0
20006f34:	4770      	bx	lr
20006f36:	ea50 3001 	orrs.w	r0, r0, r1, lsl #12
20006f3a:	d105      	bne.n	20006f48 <__aeabi_d2iz+0x48>
20006f3c:	f011 4000 	ands.w	r0, r1, #2147483648	; 0x80000000
20006f40:	bf08      	it	eq
20006f42:	f06f 4000 	mvneq.w	r0, #2147483648	; 0x80000000
20006f46:	4770      	bx	lr
20006f48:	f04f 0000 	mov.w	r0, #0
20006f4c:	4770      	bx	lr
20006f4e:	bf00      	nop

20006f50 <__aeabi_uldivmod>:
20006f50:	b94b      	cbnz	r3, 20006f66 <__aeabi_uldivmod+0x16>
20006f52:	b942      	cbnz	r2, 20006f66 <__aeabi_uldivmod+0x16>
20006f54:	2900      	cmp	r1, #0
20006f56:	bf08      	it	eq
20006f58:	2800      	cmpeq	r0, #0
20006f5a:	d002      	beq.n	20006f62 <__aeabi_uldivmod+0x12>
20006f5c:	f04f 31ff 	mov.w	r1, #4294967295
20006f60:	4608      	mov	r0, r1
20006f62:	f7ff bd31 	b.w	200069c8 <__aeabi_idiv0>
20006f66:	b082      	sub	sp, #8
20006f68:	46ec      	mov	ip, sp
20006f6a:	e92d 5000 	stmdb	sp!, {ip, lr}
20006f6e:	f000 f805 	bl	20006f7c <__gnu_uldivmod_helper>
20006f72:	f8dd e004 	ldr.w	lr, [sp, #4]
20006f76:	b002      	add	sp, #8
20006f78:	bc0c      	pop	{r2, r3}
20006f7a:	4770      	bx	lr

20006f7c <__gnu_uldivmod_helper>:
20006f7c:	b5f8      	push	{r3, r4, r5, r6, r7, lr}
20006f7e:	4614      	mov	r4, r2
20006f80:	461d      	mov	r5, r3
20006f82:	4606      	mov	r6, r0
20006f84:	460f      	mov	r7, r1
20006f86:	f000 f9d7 	bl	20007338 <__udivdi3>
20006f8a:	fb00 f505 	mul.w	r5, r0, r5
20006f8e:	fba0 2304 	umull	r2, r3, r0, r4
20006f92:	fb04 5401 	mla	r4, r4, r1, r5
20006f96:	18e3      	adds	r3, r4, r3
20006f98:	1ab6      	subs	r6, r6, r2
20006f9a:	eb67 0703 	sbc.w	r7, r7, r3
20006f9e:	9b06      	ldr	r3, [sp, #24]
20006fa0:	e9c3 6700 	strd	r6, r7, [r3]
20006fa4:	bdf8      	pop	{r3, r4, r5, r6, r7, pc}
20006fa6:	bf00      	nop

20006fa8 <__gnu_ldivmod_helper>:
20006fa8:	b5f8      	push	{r3, r4, r5, r6, r7, lr}
20006faa:	4614      	mov	r4, r2
20006fac:	461d      	mov	r5, r3
20006fae:	4606      	mov	r6, r0
20006fb0:	460f      	mov	r7, r1
20006fb2:	f000 f80f 	bl	20006fd4 <__divdi3>
20006fb6:	fb00 f505 	mul.w	r5, r0, r5
20006fba:	fba0 2304 	umull	r2, r3, r0, r4
20006fbe:	fb04 5401 	mla	r4, r4, r1, r5
20006fc2:	18e3      	adds	r3, r4, r3
20006fc4:	1ab6      	subs	r6, r6, r2
20006fc6:	eb67 0703 	sbc.w	r7, r7, r3
20006fca:	9b06      	ldr	r3, [sp, #24]
20006fcc:	e9c3 6700 	strd	r6, r7, [r3]
20006fd0:	bdf8      	pop	{r3, r4, r5, r6, r7, pc}
20006fd2:	bf00      	nop

20006fd4 <__divdi3>:
20006fd4:	2900      	cmp	r1, #0
20006fd6:	e92d 4ff0 	stmdb	sp!, {r4, r5, r6, r7, r8, r9, sl, fp, lr}
20006fda:	b085      	sub	sp, #20
20006fdc:	f2c0 80c8 	blt.w	20007170 <__divdi3+0x19c>
20006fe0:	2600      	movs	r6, #0
20006fe2:	2b00      	cmp	r3, #0
20006fe4:	f2c0 80bf 	blt.w	20007166 <__divdi3+0x192>
20006fe8:	4689      	mov	r9, r1
20006fea:	4614      	mov	r4, r2
20006fec:	4605      	mov	r5, r0
20006fee:	469b      	mov	fp, r3
20006ff0:	2b00      	cmp	r3, #0
20006ff2:	d14a      	bne.n	2000708a <__divdi3+0xb6>
20006ff4:	428a      	cmp	r2, r1
20006ff6:	d957      	bls.n	200070a8 <__divdi3+0xd4>
20006ff8:	fab2 f382 	clz	r3, r2
20006ffc:	b153      	cbz	r3, 20007014 <__divdi3+0x40>
20006ffe:	f1c3 0020 	rsb	r0, r3, #32
20007002:	fa01 f903 	lsl.w	r9, r1, r3
20007006:	fa25 f800 	lsr.w	r8, r5, r0
2000700a:	fa12 f403 	lsls.w	r4, r2, r3
2000700e:	409d      	lsls	r5, r3
20007010:	ea48 0909 	orr.w	r9, r8, r9
20007014:	0c27      	lsrs	r7, r4, #16
20007016:	4648      	mov	r0, r9
20007018:	4639      	mov	r1, r7
2000701a:	fa1f fb84 	uxth.w	fp, r4
2000701e:	f7ff fb97 	bl	20006750 <__aeabi_uidiv>
20007022:	4639      	mov	r1, r7
20007024:	4682      	mov	sl, r0
20007026:	4648      	mov	r0, r9
20007028:	f7ff fcc0 	bl	200069ac <__aeabi_uidivmod>
2000702c:	0c2a      	lsrs	r2, r5, #16
2000702e:	fb0b f30a 	mul.w	r3, fp, sl
20007032:	ea42 4901 	orr.w	r9, r2, r1, lsl #16
20007036:	454b      	cmp	r3, r9
20007038:	d909      	bls.n	2000704e <__divdi3+0x7a>
2000703a:	eb19 0904 	adds.w	r9, r9, r4
2000703e:	f10a 3aff 	add.w	sl, sl, #4294967295
20007042:	d204      	bcs.n	2000704e <__divdi3+0x7a>
20007044:	454b      	cmp	r3, r9
20007046:	bf84      	itt	hi
20007048:	f10a 3aff 	addhi.w	sl, sl, #4294967295
2000704c:	44a1      	addhi	r9, r4
2000704e:	ebc3 0909 	rsb	r9, r3, r9
20007052:	4639      	mov	r1, r7
20007054:	4648      	mov	r0, r9
20007056:	b2ad      	uxth	r5, r5
20007058:	f7ff fb7a 	bl	20006750 <__aeabi_uidiv>
2000705c:	4639      	mov	r1, r7
2000705e:	4680      	mov	r8, r0
20007060:	4648      	mov	r0, r9
20007062:	f7ff fca3 	bl	200069ac <__aeabi_uidivmod>
20007066:	fb0b fb08 	mul.w	fp, fp, r8
2000706a:	ea45 4501 	orr.w	r5, r5, r1, lsl #16
2000706e:	45ab      	cmp	fp, r5
20007070:	d907      	bls.n	20007082 <__divdi3+0xae>
20007072:	192d      	adds	r5, r5, r4
20007074:	f108 38ff 	add.w	r8, r8, #4294967295
20007078:	d203      	bcs.n	20007082 <__divdi3+0xae>
2000707a:	45ab      	cmp	fp, r5
2000707c:	bf88      	it	hi
2000707e:	f108 38ff 	addhi.w	r8, r8, #4294967295
20007082:	ea48 480a 	orr.w	r8, r8, sl, lsl #16
20007086:	2700      	movs	r7, #0
20007088:	e003      	b.n	20007092 <__divdi3+0xbe>
2000708a:	428b      	cmp	r3, r1
2000708c:	d957      	bls.n	2000713e <__divdi3+0x16a>
2000708e:	2700      	movs	r7, #0
20007090:	46b8      	mov	r8, r7
20007092:	4642      	mov	r2, r8
20007094:	463b      	mov	r3, r7
20007096:	b116      	cbz	r6, 2000709e <__divdi3+0xca>
20007098:	4252      	negs	r2, r2
2000709a:	eb63 0343 	sbc.w	r3, r3, r3, lsl #1
2000709e:	4619      	mov	r1, r3
200070a0:	4610      	mov	r0, r2
200070a2:	b005      	add	sp, #20
200070a4:	e8bd 8ff0 	ldmia.w	sp!, {r4, r5, r6, r7, r8, r9, sl, fp, pc}
200070a8:	b922      	cbnz	r2, 200070b4 <__divdi3+0xe0>
200070aa:	4611      	mov	r1, r2
200070ac:	2001      	movs	r0, #1
200070ae:	f7ff fb4f 	bl	20006750 <__aeabi_uidiv>
200070b2:	4604      	mov	r4, r0
200070b4:	fab4 f884 	clz	r8, r4
200070b8:	f1b8 0f00 	cmp.w	r8, #0
200070bc:	d15e      	bne.n	2000717c <__divdi3+0x1a8>
200070be:	ebc4 0809 	rsb	r8, r4, r9
200070c2:	0c27      	lsrs	r7, r4, #16
200070c4:	fa1f f984 	uxth.w	r9, r4
200070c8:	2101      	movs	r1, #1
200070ca:	9102      	str	r1, [sp, #8]
200070cc:	4639      	mov	r1, r7
200070ce:	4640      	mov	r0, r8
200070d0:	f7ff fb3e 	bl	20006750 <__aeabi_uidiv>
200070d4:	4639      	mov	r1, r7
200070d6:	4682      	mov	sl, r0
200070d8:	4640      	mov	r0, r8
200070da:	f7ff fc67 	bl	200069ac <__aeabi_uidivmod>
200070de:	ea4f 4815 	mov.w	r8, r5, lsr #16
200070e2:	fb09 f30a 	mul.w	r3, r9, sl
200070e6:	ea48 4b01 	orr.w	fp, r8, r1, lsl #16
200070ea:	455b      	cmp	r3, fp
200070ec:	d909      	bls.n	20007102 <__divdi3+0x12e>
200070ee:	eb1b 0b04 	adds.w	fp, fp, r4
200070f2:	f10a 3aff 	add.w	sl, sl, #4294967295
200070f6:	d204      	bcs.n	20007102 <__divdi3+0x12e>
200070f8:	455b      	cmp	r3, fp
200070fa:	bf84      	itt	hi
200070fc:	f10a 3aff 	addhi.w	sl, sl, #4294967295
20007100:	44a3      	addhi	fp, r4
20007102:	ebc3 0b0b 	rsb	fp, r3, fp
20007106:	4639      	mov	r1, r7
20007108:	4658      	mov	r0, fp
2000710a:	b2ad      	uxth	r5, r5
2000710c:	f7ff fb20 	bl	20006750 <__aeabi_uidiv>
20007110:	4639      	mov	r1, r7
20007112:	4680      	mov	r8, r0
20007114:	4658      	mov	r0, fp
20007116:	f7ff fc49 	bl	200069ac <__aeabi_uidivmod>
2000711a:	fb09 f908 	mul.w	r9, r9, r8
2000711e:	ea45 4501 	orr.w	r5, r5, r1, lsl #16
20007122:	45a9      	cmp	r9, r5
20007124:	d907      	bls.n	20007136 <__divdi3+0x162>
20007126:	192d      	adds	r5, r5, r4
20007128:	f108 38ff 	add.w	r8, r8, #4294967295
2000712c:	d203      	bcs.n	20007136 <__divdi3+0x162>
2000712e:	45a9      	cmp	r9, r5
20007130:	bf88      	it	hi
20007132:	f108 38ff 	addhi.w	r8, r8, #4294967295
20007136:	ea48 480a 	orr.w	r8, r8, sl, lsl #16
2000713a:	9f02      	ldr	r7, [sp, #8]
2000713c:	e7a9      	b.n	20007092 <__divdi3+0xbe>
2000713e:	fab3 f783 	clz	r7, r3
20007142:	2f00      	cmp	r7, #0
20007144:	d168      	bne.n	20007218 <__divdi3+0x244>
20007146:	428b      	cmp	r3, r1
20007148:	bf2c      	ite	cs
2000714a:	f04f 0900 	movcs.w	r9, #0
2000714e:	f04f 0901 	movcc.w	r9, #1
20007152:	4282      	cmp	r2, r0
20007154:	bf8c      	ite	hi
20007156:	464c      	movhi	r4, r9
20007158:	f049 0401 	orrls.w	r4, r9, #1
2000715c:	2c00      	cmp	r4, #0
2000715e:	d096      	beq.n	2000708e <__divdi3+0xba>
20007160:	f04f 0801 	mov.w	r8, #1
20007164:	e795      	b.n	20007092 <__divdi3+0xbe>
20007166:	4252      	negs	r2, r2
20007168:	eb63 0343 	sbc.w	r3, r3, r3, lsl #1
2000716c:	43f6      	mvns	r6, r6
2000716e:	e73b      	b.n	20006fe8 <__divdi3+0x14>
20007170:	4240      	negs	r0, r0
20007172:	eb61 0141 	sbc.w	r1, r1, r1, lsl #1
20007176:	f04f 36ff 	mov.w	r6, #4294967295
2000717a:	e732      	b.n	20006fe2 <__divdi3+0xe>
2000717c:	fa04 f408 	lsl.w	r4, r4, r8
20007180:	f1c8 0720 	rsb	r7, r8, #32
20007184:	fa35 f307 	lsrs.w	r3, r5, r7
20007188:	fa29 fa07 	lsr.w	sl, r9, r7
2000718c:	0c27      	lsrs	r7, r4, #16
2000718e:	fa09 fb08 	lsl.w	fp, r9, r8
20007192:	4639      	mov	r1, r7
20007194:	4650      	mov	r0, sl
20007196:	ea43 020b 	orr.w	r2, r3, fp
2000719a:	9202      	str	r2, [sp, #8]
2000719c:	f7ff fad8 	bl	20006750 <__aeabi_uidiv>
200071a0:	4639      	mov	r1, r7
200071a2:	fa1f f984 	uxth.w	r9, r4
200071a6:	4683      	mov	fp, r0
200071a8:	4650      	mov	r0, sl
200071aa:	f7ff fbff 	bl	200069ac <__aeabi_uidivmod>
200071ae:	9802      	ldr	r0, [sp, #8]
200071b0:	fb09 f20b 	mul.w	r2, r9, fp
200071b4:	0c03      	lsrs	r3, r0, #16
200071b6:	ea43 4301 	orr.w	r3, r3, r1, lsl #16
200071ba:	429a      	cmp	r2, r3
200071bc:	d904      	bls.n	200071c8 <__divdi3+0x1f4>
200071be:	191b      	adds	r3, r3, r4
200071c0:	f10b 3bff 	add.w	fp, fp, #4294967295
200071c4:	f0c0 80b1 	bcc.w	2000732a <__divdi3+0x356>
200071c8:	1a9b      	subs	r3, r3, r2
200071ca:	4639      	mov	r1, r7
200071cc:	4618      	mov	r0, r3
200071ce:	9301      	str	r3, [sp, #4]
200071d0:	f7ff fabe 	bl	20006750 <__aeabi_uidiv>
200071d4:	9901      	ldr	r1, [sp, #4]
200071d6:	4682      	mov	sl, r0
200071d8:	4608      	mov	r0, r1
200071da:	4639      	mov	r1, r7
200071dc:	f7ff fbe6 	bl	200069ac <__aeabi_uidivmod>
200071e0:	f8dd c008 	ldr.w	ip, [sp, #8]
200071e4:	fb09 f30a 	mul.w	r3, r9, sl
200071e8:	fa1f f08c 	uxth.w	r0, ip
200071ec:	ea40 4201 	orr.w	r2, r0, r1, lsl #16
200071f0:	4293      	cmp	r3, r2
200071f2:	d908      	bls.n	20007206 <__divdi3+0x232>
200071f4:	1912      	adds	r2, r2, r4
200071f6:	f10a 3aff 	add.w	sl, sl, #4294967295
200071fa:	d204      	bcs.n	20007206 <__divdi3+0x232>
200071fc:	4293      	cmp	r3, r2
200071fe:	bf84      	itt	hi
20007200:	f10a 3aff 	addhi.w	sl, sl, #4294967295
20007204:	1912      	addhi	r2, r2, r4
20007206:	fa05 f508 	lsl.w	r5, r5, r8
2000720a:	ea4a 4e0b 	orr.w	lr, sl, fp, lsl #16
2000720e:	ebc3 0802 	rsb	r8, r3, r2
20007212:	f8cd e008 	str.w	lr, [sp, #8]
20007216:	e759      	b.n	200070cc <__divdi3+0xf8>
20007218:	f1c7 0020 	rsb	r0, r7, #32
2000721c:	fa03 fa07 	lsl.w	sl, r3, r7
20007220:	40c2      	lsrs	r2, r0
20007222:	fa35 f300 	lsrs.w	r3, r5, r0
20007226:	ea42 0b0a 	orr.w	fp, r2, sl
2000722a:	fa21 f800 	lsr.w	r8, r1, r0
2000722e:	fa01 f907 	lsl.w	r9, r1, r7
20007232:	4640      	mov	r0, r8
20007234:	ea4f 4a1b 	mov.w	sl, fp, lsr #16
20007238:	ea43 0109 	orr.w	r1, r3, r9
2000723c:	9102      	str	r1, [sp, #8]
2000723e:	4651      	mov	r1, sl
20007240:	fa1f f28b 	uxth.w	r2, fp
20007244:	9203      	str	r2, [sp, #12]
20007246:	f7ff fa83 	bl	20006750 <__aeabi_uidiv>
2000724a:	4651      	mov	r1, sl
2000724c:	4681      	mov	r9, r0
2000724e:	4640      	mov	r0, r8
20007250:	f7ff fbac 	bl	200069ac <__aeabi_uidivmod>
20007254:	9b03      	ldr	r3, [sp, #12]
20007256:	f8dd c008 	ldr.w	ip, [sp, #8]
2000725a:	fb03 f209 	mul.w	r2, r3, r9
2000725e:	ea4f 401c 	mov.w	r0, ip, lsr #16
20007262:	fa14 f307 	lsls.w	r3, r4, r7
20007266:	ea40 4401 	orr.w	r4, r0, r1, lsl #16
2000726a:	42a2      	cmp	r2, r4
2000726c:	d904      	bls.n	20007278 <__divdi3+0x2a4>
2000726e:	eb14 040b 	adds.w	r4, r4, fp
20007272:	f109 39ff 	add.w	r9, r9, #4294967295
20007276:	d352      	bcc.n	2000731e <__divdi3+0x34a>
20007278:	1aa4      	subs	r4, r4, r2
2000727a:	4651      	mov	r1, sl
2000727c:	4620      	mov	r0, r4
2000727e:	9301      	str	r3, [sp, #4]
20007280:	f7ff fa66 	bl	20006750 <__aeabi_uidiv>
20007284:	4651      	mov	r1, sl
20007286:	4680      	mov	r8, r0
20007288:	4620      	mov	r0, r4
2000728a:	f7ff fb8f 	bl	200069ac <__aeabi_uidivmod>
2000728e:	9803      	ldr	r0, [sp, #12]
20007290:	f8dd c008 	ldr.w	ip, [sp, #8]
20007294:	fb00 f208 	mul.w	r2, r0, r8
20007298:	fa1f f38c 	uxth.w	r3, ip
2000729c:	ea43 4001 	orr.w	r0, r3, r1, lsl #16
200072a0:	9b01      	ldr	r3, [sp, #4]
200072a2:	4282      	cmp	r2, r0
200072a4:	d904      	bls.n	200072b0 <__divdi3+0x2dc>
200072a6:	eb10 000b 	adds.w	r0, r0, fp
200072aa:	f108 38ff 	add.w	r8, r8, #4294967295
200072ae:	d330      	bcc.n	20007312 <__divdi3+0x33e>
200072b0:	ea48 4809 	orr.w	r8, r8, r9, lsl #16
200072b4:	fa1f fc83 	uxth.w	ip, r3
200072b8:	0c1b      	lsrs	r3, r3, #16
200072ba:	1a80      	subs	r0, r0, r2
200072bc:	fa1f fe88 	uxth.w	lr, r8
200072c0:	ea4f 4a18 	mov.w	sl, r8, lsr #16
200072c4:	fb0c f90e 	mul.w	r9, ip, lr
200072c8:	fb0c fc0a 	mul.w	ip, ip, sl
200072cc:	fb03 c10e 	mla	r1, r3, lr, ip
200072d0:	fb03 f20a 	mul.w	r2, r3, sl
200072d4:	eb01 4119 	add.w	r1, r1, r9, lsr #16
200072d8:	458c      	cmp	ip, r1
200072da:	bf88      	it	hi
200072dc:	f502 3280 	addhi.w	r2, r2, #65536	; 0x10000
200072e0:	eb02 4e11 	add.w	lr, r2, r1, lsr #16
200072e4:	4570      	cmp	r0, lr
200072e6:	d310      	bcc.n	2000730a <__divdi3+0x336>
200072e8:	fa1f f989 	uxth.w	r9, r9
200072ec:	fa05 f707 	lsl.w	r7, r5, r7
200072f0:	eb09 4001 	add.w	r0, r9, r1, lsl #16
200072f4:	bf14      	ite	ne
200072f6:	2200      	movne	r2, #0
200072f8:	2201      	moveq	r2, #1
200072fa:	4287      	cmp	r7, r0
200072fc:	bf2c      	ite	cs
200072fe:	2700      	movcs	r7, #0
20007300:	f002 0701 	andcc.w	r7, r2, #1
20007304:	2f00      	cmp	r7, #0
20007306:	f43f aec4 	beq.w	20007092 <__divdi3+0xbe>
2000730a:	f108 38ff 	add.w	r8, r8, #4294967295
2000730e:	2700      	movs	r7, #0
20007310:	e6bf      	b.n	20007092 <__divdi3+0xbe>
20007312:	4282      	cmp	r2, r0
20007314:	bf84      	itt	hi
20007316:	4458      	addhi	r0, fp
20007318:	f108 38ff 	addhi.w	r8, r8, #4294967295
2000731c:	e7c8      	b.n	200072b0 <__divdi3+0x2dc>
2000731e:	42a2      	cmp	r2, r4
20007320:	bf84      	itt	hi
20007322:	f109 39ff 	addhi.w	r9, r9, #4294967295
20007326:	445c      	addhi	r4, fp
20007328:	e7a6      	b.n	20007278 <__divdi3+0x2a4>
2000732a:	429a      	cmp	r2, r3
2000732c:	bf84      	itt	hi
2000732e:	f10b 3bff 	addhi.w	fp, fp, #4294967295
20007332:	191b      	addhi	r3, r3, r4
20007334:	e748      	b.n	200071c8 <__divdi3+0x1f4>
20007336:	bf00      	nop

20007338 <__udivdi3>:
20007338:	e92d 4ff0 	stmdb	sp!, {r4, r5, r6, r7, r8, r9, sl, fp, lr}
2000733c:	460c      	mov	r4, r1
2000733e:	b083      	sub	sp, #12
20007340:	4680      	mov	r8, r0
20007342:	4616      	mov	r6, r2
20007344:	4689      	mov	r9, r1
20007346:	461f      	mov	r7, r3
20007348:	4615      	mov	r5, r2
2000734a:	468a      	mov	sl, r1
2000734c:	2b00      	cmp	r3, #0
2000734e:	d14b      	bne.n	200073e8 <__udivdi3+0xb0>
20007350:	428a      	cmp	r2, r1
20007352:	d95c      	bls.n	2000740e <__udivdi3+0xd6>
20007354:	fab2 f382 	clz	r3, r2
20007358:	b15b      	cbz	r3, 20007372 <__udivdi3+0x3a>
2000735a:	f1c3 0020 	rsb	r0, r3, #32
2000735e:	fa01 fa03 	lsl.w	sl, r1, r3
20007362:	fa28 f200 	lsr.w	r2, r8, r0
20007366:	fa16 f503 	lsls.w	r5, r6, r3
2000736a:	fa08 f803 	lsl.w	r8, r8, r3
2000736e:	ea42 0a0a 	orr.w	sl, r2, sl
20007372:	0c2e      	lsrs	r6, r5, #16
20007374:	4650      	mov	r0, sl
20007376:	4631      	mov	r1, r6
20007378:	b2af      	uxth	r7, r5
2000737a:	f7ff f9e9 	bl	20006750 <__aeabi_uidiv>
2000737e:	4631      	mov	r1, r6
20007380:	ea4f 4418 	mov.w	r4, r8, lsr #16
20007384:	4681      	mov	r9, r0
20007386:	4650      	mov	r0, sl
20007388:	f7ff fb10 	bl	200069ac <__aeabi_uidivmod>
2000738c:	fb07 f309 	mul.w	r3, r7, r9
20007390:	ea44 4a01 	orr.w	sl, r4, r1, lsl #16
20007394:	4553      	cmp	r3, sl
20007396:	d909      	bls.n	200073ac <__udivdi3+0x74>
20007398:	eb1a 0a05 	adds.w	sl, sl, r5
2000739c:	f109 39ff 	add.w	r9, r9, #4294967295
200073a0:	d204      	bcs.n	200073ac <__udivdi3+0x74>
200073a2:	4553      	cmp	r3, sl
200073a4:	bf84      	itt	hi
200073a6:	f109 39ff 	addhi.w	r9, r9, #4294967295
200073aa:	44aa      	addhi	sl, r5
200073ac:	ebc3 0a0a 	rsb	sl, r3, sl
200073b0:	4631      	mov	r1, r6
200073b2:	4650      	mov	r0, sl
200073b4:	fa1f f888 	uxth.w	r8, r8
200073b8:	f7ff f9ca 	bl	20006750 <__aeabi_uidiv>
200073bc:	4631      	mov	r1, r6
200073be:	4604      	mov	r4, r0
200073c0:	4650      	mov	r0, sl
200073c2:	f7ff faf3 	bl	200069ac <__aeabi_uidivmod>
200073c6:	fb07 f704 	mul.w	r7, r7, r4
200073ca:	ea48 4801 	orr.w	r8, r8, r1, lsl #16
200073ce:	4547      	cmp	r7, r8
200073d0:	d906      	bls.n	200073e0 <__udivdi3+0xa8>
200073d2:	3c01      	subs	r4, #1
200073d4:	eb18 0805 	adds.w	r8, r8, r5
200073d8:	d202      	bcs.n	200073e0 <__udivdi3+0xa8>
200073da:	4547      	cmp	r7, r8
200073dc:	bf88      	it	hi
200073de:	3c01      	subhi	r4, #1
200073e0:	ea44 4409 	orr.w	r4, r4, r9, lsl #16
200073e4:	2600      	movs	r6, #0
200073e6:	e05c      	b.n	200074a2 <__udivdi3+0x16a>
200073e8:	428b      	cmp	r3, r1
200073ea:	d858      	bhi.n	2000749e <__udivdi3+0x166>
200073ec:	fab3 f683 	clz	r6, r3
200073f0:	2e00      	cmp	r6, #0
200073f2:	d15b      	bne.n	200074ac <__udivdi3+0x174>
200073f4:	428b      	cmp	r3, r1
200073f6:	bf2c      	ite	cs
200073f8:	2200      	movcs	r2, #0
200073fa:	2201      	movcc	r2, #1
200073fc:	4285      	cmp	r5, r0
200073fe:	bf8c      	ite	hi
20007400:	4615      	movhi	r5, r2
20007402:	f042 0501 	orrls.w	r5, r2, #1
20007406:	2d00      	cmp	r5, #0
20007408:	d049      	beq.n	2000749e <__udivdi3+0x166>
2000740a:	2401      	movs	r4, #1
2000740c:	e049      	b.n	200074a2 <__udivdi3+0x16a>
2000740e:	b922      	cbnz	r2, 2000741a <__udivdi3+0xe2>
20007410:	4611      	mov	r1, r2
20007412:	2001      	movs	r0, #1
20007414:	f7ff f99c 	bl	20006750 <__aeabi_uidiv>
20007418:	4605      	mov	r5, r0
2000741a:	fab5 f685 	clz	r6, r5
2000741e:	2e00      	cmp	r6, #0
20007420:	f040 80ba 	bne.w	20007598 <__udivdi3+0x260>
20007424:	1b64      	subs	r4, r4, r5
20007426:	0c2f      	lsrs	r7, r5, #16
20007428:	fa1f fa85 	uxth.w	sl, r5
2000742c:	2601      	movs	r6, #1
2000742e:	4639      	mov	r1, r7
20007430:	4620      	mov	r0, r4
20007432:	f7ff f98d 	bl	20006750 <__aeabi_uidiv>
20007436:	4639      	mov	r1, r7
20007438:	ea4f 4b18 	mov.w	fp, r8, lsr #16
2000743c:	4681      	mov	r9, r0
2000743e:	4620      	mov	r0, r4
20007440:	f7ff fab4 	bl	200069ac <__aeabi_uidivmod>
20007444:	fb0a f309 	mul.w	r3, sl, r9
20007448:	ea4b 4b01 	orr.w	fp, fp, r1, lsl #16
2000744c:	455b      	cmp	r3, fp
2000744e:	d909      	bls.n	20007464 <__udivdi3+0x12c>
20007450:	eb1b 0b05 	adds.w	fp, fp, r5
20007454:	f109 39ff 	add.w	r9, r9, #4294967295
20007458:	d204      	bcs.n	20007464 <__udivdi3+0x12c>
2000745a:	455b      	cmp	r3, fp
2000745c:	bf84      	itt	hi
2000745e:	f109 39ff 	addhi.w	r9, r9, #4294967295
20007462:	44ab      	addhi	fp, r5
20007464:	ebc3 0b0b 	rsb	fp, r3, fp
20007468:	4639      	mov	r1, r7
2000746a:	4658      	mov	r0, fp
2000746c:	fa1f f888 	uxth.w	r8, r8
20007470:	f7ff f96e 	bl	20006750 <__aeabi_uidiv>
20007474:	4639      	mov	r1, r7
20007476:	4604      	mov	r4, r0
20007478:	4658      	mov	r0, fp
2000747a:	f7ff fa97 	bl	200069ac <__aeabi_uidivmod>
2000747e:	fb0a fa04 	mul.w	sl, sl, r4
20007482:	ea48 4801 	orr.w	r8, r8, r1, lsl #16
20007486:	45c2      	cmp	sl, r8
20007488:	d906      	bls.n	20007498 <__udivdi3+0x160>
2000748a:	3c01      	subs	r4, #1
2000748c:	eb18 0805 	adds.w	r8, r8, r5
20007490:	d202      	bcs.n	20007498 <__udivdi3+0x160>
20007492:	45c2      	cmp	sl, r8
20007494:	bf88      	it	hi
20007496:	3c01      	subhi	r4, #1
20007498:	ea44 4409 	orr.w	r4, r4, r9, lsl #16
2000749c:	e001      	b.n	200074a2 <__udivdi3+0x16a>
2000749e:	2600      	movs	r6, #0
200074a0:	4634      	mov	r4, r6
200074a2:	4631      	mov	r1, r6
200074a4:	4620      	mov	r0, r4
200074a6:	b003      	add	sp, #12
200074a8:	e8bd 8ff0 	ldmia.w	sp!, {r4, r5, r6, r7, r8, r9, sl, fp, pc}
200074ac:	f1c6 0020 	rsb	r0, r6, #32
200074b0:	40b3      	lsls	r3, r6
200074b2:	fa32 f700 	lsrs.w	r7, r2, r0
200074b6:	fa21 fb00 	lsr.w	fp, r1, r0
200074ba:	431f      	orrs	r7, r3
200074bc:	fa14 f206 	lsls.w	r2, r4, r6
200074c0:	fa28 f100 	lsr.w	r1, r8, r0
200074c4:	4658      	mov	r0, fp
200074c6:	ea4f 4a17 	mov.w	sl, r7, lsr #16
200074ca:	4311      	orrs	r1, r2
200074cc:	9100      	str	r1, [sp, #0]
200074ce:	4651      	mov	r1, sl
200074d0:	b2bb      	uxth	r3, r7
200074d2:	9301      	str	r3, [sp, #4]
200074d4:	f7ff f93c 	bl	20006750 <__aeabi_uidiv>
200074d8:	4651      	mov	r1, sl
200074da:	40b5      	lsls	r5, r6
200074dc:	4681      	mov	r9, r0
200074de:	4658      	mov	r0, fp
200074e0:	f7ff fa64 	bl	200069ac <__aeabi_uidivmod>
200074e4:	9c01      	ldr	r4, [sp, #4]
200074e6:	9800      	ldr	r0, [sp, #0]
200074e8:	fb04 f309 	mul.w	r3, r4, r9
200074ec:	ea4f 4c10 	mov.w	ip, r0, lsr #16
200074f0:	ea4c 4b01 	orr.w	fp, ip, r1, lsl #16
200074f4:	455b      	cmp	r3, fp
200074f6:	d905      	bls.n	20007504 <__udivdi3+0x1cc>
200074f8:	eb1b 0b07 	adds.w	fp, fp, r7
200074fc:	f109 39ff 	add.w	r9, r9, #4294967295
20007500:	f0c0 808e 	bcc.w	20007620 <__udivdi3+0x2e8>
20007504:	ebc3 0b0b 	rsb	fp, r3, fp
20007508:	4651      	mov	r1, sl
2000750a:	4658      	mov	r0, fp
2000750c:	f7ff f920 	bl	20006750 <__aeabi_uidiv>
20007510:	4651      	mov	r1, sl
20007512:	4604      	mov	r4, r0
20007514:	4658      	mov	r0, fp
20007516:	f7ff fa49 	bl	200069ac <__aeabi_uidivmod>
2000751a:	9801      	ldr	r0, [sp, #4]
2000751c:	9a00      	ldr	r2, [sp, #0]
2000751e:	fb00 f304 	mul.w	r3, r0, r4
20007522:	fa1f fc82 	uxth.w	ip, r2
20007526:	ea4c 4201 	orr.w	r2, ip, r1, lsl #16
2000752a:	4293      	cmp	r3, r2
2000752c:	d906      	bls.n	2000753c <__udivdi3+0x204>
2000752e:	3c01      	subs	r4, #1
20007530:	19d2      	adds	r2, r2, r7
20007532:	d203      	bcs.n	2000753c <__udivdi3+0x204>
20007534:	4293      	cmp	r3, r2
20007536:	d901      	bls.n	2000753c <__udivdi3+0x204>
20007538:	19d2      	adds	r2, r2, r7
2000753a:	3c01      	subs	r4, #1
2000753c:	ea44 4409 	orr.w	r4, r4, r9, lsl #16
20007540:	b2a8      	uxth	r0, r5
20007542:	1ad2      	subs	r2, r2, r3
20007544:	0c2d      	lsrs	r5, r5, #16
20007546:	fa1f fc84 	uxth.w	ip, r4
2000754a:	0c23      	lsrs	r3, r4, #16
2000754c:	fb00 f70c 	mul.w	r7, r0, ip
20007550:	fb00 fe03 	mul.w	lr, r0, r3
20007554:	fb05 e10c 	mla	r1, r5, ip, lr
20007558:	fb05 f503 	mul.w	r5, r5, r3
2000755c:	eb01 4117 	add.w	r1, r1, r7, lsr #16
20007560:	458e      	cmp	lr, r1
20007562:	bf88      	it	hi
20007564:	f505 3580 	addhi.w	r5, r5, #65536	; 0x10000
20007568:	eb05 4511 	add.w	r5, r5, r1, lsr #16
2000756c:	42aa      	cmp	r2, r5
2000756e:	d310      	bcc.n	20007592 <__udivdi3+0x25a>
20007570:	b2bf      	uxth	r7, r7
20007572:	fa08 f606 	lsl.w	r6, r8, r6
20007576:	eb07 4201 	add.w	r2, r7, r1, lsl #16
2000757a:	bf14      	ite	ne
2000757c:	f04f 0e00 	movne.w	lr, #0
20007580:	f04f 0e01 	moveq.w	lr, #1
20007584:	4296      	cmp	r6, r2
20007586:	bf2c      	ite	cs
20007588:	2600      	movcs	r6, #0
2000758a:	f00e 0601 	andcc.w	r6, lr, #1
2000758e:	2e00      	cmp	r6, #0
20007590:	d087      	beq.n	200074a2 <__udivdi3+0x16a>
20007592:	3c01      	subs	r4, #1
20007594:	2600      	movs	r6, #0
20007596:	e784      	b.n	200074a2 <__udivdi3+0x16a>
20007598:	40b5      	lsls	r5, r6
2000759a:	f1c6 0120 	rsb	r1, r6, #32
2000759e:	fa24 f901 	lsr.w	r9, r4, r1
200075a2:	fa28 f201 	lsr.w	r2, r8, r1
200075a6:	0c2f      	lsrs	r7, r5, #16
200075a8:	40b4      	lsls	r4, r6
200075aa:	4639      	mov	r1, r7
200075ac:	4648      	mov	r0, r9
200075ae:	4322      	orrs	r2, r4
200075b0:	9200      	str	r2, [sp, #0]
200075b2:	f7ff f8cd 	bl	20006750 <__aeabi_uidiv>
200075b6:	4639      	mov	r1, r7
200075b8:	fa1f fa85 	uxth.w	sl, r5
200075bc:	4683      	mov	fp, r0
200075be:	4648      	mov	r0, r9
200075c0:	f7ff f9f4 	bl	200069ac <__aeabi_uidivmod>
200075c4:	9b00      	ldr	r3, [sp, #0]
200075c6:	0c1a      	lsrs	r2, r3, #16
200075c8:	fb0a f30b 	mul.w	r3, sl, fp
200075cc:	ea42 4401 	orr.w	r4, r2, r1, lsl #16
200075d0:	42a3      	cmp	r3, r4
200075d2:	d903      	bls.n	200075dc <__udivdi3+0x2a4>
200075d4:	1964      	adds	r4, r4, r5
200075d6:	f10b 3bff 	add.w	fp, fp, #4294967295
200075da:	d327      	bcc.n	2000762c <__udivdi3+0x2f4>
200075dc:	1ae4      	subs	r4, r4, r3
200075de:	4639      	mov	r1, r7
200075e0:	4620      	mov	r0, r4
200075e2:	f7ff f8b5 	bl	20006750 <__aeabi_uidiv>
200075e6:	4639      	mov	r1, r7
200075e8:	4681      	mov	r9, r0
200075ea:	4620      	mov	r0, r4
200075ec:	f7ff f9de 	bl	200069ac <__aeabi_uidivmod>
200075f0:	9800      	ldr	r0, [sp, #0]
200075f2:	fb0a f309 	mul.w	r3, sl, r9
200075f6:	fa1f fc80 	uxth.w	ip, r0
200075fa:	ea4c 4401 	orr.w	r4, ip, r1, lsl #16
200075fe:	42a3      	cmp	r3, r4
20007600:	d908      	bls.n	20007614 <__udivdi3+0x2dc>
20007602:	1964      	adds	r4, r4, r5
20007604:	f109 39ff 	add.w	r9, r9, #4294967295
20007608:	d204      	bcs.n	20007614 <__udivdi3+0x2dc>
2000760a:	42a3      	cmp	r3, r4
2000760c:	bf84      	itt	hi
2000760e:	f109 39ff 	addhi.w	r9, r9, #4294967295
20007612:	1964      	addhi	r4, r4, r5
20007614:	fa08 f806 	lsl.w	r8, r8, r6
20007618:	1ae4      	subs	r4, r4, r3
2000761a:	ea49 460b 	orr.w	r6, r9, fp, lsl #16
2000761e:	e706      	b.n	2000742e <__udivdi3+0xf6>
20007620:	455b      	cmp	r3, fp
20007622:	bf84      	itt	hi
20007624:	f109 39ff 	addhi.w	r9, r9, #4294967295
20007628:	44bb      	addhi	fp, r7
2000762a:	e76b      	b.n	20007504 <__udivdi3+0x1cc>
2000762c:	42a3      	cmp	r3, r4
2000762e:	bf84      	itt	hi
20007630:	f10b 3bff 	addhi.w	fp, fp, #4294967295
20007634:	1964      	addhi	r4, r4, r5
20007636:	e7d1      	b.n	200075dc <__udivdi3+0x2a4>
20007638:	2a200d0a 	.word	0x2a200d0a
2000763c:	2a2a202a 	.word	0x2a2a202a
20007640:	2a2a2a20 	.word	0x2a2a2a20
20007644:	2a2a2a2a 	.word	0x2a2a2a2a
20007648:	2a2a2a20 	.word	0x2a2a2a20
2000764c:	202a2a2a 	.word	0x202a2a2a
20007650:	2a2a2a2a 	.word	0x2a2a2a2a
20007654:	2a2a202a 	.word	0x2a2a202a
20007658:	2a202a2a 	.word	0x2a202a2a
2000765c:	2a2a2a2a 	.word	0x2a2a2a2a
20007660:	2a2a2a20 	.word	0x2a2a2a20
20007664:	202a2a2a 	.word	0x202a2a2a
20007668:	2a202a2a 	.word	0x2a202a2a
2000766c:	2a2a202a 	.word	0x2a2a202a
20007670:	2a2a2a2a 	.word	0x2a2a2a2a
20007674:	0d0a202a 	.word	0x0d0a202a
20007678:	2a202a20 	.word	0x2a202a20
2000767c:	2a202a20 	.word	0x2a202a20
20007680:	2a202a20 	.word	0x2a202a20
20007684:	2a202a20 	.word	0x2a202a20
20007688:	2a202a20 	.word	0x2a202a20
2000768c:	2a202a20 	.word	0x2a202a20
20007690:	2a202a20 	.word	0x2a202a20
20007694:	2a202a20 	.word	0x2a202a20
20007698:	0a202a20 	.word	0x0a202a20
2000769c:	202a200d 	.word	0x202a200d
200076a0:	202a202a 	.word	0x202a202a
200076a4:	202a202a 	.word	0x202a202a
200076a8:	2a2a202a 	.word	0x2a2a202a
200076ac:	202a2a2a 	.word	0x202a2a2a
200076b0:	202a202a 	.word	0x202a202a
200076b4:	2a2a2a2a 	.word	0x2a2a2a2a
200076b8:	2a2a2a20 	.word	0x2a2a2a20
200076bc:	202a2a2a 	.word	0x202a2a2a
200076c0:	202a202a 	.word	0x202a202a
200076c4:	202a202a 	.word	0x202a202a
200076c8:	0d0a202a 	.word	0x0d0a202a
200076cc:	2a202a20 	.word	0x2a202a20
200076d0:	2a202a20 	.word	0x2a202a20
200076d4:	2a202a20 	.word	0x2a202a20
200076d8:	2a202a20 	.word	0x2a202a20
200076dc:	2a202a20 	.word	0x2a202a20
200076e0:	2a202a20 	.word	0x2a202a20
200076e4:	2a202a20 	.word	0x2a202a20
200076e8:	0a202a20 	.word	0x0a202a20
200076ec:	202a200d 	.word	0x202a200d
200076f0:	2a2a202a 	.word	0x2a2a202a
200076f4:	2a2a2a2a 	.word	0x2a2a2a2a
200076f8:	2a2a202a 	.word	0x2a2a202a
200076fc:	2a2a2a2a 	.word	0x2a2a2a2a
20007700:	2a202a20 	.word	0x2a202a20
20007704:	2a2a2a20 	.word	0x2a2a2a20
20007708:	2a2a202a 	.word	0x2a2a202a
2000770c:	202a2a2a 	.word	0x202a2a2a
20007710:	2a2a2a2a 	.word	0x2a2a2a2a
20007714:	2a202a2a 	.word	0x2a202a2a
20007718:	2a202a20 	.word	0x2a202a20
2000771c:	2a2a2a2a 	.word	0x2a2a2a2a
20007720:	00202a2a 	.word	0x00202a2a
20007724:	3a207325 	.word	0x3a207325
20007728:	2e252d20 	.word	0x2e252d20
2000772c:	0d566633 	.word	0x0d566633
20007730:	00000008 	.word	0x00000008
20007734:	3a207325 	.word	0x3a207325
20007738:	332e2520 	.word	0x332e2520
2000773c:	080d5666 	.word	0x080d5666
20007740:	00000000 	.word	0x00000000
20007744:	65570d0a 	.word	0x65570d0a
20007748:	6d6f636c 	.word	0x6d6f636c
2000774c:	6f742065 	.word	0x6f742065
20007750:	63694d20 	.word	0x63694d20
20007754:	65736f72 	.word	0x65736f72
20007758:	7327696d 	.word	0x7327696d
2000775c:	616d5320 	.word	0x616d5320
20007760:	75467472 	.word	0x75467472
20007764:	6e6f6973 	.word	0x6e6f6973
20007768:	6c6f5620 	.word	0x6c6f5620
2000776c:	65676174 	.word	0x65676174
20007770:	6e6f4d20 	.word	0x6e6f4d20
20007774:	726f7469 	.word	0x726f7469
20007778:	000d0a0a 	.word	0x000d0a0a
2000777c:	70616548 	.word	0x70616548
20007780:	646e6120 	.word	0x646e6120
20007784:	61747320 	.word	0x61747320
20007788:	63206b63 	.word	0x63206b63
2000778c:	696c6c6f 	.word	0x696c6c6f
20007790:	6e6f6973 	.word	0x6e6f6973
20007794:	0000000a 	.word	0x0000000a

20007798 <g_config_reg_lut>:
20007798:	40013000 40013004 40013008 4001300c     .0.@.0.@.0.@.0.@
200077a8:	40013010 40013014 40013018 4001301c     .0.@.0.@.0.@.0.@
200077b8:	40013020 40013024 40013028 4001302c      0.@$0.@(0.@,0.@
200077c8:	40013030 40013034 40013038 4001303c     00.@40.@80.@<0.@
200077d8:	40013040 40013044 40013048 4001304c     @0.@D0.@H0.@L0.@
200077e8:	40013050 40013054 40013058 4001305c     P0.@T0.@X0.@\0.@
200077f8:	40013060 40013064 40013068 4001306c     `0.@d0.@h0.@l0.@
20007808:	40013070 40013074 40013078 4001307c     p0.@t0.@x0.@|0.@

20007818 <g_gpio_irqn_lut>:
20007818:	00210020 00230022 00250024 00270026      .!.".#.$.%.&.'.
20007828:	00290028 002b002a 002d002c 002f002e     (.).*.+.,.-.../.
20007838:	00310030 00330032 00350034 00370036     0.1.2.3.4.5.6.7.
20007848:	00390038 003b003a 003d003c 003f003e     8.9.:.;.<.=.>.?.

20007858 <channel_type_lut>:
20007858:	01000000 01000002 00000002 00ffff00     ................
20007868:	01000000 01000002 00000002 00ffff00     ................
20007878:	01000000 ffffff02 000000ff 00ffff00     ................

20007888 <channel_quad_lut>:
20007888:	000000ff 01010100 ffffff01 ffffffff     ................
20007898:	020202ff 03030302 ffffff03 ffffffff     ................
200078a8:	040404ff ffffff04 ffffffff ffffffff     ................

200078b8 <abps_channel_lut>:
200078b8:	ff0000ff ff0101ff ffffffff ffffffff     ................
200078c8:	ff0202ff ff0303ff ffffffff ffffffff     ................
200078d8:	ff0404ff ffffffff ffffffff ffffffff     ................

200078e8 <abps_idx_lut>:
200078e8:	ff0100ff ff0302ff ffffffff ffffffff     ................
200078f8:	ff0504ff ff0706ff ffffffff ffffffff     ................
20007908:	ff0908ff ffffffff ffffffff ffffffff     ................

20007918 <apbs_gain_lut>:
20007918:	0204080c                                ....

2000791c <apbs_range>:
2000791c:	28003c00 0a001400                       .<.(....

20007924 <g_ppe_flags_regs_lut>:
20007924:	40021450 40021454 40021458 4002145c     P..@T..@X..@\..@
20007934:	40021460                                `..@

20007938 <flags_irq_enable_regs_lut>:
20007938:	40021224 40021230 4002123c 40021248     $..@0..@<..@H..@
20007948:	40021254                                T..@

2000794c <flags_irq_status_regs_lut>:
2000794c:	40021228 40021234 40021240 4002124c     (..@4..@@..@L..@
2000795c:	40021258                                X..@

20007960 <flags_irq_clear_regs_lut>:
20007960:	4002122c 40021238 40021244 40021250     ,..@8..@D..@P..@
20007970:	4002125c                                \..@

20007974 <C.18.2576>:
20007974:	00000001 00000002 00000004 00000001     ................

20007984 <g_ace_channel_0_name>:
20007984:	5f304d54 746c6f56 00656761              TM0_Voltage.

20007990 <g_channel_0_flags_lut>:
20007990:	00010000 00030002                       ........

20007998 <g_ace_ppe_flag_0_name>:
20007998:	5f304d54 746c6f56 3a656761 7265766f     TM0_Voltage:over
200079a8:	3070315f 00000076                       _1p0v...

200079b0 <g_ace_ppe_flag_1_name>:
200079b0:	5f304d54 746c6f56 3a656761 7265766f     TM0_Voltage:over
200079c0:	3570315f 00000076                       _1p5v...

200079c8 <g_ace_ppe_flag_2_name>:
200079c8:	5f304d54 746c6f56 3a656761 7265766f     TM0_Voltage:over
200079d8:	3070325f 00000076                       _2p0v...

200079e0 <g_ace_ppe_flag_3_name>:
200079e0:	5f304d54 746c6f56 3a656761 7265766f     TM0_Voltage:over
200079f0:	3570325f 00000076 00000043              _2p5v...C...

200079fc <blanks.3595>:
200079fc:	20202020 20202020 20202020 20202020                     

20007a0c <zeroes.3596>:
20007a0c:	30303030 30303030 30303030 30303030     0000000000000000
20007a1c:	33323130 37363534 42413938 46454443     0123456789ABCDEF
20007a2c:	00000000 00464e49 00666e69 004e414e     ....INF.inf.NAN.
20007a3c:	006e616e 33323130 37363534 62613938     nan.0123456789ab
20007a4c:	66656463 00000000 6c756e28 0000296c     cdef....(null)..
20007a5c:	00000030 69666e49 7974696e 00000000     0...Infinity....
20007a6c:	004e614e                                NaN.

20007a70 <charset>:
20007a70:	20007aa8                                .z. 

20007a74 <lconv>:
20007a74:	20007aa4 20007a2c 20007a2c 20007a2c     .z. ,z. ,z. ,z. 
20007a84:	20007a2c 20007a2c 20007a2c 20007a2c     ,z. ,z. ,z. ,z. 
20007a94:	20007a2c 20007a2c ffffffff ffffffff     ,z. ,z. ........
20007aa4:	0000002e 2d4f5349 39353838 0000312d     ....ISO-8859-1..
20007ab4:	00000000                                ....

20007ab8 <__mprec_tens>:
20007ab8:	00000000 3ff00000 00000000 40240000     .......?......$@
20007ac8:	00000000 40590000 00000000 408f4000     ......Y@.....@.@
20007ad8:	00000000 40c38800 00000000 40f86a00     .......@.....j.@
20007ae8:	00000000 412e8480 00000000 416312d0     .......A......cA
20007af8:	00000000 4197d784 00000000 41cdcd65     .......A....e..A
20007b08:	20000000 4202a05f e8000000 42374876     ... _..B....vH7B
20007b18:	a2000000 426d1a94 e5400000 42a2309c     ......mB..@..0.B
20007b28:	1e900000 42d6bcc4 26340000 430c6bf5     .......B..4&.k.C
20007b38:	37e08000 4341c379 85d8a000 43763457     ...7y.AC....W4vC
20007b48:	674ec800 43abc16d 60913d00 43e158e4     ..Ngm..C.=.`.X.C
20007b58:	78b58c40 4415af1d d6e2ef50 444b1ae4     @..x...DP.....KD
20007b68:	064dd592 4480f0cf c7e14af6 44b52d02     ..M....D.J...-.D
20007b78:	79d99db4 44ea7843                       ...yCx.D

20007b80 <p05.2463>:
20007b80:	00000005 00000019 0000007d 00000000     ........}.......

20007b90 <__mprec_bigtens>:
20007b90:	37e08000 4341c379 b5056e17 4693b8b5     ...7y.AC.n.....F
20007ba0:	e93ff9f5 4d384f03 f9301d32 5a827748     ..?..O8M2.0.Hw.Z
20007bb0:	7f73bf3c 75154fdd                       <.s..O.u

20007bb8 <__mprec_tinytens>:
20007bb8:	97d889bc 3c9cd2b2 d5a8a733 3949f623     .......<3...#.I9
20007bc8:	44f4a73d 32a50ffd cf8c979d 255bba08     =..D...2......[%
20007bd8:	64ac6f43 0ac80628                       Co.d(...

20007be0 <_init>:
20007be0:	b5f8      	push	{r3, r4, r5, r6, r7, lr}
20007be2:	bf00      	nop
20007be4:	bcf8      	pop	{r3, r4, r5, r6, r7}
20007be6:	bc08      	pop	{r3}
20007be8:	469e      	mov	lr, r3
20007bea:	4770      	bx	lr

20007bec <_fini>:
20007bec:	b5f8      	push	{r3, r4, r5, r6, r7, lr}
20007bee:	bf00      	nop
20007bf0:	bcf8      	pop	{r3, r4, r5, r6, r7}
20007bf2:	bc08      	pop	{r3}
20007bf4:	469e      	mov	lr, r3
20007bf6:	4770      	bx	lr

20007bf8 <__frame_dummy_init_array_entry>:
20007bf8:	0485 2000                                   ... 

20007bfc <__do_global_dtors_aux_fini_array_entry>:
20007bfc:	0471 2000                                   q.. 
