
Embed_System.elf:     file format elf32-littlenios2
Embed_System.elf
architecture: nios2:r1, flags 0x00000112:
EXEC_P, HAS_SYMS, D_PAGED
start address 0x0400016c

Program Header:
    LOAD off    0x00001020 vaddr 0x09404020 paddr 0x04000000 align 2**12
         filesz 0x0000016c memsz 0x0000016c flags r-x
    LOAD off    0x0000216c vaddr 0x0400016c paddr 0x0400016c align 2**12
         filesz 0x00004fcc memsz 0x00004fcc flags r-x
    LOAD off    0x00007138 vaddr 0x04005138 paddr 0x04005cc8 align 2**12
         filesz 0x00000b90 memsz 0x00000b90 flags rw-
    LOAD off    0x00008858 vaddr 0x04006858 paddr 0x04006858 align 2**12
         filesz 0x00000000 memsz 0x000001e4 flags rw-
    LOAD off    0x00008000 vaddr 0x09404000 paddr 0x09404000 align 2**12
         filesz 0x00000020 memsz 0x00000020 flags r-x

Sections:
Idx Name          Size      VMA       LMA       File off  Algn
  0 .entry        00000020  09404000  09404000  00008000  2**5
                  CONTENTS, ALLOC, LOAD, READONLY, CODE
  1 .exceptions   0000016c  09404020  04000000  00001020  2**2
                  CONTENTS, ALLOC, LOAD, READONLY, CODE
  2 .text         00004ca4  0400016c  0400016c  0000216c  2**2
                  CONTENTS, ALLOC, LOAD, READONLY, CODE
  3 .rodata       00000328  04004e10  04004e10  00006e10  2**2
                  CONTENTS, ALLOC, LOAD, READONLY, DATA
  4 .rwdata       00000b90  04005138  04005cc8  00007138  2**2
                  CONTENTS, ALLOC, LOAD, DATA, SMALL_DATA
  5 .bss          000001e4  04006858  04006858  00008858  2**2
                  ALLOC, SMALL_DATA
  6 .sdram        00000000  04006a3c  04006a3c  00008020  2**0
                  CONTENTS
  7 .onchip_flash_0_data 00000000  09200000  09200000  00008020  2**0
                  CONTENTS
  8 .onchip_ram   00000000  0940418c  0940418c  00008020  2**0
                  CONTENTS
  9 .comment      00000023  00000000  00000000  00008020  2**0
                  CONTENTS, READONLY
 10 .debug_aranges 00000b30  00000000  00000000  00008048  2**3
                  CONTENTS, READONLY, DEBUGGING
 11 .debug_info   00019eb5  00000000  00000000  00008b78  2**0
                  CONTENTS, READONLY, DEBUGGING
 12 .debug_abbrev 000071cc  00000000  00000000  00022a2d  2**0
                  CONTENTS, READONLY, DEBUGGING
 13 .debug_line   000075ac  00000000  00000000  00029bf9  2**0
                  CONTENTS, READONLY, DEBUGGING
 14 .debug_frame  000015ac  00000000  00000000  000311a8  2**2
                  CONTENTS, READONLY, DEBUGGING
 15 .debug_str    00002e91  00000000  00000000  00032754  2**0
                  CONTENTS, READONLY, DEBUGGING
 16 .debug_loc    00006523  00000000  00000000  000355e5  2**0
                  CONTENTS, READONLY, DEBUGGING
 17 .debug_alt_sim_info 00000060  00000000  00000000  0003bb08  2**2
                  CONTENTS, READONLY, DEBUGGING
 18 .debug_ranges 00000848  00000000  00000000  0003bb68  2**3
                  CONTENTS, READONLY, DEBUGGING
 19 .thread_model 00000003  00000000  00000000  0003f069  2**0
                  CONTENTS, READONLY
 20 .cpu          0000000c  00000000  00000000  0003f06c  2**0
                  CONTENTS, READONLY
 21 .qsys         00000001  00000000  00000000  0003f078  2**0
                  CONTENTS, READONLY
 22 .simulation_enabled 00000001  00000000  00000000  0003f079  2**0
                  CONTENTS, READONLY
 23 .sysid_hash   00000004  00000000  00000000  0003f07a  2**0
                  CONTENTS, READONLY
 24 .sysid_base   00000004  00000000  00000000  0003f07e  2**0
                  CONTENTS, READONLY
 25 .sysid_time   00000004  00000000  00000000  0003f082  2**0
                  CONTENTS, READONLY
 26 .stderr_dev   00000009  00000000  00000000  0003f086  2**0
                  CONTENTS, READONLY
 27 .stdin_dev    00000009  00000000  00000000  0003f08f  2**0
                  CONTENTS, READONLY
 28 .stdout_dev   00000009  00000000  00000000  0003f098  2**0
                  CONTENTS, READONLY
 29 .sopc_system_name 00000005  00000000  00000000  0003f0a1  2**0
                  CONTENTS, READONLY
 30 .quartus_project_dir 00000021  00000000  00000000  0003f0a6  2**0
                  CONTENTS, READONLY
 31 .sopcinfo     000aac65  00000000  00000000  0003f0c7  2**0
                  CONTENTS, READONLY
SYMBOL TABLE:
09404000 l    d  .entry	00000000 .entry
09404020 l    d  .exceptions	00000000 .exceptions
0400016c l    d  .text	00000000 .text
04004e10 l    d  .rodata	00000000 .rodata
04005138 l    d  .rwdata	00000000 .rwdata
04006858 l    d  .bss	00000000 .bss
04006a3c l    d  .sdram	00000000 .sdram
09200000 l    d  .onchip_flash_0_data	00000000 .onchip_flash_0_data
0940418c l    d  .onchip_ram	00000000 .onchip_ram
00000000 l    d  .comment	00000000 .comment
00000000 l    d  .debug_aranges	00000000 .debug_aranges
00000000 l    d  .debug_info	00000000 .debug_info
00000000 l    d  .debug_abbrev	00000000 .debug_abbrev
00000000 l    d  .debug_line	00000000 .debug_line
00000000 l    d  .debug_frame	00000000 .debug_frame
00000000 l    d  .debug_str	00000000 .debug_str
00000000 l    d  .debug_loc	00000000 .debug_loc
00000000 l    d  .debug_alt_sim_info	00000000 .debug_alt_sim_info
00000000 l    d  .debug_ranges	00000000 .debug_ranges
00000000 l    df *ABS*	00000000 ../Embed_System_bsp//obj/HAL/src/crt0.o
040001b4 l       .text	00000000 alt_after_alt_main
00000000 l    df *ABS*	00000000 alt_irq_handler.c
00000000 l    df *ABS*	00000000 alt_instruction_exception_entry.c
00000000 l    df *ABS*	00000000 main.c
00000000 l    df *ABS*	00000000 alarm_util.c
00000000 l    df *ABS*	00000000 delay_wait.c
00000000 l    df *ABS*	00000000 error_loop.c
00000000 l    df *ABS*	00000000 jtag_uart_util.c
00000000 l    df *ABS*	00000000 led_util.c
00000000 l    df *ABS*	00000000 lib2-divmod.c
00000000 l    df *ABS*	00000000 alt_alarm_start.c
00000000 l    df *ABS*	00000000 alt_getchar.c
00000000 l    df *ABS*	00000000 alt_load.c
00000000 l    df *ABS*	00000000 alt_main.c
00000000 l    df *ABS*	00000000 alt_printf.c
00000000 l    df *ABS*	00000000 alt_putchar.c
00000000 l    df *ABS*	00000000 alt_tick.c
00000000 l    df *ABS*	00000000 alt_sys_init.c
04005274 l     O .rwdata	0000002c jtag_uart
04005238 l     O .rwdata	0000003c modular_adc_0
04005138 l     O .rwdata	00000100 onchip_flash_0
00000000 l    df *ABS*	00000000 altera_avalon_jtag_uart_fd.c
00000000 l    df *ABS*	00000000 altera_avalon_jtag_uart_read.c
00000000 l    df *ABS*	00000000 altera_avalon_jtag_uart_write.c
00000000 l    df *ABS*	00000000 altera_avalon_timer_sc.c
04000e28 l     F .text	0000003c alt_avalon_timer_sc_irq
00000000 l    df *ABS*	00000000 altera_modular_adc.c
04000eac l     F .text	00000064 alt_adc_irq
00000000 l    df *ABS*	00000000 altera_onchip_flash.c
00000000 l    df *ABS*	00000000 alt_busy_sleep.c
00000000 l    df *ABS*	00000000 alt_close.c
00000000 l    df *ABS*	00000000 alt_dcache_flush.c
00000000 l    df *ABS*	00000000 alt_dcache_flush_all.c
00000000 l    df *ABS*	00000000 alt_dev.c
04001cc4 l     F .text	00000008 alt_dev_null_write
00000000 l    df *ABS*	00000000 alt_dev_llist_insert.c
00000000 l    df *ABS*	00000000 alt_errno.c
00000000 l    df *ABS*	00000000 alt_find_dev.c
00000000 l    df *ABS*	00000000 alt_flash_dev.c
00000000 l    df *ABS*	00000000 alt_icache_flush_all.c
00000000 l    df *ABS*	00000000 alt_iic.c
00000000 l    df *ABS*	00000000 alt_iic_isr_register.c
00000000 l    df *ABS*	00000000 alt_io_redirect.c
04001f14 l     F .text	00000074 alt_open_fd.constprop.0
00000000 l    df *ABS*	00000000 alt_irq_vars.c
00000000 l    df *ABS*	00000000 alt_open.c
00000000 l    df *ABS*	00000000 alt_release_fd.c
00000000 l    df *ABS*	00000000 altera_nios2_gen2_irq.c
00000000 l    df *ABS*	00000000 alt_find_file.c
00000000 l    df *ABS*	00000000 alt_get_fd.c
00000000 l    df *ABS*	00000000 alt_icache_flush.c
00000000 l    df *ABS*	00000000 exit.c
00000000 l    df *ABS*	00000000 getc.c
00000000 l    df *ABS*	00000000 impure.c
04005448 l     O .rwdata	00000424 impure_data
00000000 l    df *ABS*	00000000 int_errno.c
00000000 l    df *ABS*	00000000 memcmp.c
00000000 l    df *ABS*	00000000 memcpy.c
00000000 l    df *ABS*	00000000 putc.c
00000000 l    df *ABS*	00000000 rget.c
00000000 l    df *ABS*	00000000 strlen.c
00000000 l    df *ABS*	00000000 wbuf.c
00000000 l    df *ABS*	00000000 wsetup.c
00000000 l    df *ABS*	00000000 __call_atexit.c
00000000 l    df *ABS*	00000000 fflush.c
00000000 l    df *ABS*	00000000 findfp.c
04002fb0 l     F .text	00000008 __fp_unlock
04002fc4 l     F .text	0000019c __sinit.part.1
04003160 l     F .text	00000008 __fp_lock
00000000 l    df *ABS*	00000000 mallocr.c
00000000 l    df *ABS*	00000000 fwalk.c
00000000 l    df *ABS*	00000000 makebuf.c
00000000 l    df *ABS*	00000000 mallocr.c
00000000 l    df *ABS*	00000000 memset.c
00000000 l    df *ABS*	00000000 refill.c
040043fc l     F .text	0000001c lflush
00000000 l    df *ABS*	00000000 sbrkr.c
00000000 l    df *ABS*	00000000 stdio.c
00000000 l    df *ABS*	00000000 writer.c
00000000 l    df *ABS*	00000000 closer.c
00000000 l    df *ABS*	00000000 fclose.c
00000000 l    df *ABS*	00000000 fstatr.c
00000000 l    df *ABS*	00000000 isattyr.c
00000000 l    df *ABS*	00000000 lseekr.c
00000000 l    df *ABS*	00000000 readr.c
00000000 l    df *ABS*	00000000 alt_exit.c
00000000 l    df *ABS*	00000000 alt_fstat.c
00000000 l    df *ABS*	00000000 alt_isatty.c
00000000 l    df *ABS*	00000000 alt_lseek.c
00000000 l    df *ABS*	00000000 alt_malloc_lock.c
00000000 l    df *ABS*	00000000 alt_read.c
00000000 l    df *ABS*	00000000 alt_sbrk.c
04005cc4 l     O .rwdata	00000004 heap_end
00000000 l    df *ABS*	00000000 alt_write.c
040068a0 g     O .bss	00000004 alt_instruction_exception_handler
04001010 g     F .text	00000020 adc_stop
04004990 g     F .text	00000054 _isatty_r
040009ec g     F .text	00000050 alt_main
04000384 g     F .text	00000014 my_alarm_callback
0400693c g     O .bss	00000100 alt_irq
040049e4 g     F .text	00000060 _lseek_r
04005cc8 g       *ABS*	00000000 __flash_rwdata_start
04006a3c g       *ABS*	00000000 __alt_heap_start
04004718 g     F .text	0000005c __sseek
04003300 g     F .text	00000010 __sinit
040028dc g     F .text	00000140 __swbuf_r
04003168 g     F .text	00000068 __sfmoreglue
04004c34 g     F .text	00000004 __malloc_unlock
04006878 g     O .bss	00000004 LAST_DELAY
04006880 g     O .bss	00000004 PRINT_STDIO_WRAP_COUNT
040032e8 g     F .text	00000018 _cleanup
04002198 g     F .text	00000008 altera_nios2_gen2_irq_init
09404000 g     F .entry	0000001c __reset
040010cc g     F .text	00000018 adc_interrupt_disable
04000000 g       *ABS*	00000000 __flash_exceptions_start
04004934 g     F .text	0000005c _fstat_r
040068a4 g     O .bss	00000004 errno
04002830 g     F .text	00000014 __srget
04004694 g     F .text	00000008 __seofread
04000f48 g     F .text	00000064 altera_modular_adc_init
04006884 g     O .bss	00000001 LED_MASK
0400688c g     O .bss	00000004 alt_argv
0400dc74 g       *ABS*	00000000 _gp
04006885 g     O .bss	00000001 LED_STATE
04001ad8 g     F .text	00000060 alt_onchip_flash_poll_for_status_write_passed
040052a0 g     O .rwdata	00000180 alt_fd_list
04002398 g     F .text	00000070 _getc_r
04002408 g     F .text	00000088 getc
04001d38 g     F .text	00000078 alt_find_dev
0400250c g     F .text	00000148 memcpy
09200000 g       *ABS*	00000000 __alt_mem_onchip_flash_0_data
04002fb8 g     F .text	0000000c _cleanup_r
04001058 g     F .text	00000014 adc_set_mode_run_continuously
04001f88 g     F .text	00000074 alt_io_redirect
040022ec g     F .text	00000074 alt_exception_cause_generated_bad_addr
04000d80 g     F .text	00000074 altera_avalon_jtag_uart_read
04000790 g     F .text	00000064 .hidden __udivsi3
04004b30 g     F .text	00000084 isatty
04001a78 g     F .text	00000060 alt_onchip_flash_poll_for_status_erase_passed
0400229c g     F .text	00000050 alt_icache_flush
040068b0 g     O .bss	00000004 __malloc_top_pad
04005c88 g     O .rwdata	00000008 altera_onchip_flash_list
040045ec g     F .text	00000054 _sbrk_r
04004a44 g     F .text	00000060 _read_r
04005c80 g     O .rwdata	00000008 altera_modular_adc_list
04001c6c g     F .text	00000040 alt_dcache_flush
040011d4 g     F .text	00000178 alt_onchip_flash_erase_block
04005c90 g     O .rwdata	00000004 alt_max_fd
04004830 g     F .text	000000f0 _fclose_r
04002f80 g     F .text	00000030 fflush
040068ac g     O .bss	00000004 __malloc_max_sbrked_mem
04004bb4 g     F .text	0000007c lseek
04005cb4 g     O .rwdata	00000004 _global_impure_ptr
04006a3c g       *ABS*	00000000 __bss_end
04001eac g     F .text	00000068 alt_iic_isr_register
040008cc g     F .text	0000000c alt_getchar
04000bf8 g     F .text	000000f4 alt_tick
040068dc g     O .bss	00000018 ALARM_100MS
04001108 g     F .text	00000014 adc_wait_for_interrupt
04003320 g     F .text	00000018 __fp_lock_all
04001e94 g     F .text	00000018 alt_ic_irq_enabled
04000bc4 g     F .text	00000034 alt_alarm_stop
0400689c g     O .bss	00000004 alt_irq_active
0400059c g     F .text	00000014 set_delay_mode_100ms
094040fc g     F .exceptions	00000064 alt_irq_handler
04005420 g     O .rwdata	00000028 alt_dev_null
040068f4 g     O .bss	00000018 ALARM_1MS
040005c4 g     F .text	00000014 set_delay_mode_1ms
04001040 g     F .text	00000018 adc_set_mode_run_once
04001cac g     F .text	00000018 alt_dcache_flush_all
04005cc8 g       *ABS*	00000000 __ram_rwdata_end
0400687c g     O .bss	00000004 PRINT_STDIO_MASK
04005c94 g     O .rwdata	00000008 alt_dev_list
04004d4c g     F .text	000000c4 write
04002654 g     F .text	000000a0 _putc_r
040005d8 g     F .text	00000008 set_delay_mode_none
04005138 g       *ABS*	00000000 __ram_rodata_end
04004ab8 g     F .text	00000078 fstat
040005e0 g     F .text	00000024 error_loop
04001030 g     F .text	00000010 adc_start
040007f4 g     F .text	00000058 .hidden __umodsi3
04006a3c g       *ABS*	00000000 end
04006858 g     O .bss	00000008 ALARM_250MS_CONTEXT
09404160 g     F .exceptions	0000002c alt_instruction_exception_entry
08000000 g       *ABS*	00000000 __alt_stack_pointer
04000e64 g     F .text	00000048 alt_avalon_timer_sc_init
04000df4 g     F .text	00000034 altera_avalon_jtag_uart_write
04003310 g     F .text	00000004 __sfp_lock_acquire
0400118c g     F .text	00000048 alt_onchip_flash_get_info
04003474 g     F .text	00000310 _free_r
04000a3c g     F .text	0000017c alt_printf
040027bc g     F .text	00000074 __srget_r
04002b88 g     F .text	00000180 __call_exitprocs
04005cbc g     O .rwdata	00000004 __malloc_sbrk_base
0400016c g     F .text	0000004c _start
04006898 g     O .bss	00000004 _alt_tick_rate
04006894 g     O .bss	00000004 _alt_nticks
04004c38 g     F .text	000000c8 read
04000d0c g     F .text	00000054 alt_sys_init
04006860 g     O .bss	00000008 ALARM_100MS_CONTEXT
04005138 g       *ABS*	00000000 __ram_rwdata_start
04004e10 g       *ABS*	00000000 __ram_rodata_start
040068b4 g     O .bss	00000028 __malloc_current_mallinfo
04000d60 g     F .text	00000010 altera_avalon_jtag_uart_read_fd
0400224c g     F .text	00000050 alt_get_fd
0400690c g     O .bss	00000018 ALARM_250MS
04001b38 g     F .text	00000078 alt_busy_sleep
040047dc g     F .text	00000054 _close_r
040004cc g     F .text	000000bc delay_wait
04002490 g     F .text	0000007c memcmp
04006a3c g       *ABS*	00000000 __alt_stack_base
04002a34 g     F .text	00000154 __swsetup_r
040010b8 g     F .text	00000014 adc_interrupt_enable
0400111c g     F .text	00000070 alt_onchip_flash_read
040031d0 g     F .text	00000118 __sfp
0400586c g     O .rwdata	00000408 __malloc_av_
0400331c g     F .text	00000004 __sinit_lock_release
04004640 g     F .text	00000054 __sread
040021a0 g     F .text	000000ac alt_find_file
04001ccc g     F .text	0000006c alt_dev_llist_insert
04004c30 g     F .text	00000004 __malloc_lock
04004d00 g     F .text	0000004c sbrk
04002f24 g     F .text	0000005c _fflush_r
04005ca8 g     O .rwdata	00000008 alt_flash_dev_list
04006858 g       *ABS*	00000000 __bss_start
040042d4 g     F .text	00000128 memset
040001b8 g     F .text	000001cc main
04006888 g     O .bss	00000004 alt_envp
040068a8 g     O .bss	00000004 __malloc_max_total_mem
04000d70 g     F .text	00000010 altera_avalon_jtag_uart_write_fd
04002a1c g     F .text	00000018 __swbuf
04000f10 g     F .text	00000038 alt_adc_word_read
04006868 g     O .bss	00000008 ALARM_10MS_CONTEXT
04004774 g     F .text	00000008 __sclose
08000000 g       *ABS*	00000000 __alt_heap_limit
04004920 g     F .text	00000014 fclose
04003ac8 g     F .text	0000080c _malloc_r
04005ca4 g     O .rwdata	00000004 alt_errno
04001a1c g     F .text	0000005c alt_onchip_flash_poll_for_status_to_go_idle
04003784 g     F .text	000000c4 _fwalk
040026f4 g     F .text	000000c8 putc
04000698 g     F .text	00000084 .hidden __divsi3
04003350 g     F .text	00000124 _malloc_trim_r
04001778 g     F .text	000002a4 altera_onchip_flash_init
04004e10 g       *ABS*	00000000 __flash_rodata_start
04000cec g     F .text	00000020 alt_irq_init
04002174 g     F .text	00000024 alt_release_fd
0400477c g     F .text	00000060 _write_r
04000660 g     F .text	00000038 update_led
04005cb8 g     O .rwdata	00000004 _impure_ptr
04006890 g     O .bss	00000004 alt_argc
04002d08 g     F .text	0000021c __sflush_r
04004418 g     F .text	000001d4 __srefill_r
04000588 g     F .text	00000014 set_delay_mode_250ms
09404020 g       .exceptions	00000000 alt_irq_entry
04003338 g     F .text	00000018 __fp_unlock_all
04005c9c g     O .rwdata	00000008 alt_fs_list
0400134c g     F .text	00000220 alt_onchip_flash_write_block
09404020 g       *ABS*	00000000 __ram_exceptions_start
04001e20 g     F .text	00000004 alt_ic_isr_register
04000604 g     F .text	0000005c print_binary_count_stdio
04005cc8 g       *ABS*	00000000 _edata
0400156c g     F .text	0000020c alt_onchip_flash_write
04006a3c g       *ABS*	00000000 _end
04001db0 g     F .text	00000050 alt_flash_open_dev
04006924 g     O .bss	00000018 ALARM_10MS
040010f8 g     F .text	00000010 adc_interrupt_asserted
0940418c g       *ABS*	00000000 __ram_exceptions_end
04001e5c g     F .text	00000038 alt_ic_irq_disable
0400469c g     F .text	0000007c __swrite
04005cc0 g     O .rwdata	00000004 __malloc_trim_threshold
040010e4 g     F .text	00000014 adc_clear_interrupt_status
04002360 g     F .text	00000038 exit
04003848 g     F .text	000000c4 _fwalk_reent
04001e00 g     F .text	00000014 alt_flash_close_dev
0400071c g     F .text	00000074 .hidden __modsi3
08000000 g       *ABS*	00000000 __alt_data_end
09404020 g     F .exceptions	00000000 alt_exception
04003314 g     F .text	00000004 __sfp_lock_release
04000000 g       *ABS*	00000000 __alt_mem_sdram
09404000 g       *ABS*	00000000 __alt_mem_onchip_ram
04001008 g     F .text	00000008 altera_modular_adc_open
04004aa4 g     F .text	00000014 _exit
0400084c g     F .text	00000080 alt_alarm_start
0400390c g     F .text	000001bc __smakebuf_r
04002844 g     F .text	00000098 strlen
04001ffc g     F .text	00000178 open
04000398 g     F .text	00000134 alarm_init
04000bb8 g     F .text	0000000c alt_putchar
0400106c g     F .text	0000004c adc_recalibrate
04006870 g     O .bss	00000008 ALARM_1MS_CONTEXT
04001e14 g     F .text	0000000c alt_icache_flush_all
04005cb0 g     O .rwdata	00000004 alt_priority_mask
04001e24 g     F .text	00000038 alt_ic_irq_enable
040005b0 g     F .text	00000014 set_delay_mode_10ms
04005c74 g     O .rwdata	00000001 DELAY_MODE
04005c78 g     O .rwdata	00000008 alt_alarm_list
04001bb0 g     F .text	000000bc close
040008d8 g     F .text	00000114 alt_load
04000fac g     F .text	0000005c alt_adc_register_callback
04003318 g     F .text	00000004 __sinit_lock_acquire



Disassembly of section .entry:

09404000 <__reset>:
#if NIOS2_ICACHE_SIZE > 0 && defined(ALT_ALLOW_CODE_AT_RESET) && (!defined(ALT_SIM_OPTIMIZE) || defined(NIOS2_ECC_PRESENT))
    /* Assume the instruction cache size is always a power of two. */
#if NIOS2_ICACHE_SIZE > 0x8000
    movhi r2, %hi(NIOS2_ICACHE_SIZE)
#else
    movui r2, NIOS2_ICACHE_SIZE
 9404000:	00820014 	movui	r2,2048
#endif

0:
    initi r2
 9404004:	1001483a 	initi	r2
    addi r2, r2, -NIOS2_ICACHE_LINE_SIZE
 9404008:	10bff804 	addi	r2,r2,-32
    bgt r2, zero, 0b
 940400c:	00bffd16 	blt	zero,r2,9404004 <__ram_exceptions_end+0xfffffe78>
 * Jump to the _start entry point in the .text section if reset code
 * is allowed or if optimizing for RTL simulation.
 */
#if defined(ALT_ALLOW_CODE_AT_RESET) || defined(ALT_SIM_OPTIMIZE)
    /* Jump to the _start entry point in the .text section. */
    movhi r1, %hi(_start)
 9404010:	00410034 	movhi	at,1024
    ori r1, r1, %lo(_start)
 9404014:	08405b14 	ori	at,at,364
    jmp r1
 9404018:	0800683a 	jmp	at
 940401c:	00000000 	call	0 <__alt_mem_sdram-0x4000000>

Disassembly of section .exceptions:

09404020 <alt_exception>:

#else /* ALT_EXCEPTION_STACK disabled */
        /* 
         * Reserve space on normal stack for registers about to be pushed.
         */
        addi  sp, sp, -76
 9404020:	deffed04 	addi	sp,sp,-76
         * documentation for details).
         *
         * Leave a gap in the stack frame at 4(sp) for the muldiv handler to
         * store zero into.
         */
        stw   ra,  0(sp)
 9404024:	dfc00015 	stw	ra,0(sp)
        stw   r1,   8(sp)
 9404028:	d8400215 	stw	at,8(sp)
        stw   r2,  12(sp)
 940402c:	d8800315 	stw	r2,12(sp)
        stw   r3,  16(sp)
 9404030:	d8c00415 	stw	r3,16(sp)
        stw   r4,  20(sp)
 9404034:	d9000515 	stw	r4,20(sp)
        stw   r5,  24(sp)
 9404038:	d9400615 	stw	r5,24(sp)
        stw   r6,  28(sp)
 940403c:	d9800715 	stw	r6,28(sp)
        stw   r7,  32(sp)
 9404040:	d9c00815 	stw	r7,32(sp)
        rdctl r5, estatus   /* Read early to avoid usage stall */
 9404044:	000b307a 	rdctl	r5,estatus
        stw   r8,  36(sp)
 9404048:	da000915 	stw	r8,36(sp)
        stw   r9,  40(sp)
 940404c:	da400a15 	stw	r9,40(sp)
        stw   r10, 44(sp)
 9404050:	da800b15 	stw	r10,44(sp)
        stw   r11, 48(sp)
 9404054:	dac00c15 	stw	r11,48(sp)
        stw   r12, 52(sp)
 9404058:	db000d15 	stw	r12,52(sp)
        stw   r13, 56(sp)
 940405c:	db400e15 	stw	r13,56(sp)
        stw   r14, 60(sp)
 9404060:	db800f15 	stw	r14,60(sp)
        stw   r15, 64(sp)
 9404064:	dbc01015 	stw	r15,64(sp)
        /*
         * ea-4 contains the address of the instruction being executed
         * when the exception occured. For interrupt exceptions, we will
         * will be re-issue the isntruction. Store it in 72(sp)
         */
        stw   r5,  68(sp)  /* estatus */
 9404068:	d9401115 	stw	r5,68(sp)
        addi  r15, ea, -4  /* instruction that caused exception */
 940406c:	ebffff04 	addi	r15,ea,-4
        stw   r15,  72(sp)
 9404070:	dbc01215 	stw	r15,72(sp)
#else
        /*
         * Test to see if the exception was a software exception or caused 
         * by an external interrupt, and vector accordingly.
         */
        rdctl r4, ipending
 9404074:	0009313a 	rdctl	r4,ipending
        andi  r2, r5, 1
 9404078:	2880004c 	andi	r2,r5,1
        beq   r2, zero, .Lnot_irq
 940407c:	10000326 	beq	r2,zero,940408c <alt_exception+0x6c>
        beq   r4, zero, .Lnot_irq
 9404080:	20000226 	beq	r4,zero,940408c <alt_exception+0x6c>
        /*
         * Now that all necessary registers have been preserved, call 
         * alt_irq_handler() to process the interrupts.
         */

        call alt_irq_handler
 9404084:	94040fc0 	call	94040fc <alt_irq_handler>

        .section .exceptions.irqreturn, "xa"

        br    .Lexception_exit
 9404088:	00000706 	br	94040a8 <alt_exception+0x88>
         * upon completion, so we write ea (address of instruction *after*
         * the one where the exception occured) into 72(sp). The actual
         * instruction that caused the exception is written in r2, which these
         * handlers will utilize.
         */
        stw ea, 72(sp) /* EA is PC+4 so will skip over instruction causing exception */
 940408c:	df401215 	stw	ea,72(sp)
.Lunknown_16bit:
        addi.n r4, r4, 2 /* Need PC+2 to skip over instruction causing exception */
        stw r4, 72(sp)

#else /* CDX is not Enabled and all instructions are 32bits */
        ldw r2, -4(ea) /* Instruction value that caused exception */
 9404090:	e8bfff17 	ldw	r2,-4(ea)
         * debugger is present) or go into an infinite loop since the
         * handling behavior is undefined; in that case we will not return here.
         */

        /* Load exception-causing address as first argument (r4) */
        addi   r4, ea, -4
 9404094:	e93fff04 	addi	r4,ea,-4

        /* Call the instruction-exception entry */
        call   alt_instruction_exception_entry
 9404098:	94041600 	call	9404160 <alt_instruction_exception_entry>
         * instruction
         *
         * Return code was 0: Skip. The instruction after the exception is
         * already stored in 72(sp).
         */
        bne   r2, r0, .Lexception_exit
 940409c:	1000021e 	bne	r2,zero,94040a8 <alt_exception+0x88>

        /*
         * Otherwise, modify 72(sp) to re-issue the instruction that caused the
         * exception.
         */
        addi  r15, ea, -4  /* instruction that caused exception */
 94040a0:	ebffff04 	addi	r15,ea,-4
        stw   r15,  72(sp)
 94040a4:	dbc01215 	stw	r15,72(sp)
        /* 
         * Restore the saved registers, so that all general purpose registers 
         * have been restored to their state at the time the interrupt occured.
         */

        ldw   r5,  68(sp)
 94040a8:	d9401117 	ldw	r5,68(sp)
        ldw   ea,  72(sp)  /* This becomes the PC once eret is executed */
 94040ac:	df401217 	ldw	ea,72(sp)
        ldw   ra,   0(sp)
 94040b0:	dfc00017 	ldw	ra,0(sp)

        wrctl estatus, r5
 94040b4:	2801707a 	wrctl	estatus,r5

        ldw   r1,   8(sp)
 94040b8:	d8400217 	ldw	at,8(sp)
        ldw   r2,  12(sp)
 94040bc:	d8800317 	ldw	r2,12(sp)
        ldw   r3,  16(sp)
 94040c0:	d8c00417 	ldw	r3,16(sp)
        ldw   r4,  20(sp)
 94040c4:	d9000517 	ldw	r4,20(sp)
        ldw   r5,  24(sp)
 94040c8:	d9400617 	ldw	r5,24(sp)
        ldw   r6,  28(sp)
 94040cc:	d9800717 	ldw	r6,28(sp)
        ldw   r7,  32(sp)
 94040d0:	d9c00817 	ldw	r7,32(sp)

#if defined(ALT_EXCEPTION_STACK) && defined(ALT_STACK_CHECK)
        ldw   et, %gprel(alt_exception_old_stack_limit)(gp)
#endif

        ldw   r8,  36(sp)
 94040d4:	da000917 	ldw	r8,36(sp)
        ldw   r9,  40(sp)
 94040d8:	da400a17 	ldw	r9,40(sp)
        ldw   r10, 44(sp)
 94040dc:	da800b17 	ldw	r10,44(sp)
        ldw   r11, 48(sp)
 94040e0:	dac00c17 	ldw	r11,48(sp)
        ldw   r12, 52(sp)
 94040e4:	db000d17 	ldw	r12,52(sp)
        ldw   r13, 56(sp)
 94040e8:	db400e17 	ldw	r13,56(sp)
        ldw   r14, 60(sp)
 94040ec:	db800f17 	ldw	r14,60(sp)
        ldw   r15, 64(sp)
 94040f0:	dbc01017 	ldw	r15,64(sp)
        stw   et, %gprel(alt_stack_limit_value)(gp)
        stw   zero, %gprel(alt_exception_old_stack_limit)(gp)
#endif /* ALT_STACK_CHECK */
        ldw   sp,  76(sp)
#else /* ALT_EXCEPTION_STACK disabled */
        addi  sp, sp, 76
 94040f4:	dec01304 	addi	sp,sp,76

        /*
         * Return to the interrupted instruction.
         */

        eret
 94040f8:	ef80083a 	eret

094040fc <alt_irq_handler>:
 * instruction is present if the macro ALT_CI_INTERRUPT_VECTOR defined.
 */

void alt_irq_handler (void) __attribute__ ((section (".exceptions")));
void alt_irq_handler (void)
{
 94040fc:	defffe04 	addi	sp,sp,-8
 9404100:	dfc00115 	stw	ra,4(sp)
 9404104:	dc000015 	stw	r16,0(sp)
#ifndef NIOS2_EIC_PRESENT
static ALT_INLINE alt_u32 ALT_ALWAYS_INLINE alt_irq_pending (void)
{
  alt_u32 active;

  NIOS2_READ_IPENDING (active);
 9404108:	000b313a 	rdctl	r5,ipending
 940410c:	04010034 	movhi	r16,1024
 9404110:	841a4f04 	addi	r16,r16,26940
     * called to clear the interrupt condition.
     */

    do
    {
      if (active & mask)
 9404114:	2880004c 	andi	r2,r5,1

  active = alt_irq_pending ();

  do
  {
    i = 0;
 9404118:	0007883a 	mov	r3,zero
     * called to clear the interrupt condition.
     */

    do
    {
      if (active & mask)
 940411c:	1000051e 	bne	r2,zero,9404134 <alt_irq_handler+0x38>
 9404120:	00800044 	movi	r2,1
#else
        alt_irq[i].handler(alt_irq[i].context, i); 
#endif
        break;
      }
      mask <<= 1;
 9404124:	1085883a 	add	r2,r2,r2
     * called to clear the interrupt condition.
     */

    do
    {
      if (active & mask)
 9404128:	2888703a 	and	r4,r5,r2
        alt_irq[i].handler(alt_irq[i].context, i); 
#endif
        break;
      }
      mask <<= 1;
      i++;
 940412c:	18c00044 	addi	r3,r3,1
     * called to clear the interrupt condition.
     */

    do
    {
      if (active & mask)
 9404130:	203ffc26 	beq	r4,zero,9404124 <__ram_exceptions_end+0xffffff98>
      { 
#ifdef ALT_ENHANCED_INTERRUPT_API_PRESENT
        alt_irq[i].handler(alt_irq[i].context); 
 9404134:	180690fa 	slli	r3,r3,3
 9404138:	80c7883a 	add	r3,r16,r3
 940413c:	18800017 	ldw	r2,0(r3)
 9404140:	19000117 	ldw	r4,4(r3)
 9404144:	103ee83a 	callr	r2
 9404148:	000b313a 	rdctl	r5,ipending

    } while (1);

    active = alt_irq_pending ();
    
  } while (active);
 940414c:	283ff11e 	bne	r5,zero,9404114 <__ram_exceptions_end+0xffffff88>
  /*
   * Notify the operating system that interrupt processing is complete.
   */ 

  ALT_OS_INT_EXIT();
}
 9404150:	dfc00117 	ldw	ra,4(sp)
 9404154:	dc000017 	ldw	r16,0(sp)
 9404158:	dec00204 	addi	sp,sp,8
 940415c:	f800283a 	ret

09404160 <alt_instruction_exception_entry>:
 * that handler if it has been registered. Absent a handler, it will
 * break break or hang as discussed below.
 */
int 
alt_instruction_exception_entry (alt_u32 exception_pc)
{
 9404160:	200b883a 	mov	r5,r4
 * NIOS2_EXCEPTION_CAUSE_NOT_PRESENT. Your handling routine should
 * check the validity of the cause argument before proceeding.
 */
#ifdef NIOS2_HAS_EXTRA_EXCEPTION_INFO
  /* Get exception cause & "badaddr" */
  NIOS2_READ_EXCEPTION(cause);
 9404164:	000931fa 	rdctl	r4,exception
  cause = ( (cause & NIOS2_EXCEPTION_REG_CAUSE_MASK) >>
              NIOS2_EXCEPTION_REG_CAUSE_OFST );

  NIOS2_READ_BADADDR(badaddr);
 9404168:	000d333a 	rdctl	r6,badaddr
#else
  cause = NIOS2_EXCEPTION_CAUSE_NOT_PRESENT;
  badaddr = 0;
#endif /* NIOS2_HAS_EXTRA_EXCEPTION_INFO */

  if(alt_instruction_exception_handler) {
 940416c:	d0a30b17 	ldw	r2,-29652(gp)
 9404170:	10000326 	beq	r2,zero,9404180 <alt_instruction_exception_entry+0x20>
 * check the validity of the cause argument before proceeding.
 */
#ifdef NIOS2_HAS_EXTRA_EXCEPTION_INFO
  /* Get exception cause & "badaddr" */
  NIOS2_READ_EXCEPTION(cause);
  cause = ( (cause & NIOS2_EXCEPTION_REG_CAUSE_MASK) >>
 9404174:	21001f0c 	andi	r4,r4,124
     * Call handler. Its return value indicates whether the exception-causing
     * instruction should be re-issued. The code that called us,
     * alt_eceptions_entry.S, will look at this value and adjust the ea
     * register as necessary
     */
    return alt_instruction_exception_handler(cause, exception_pc, badaddr);
 9404178:	2008d0ba 	srli	r4,r4,2
 940417c:	1000683a 	jmp	r2
   *    (a peripheral which negates its interrupt output before its
   *    interrupt handler has been executed will cause spurious interrupts)
   */
  else {
#ifdef NIOS2_HAS_DEBUG_STUB
    NIOS2_BREAK();
 9404180:	003da03a 	break	0
#endif /* NIOS2_HAS_DEBUG_STUB */
  }

  /* We should not get here. Remove compiler warning. */
  return NIOS2_EXCEPTION_RETURN_REISSUE_INST;
}
 9404184:	0005883a 	mov	r2,zero
 9404188:	f800283a 	ret

Disassembly of section .text:

0400016c <_start>:

    /* Assume the data cache size is always a power of two. */
#if NIOS2_DCACHE_SIZE > 0x8000
    movhi r2, %hi(NIOS2_DCACHE_SIZE)
#else
    movui r2, NIOS2_DCACHE_SIZE
 400016c:	00820014 	movui	r2,2048
#endif

0:
    initd 0(r2)
 4000170:	10000033 	initd	0(r2)
#ifdef NIOS2_ECC_PRESENT
    addi r2, r2, -4
#else
    addi r2, r2, -NIOS2_DCACHE_LINE_SIZE
 4000174:	10bff804 	addi	r2,r2,-32
#endif
    bgt r2, zero, 0b
 4000178:	00bffd16 	blt	zero,r2,4000170 <__ram_exceptions_end+0xfabfbfe4>

    /*
     * Now that the caches are initialized, set up the stack pointer and global pointer.
     * The values provided by the linker are assumed to be correctly aligned.
     */
    movhi sp, %hi(__alt_stack_pointer)
 400017c:	06c20034 	movhi	sp,2048
    ori sp, sp, %lo(__alt_stack_pointer)
 4000180:	dec00014 	ori	sp,sp,0
    movhi gp, %hi(_gp)
 4000184:	06810034 	movhi	gp,1024
    ori gp, gp, %lo(_gp)
 4000188:	d6b71d14 	ori	gp,gp,56436
 */
#ifndef ALT_SIM_OPTIMIZE
    /* Log that the BSS is about to be cleared. */
    ALT_LOG_PUTS(alt_log_msg_bss)

    movhi r2, %hi(__bss_start)
 400018c:	00810034 	movhi	r2,1024
    ori r2, r2, %lo(__bss_start)
 4000190:	109a1614 	ori	r2,r2,26712

    movhi r3, %hi(__bss_end)
 4000194:	00c10034 	movhi	r3,1024
    ori r3, r3, %lo(__bss_end)
 4000198:	18da8f14 	ori	r3,r3,27196

    beq r2, r3, 1f
 400019c:	10c00326 	beq	r2,r3,40001ac <_start+0x40>

0:
    stw zero, (r2)
 40001a0:	10000015 	stw	zero,0(r2)
    addi r2, r2, 4
 40001a4:	10800104 	addi	r2,r2,4
    bltu r2, r3, 0b
 40001a8:	10fffd36 	bltu	r2,r3,40001a0 <__ram_exceptions_end+0xfabfc014>
     * section aren't defined until alt_load() has been called).
     */
    mov   et, zero
#endif

    call alt_load
 40001ac:	40008d80 	call	40008d8 <alt_load>

    /* Log that alt_main is about to be called. */
    ALT_LOG_PUTS(alt_log_msg_alt_main)

    /* Call the C entry point. It should never return. */
    call alt_main
 40001b0:	40009ec0 	call	40009ec <alt_main>

040001b4 <alt_after_alt_main>:

    /* Wait in infinite loop in case alt_main does return. */
alt_after_alt_main:
    br alt_after_alt_main
 40001b4:	003fff06 	br	40001b4 <__ram_exceptions_end+0xfabfc028>

040001b8 <main>:
  alt_u8 binary_count;
  char input;
  int dir;
  
  // announce that we're running on STDOUT
  alt_printf("\nled_control program starting...\n\n");
 40001b8:	01010034 	movhi	r4,1024

#define MAX_COUNT 0xFF  //use a 8-bit maximum count value since we have a 8-bit LED PIO

// the main() application routine
int main(void)
{
 40001bc:	defffb04 	addi	sp,sp,-20
  alt_u8 binary_count;
  char input;
  int dir;
  
  // announce that we're running on STDOUT
  alt_printf("\nled_control program starting...\n\n");
 40001c0:	21138404 	addi	r4,r4,19984

#define MAX_COUNT 0xFF  //use a 8-bit maximum count value since we have a 8-bit LED PIO

// the main() application routine
int main(void)
{
 40001c4:	dfc00415 	stw	ra,16(sp)
 40001c8:	dcc00315 	stw	r19,12(sp)
 40001cc:	dc800215 	stw	r18,8(sp)
 40001d0:	dc400115 	stw	r17,4(sp)
 40001d4:	dc000015 	stw	r16,0(sp)
  alt_u8 binary_count;
  char input;
  int dir;
  
  // announce that we're running on STDOUT
  alt_printf("\nled_control program starting...\n\n");
 40001d8:	4000a3c0 	call	4000a3c <alt_printf>
  alt_printf ("CONGRATULATIONS!  You have successfully compiled a Nios II project!\n");
 40001dc:	01010034 	movhi	r4,1024
 40001e0:	21138d04 	addi	r4,r4,20020
        alt_printf(" -  counting up by 5\n");
    }
    else {
        dir = 1;
        binary_count = MAX_COUNT;
        alt_printf("INVALID ENTRY");
 40001e4:	04c03fc4 	movi	r19,255
  char input;
  int dir;
  
  // announce that we're running on STDOUT
  alt_printf("\nled_control program starting...\n\n");
  alt_printf ("CONGRATULATIONS!  You have successfully compiled a Nios II project!\n");
 40001e8:	4000a3c0 	call	4000a3c <alt_printf>

  // initialize some peripherals and helper routines
  alarm_init();           // see src/alarm_util.c
 40001ec:	40003980 	call	4000398 <alarm_init>
  
  // start an infinite loop

  while(1) {

    alt_printf("\nPress 'u' to count up\n");
 40001f0:	01010034 	movhi	r4,1024
 40001f4:	21139f04 	addi	r4,r4,20092
 40001f8:	4000a3c0 	call	4000a3c <alt_printf>
    alt_printf("Press 'd' to count down\n");
 40001fc:	01010034 	movhi	r4,1024
 4000200:	2113a504 	addi	r4,r4,20116
 4000204:	4000a3c0 	call	4000a3c <alt_printf>
    alt_printf("Press '3' to count by threes\n");
 4000208:	01010034 	movhi	r4,1024
 400020c:	2113ac04 	addi	r4,r4,20144
 4000210:	4000a3c0 	call	4000a3c <alt_printf>
    alt_printf("Press 't' to count down by ten\n");
 4000214:	01010034 	movhi	r4,1024
 4000218:	2113b404 	addi	r4,r4,20176
 400021c:	4000a3c0 	call	4000a3c <alt_printf>
    alt_printf("Press '5' to count up by 5\n");
 4000220:	01010034 	movhi	r4,1024
 4000224:	2113bc04 	addi	r4,r4,20208
 4000228:	4000a3c0 	call	4000a3c <alt_printf>
    input = alt_getchar();
 400022c:	40008cc0 	call	40008cc <alt_getchar>
 4000230:	1021883a 	mov	r16,r2
    alt_getchar();
    alt_printf("You selected: '%c'\n",input);
 4000234:	84003fcc 	andi	r16,r16,255
    alt_printf("Press 'd' to count down\n");
    alt_printf("Press '3' to count by threes\n");
    alt_printf("Press 't' to count down by ten\n");
    alt_printf("Press '5' to count up by 5\n");
    input = alt_getchar();
    alt_getchar();
 4000238:	40008cc0 	call	40008cc <alt_getchar>
    alt_printf("You selected: '%c'\n",input);
 400023c:	8400201c 	xori	r16,r16,128
 4000240:	01010034 	movhi	r4,1024
 4000244:	843fe004 	addi	r16,r16,-128
 4000248:	2113c304 	addi	r4,r4,20236
 400024c:	800b883a 	mov	r5,r16
 4000250:	4000a3c0 	call	4000a3c <alt_printf>
	if (input == 'u') {
 4000254:	00801d44 	movi	r2,117
 4000258:	80802e26 	beq	r16,r2,4000314 <main+0x15c>
        dir = 1;
    	binary_count = 0;
        alt_printf(" -  counting up by 1\n");
    }
    else if (input == 'd') {
 400025c:	00801904 	movi	r2,100
 4000260:	80803326 	beq	r16,r2,4000330 <main+0x178>
        dir = -1;
    	binary_count = MAX_COUNT;
        alt_printf(" -  counting down by 1\n");
    }
    else if (input == '3') {
 4000264:	00800cc4 	movi	r2,51
 4000268:	80803826 	beq	r16,r2,400034c <main+0x194>
        dir = 3;
    	binary_count = 0;
        alt_printf(" -  counting up by 3\n");
    }
    else if( input == 't'){
 400026c:	00801d04 	movi	r2,116
 4000270:	80803d26 	beq	r16,r2,4000368 <main+0x1b0>
    	dir = -10 ;
    	binary_count = MAX_COUNT ;
        alt_printf(" -  counting down by 10\n");
    }

    else if( input == '5'){
 4000274:	00800d44 	movi	r2,53
 4000278:	80801f26 	beq	r16,r2,40002f8 <main+0x140>
        alt_printf(" -  counting up by 5\n");
    }
    else {
        dir = 1;
        binary_count = MAX_COUNT;
        alt_printf("INVALID ENTRY");
 400027c:	01010034 	movhi	r4,1024
 4000280:	2113e704 	addi	r4,r4,20380
 4000284:	04403fc4 	movi	r17,255
    	dir = 5 ;
    	binary_count = 0 ;
        alt_printf(" -  counting up by 5\n");
    }
    else {
        dir = 1;
 4000288:	04800044 	movi	r18,1
        binary_count = MAX_COUNT;
        alt_printf("INVALID ENTRY");
 400028c:	4000a3c0 	call	4000a3c <alt_printf>
    	binary_count = 0 ;
        alt_printf(" -  counting up by 5\n");
    }
    else {
        dir = 1;
        binary_count = MAX_COUNT;
 4000290:	043fffc4 	movi	r16,-1
        
    // initialize the line wrap count variable
    PRINT_STDIO_WRAP_COUNT = 0;

    // print the binary count out the STDOUT
    print_binary_count_stdio(binary_count);         // see src/jtag_uart_util.c
 4000294:	8809883a 	mov	r4,r17
        binary_count = MAX_COUNT;
        alt_printf("INVALID ENTRY");
    }
        
    // initialize the line wrap count variable
    PRINT_STDIO_WRAP_COUNT = 0;
 4000298:	d0230315 	stw	zero,-29684(gp)

    // print the binary count out the STDOUT
    print_binary_count_stdio(binary_count);         // see src/jtag_uart_util.c
 400029c:	40006040 	call	4000604 <print_binary_count_stdio>

    // update the green led display with the binary count
    update_led(binary_count);                      // see src/led_util.c
 40002a0:	8809883a 	mov	r4,r17
 40002a4:	40006600 	call	4000660 <update_led>

    // wait for the delay period
    delay_wait();                                   // see src/delay_wait.c
 40002a8:	40004cc0 	call	40004cc <delay_wait>

    // count until we reach all the maximum count
    while( (binary_count < MAX_COUNT && dir > 0) || (binary_count > 0 && dir < 0) )
 40002ac:	00000406 	br	40002c0 <main+0x108>
    {
        // increment the binary counter
        binary_count= binary_count + dir;

        // print the binary count out the STDOUT
        print_binary_count_stdio(binary_count);         // see src/jtag_uart_util.c
 40002b0:	40006040 	call	4000604 <print_binary_count_stdio>
            
        // update the green led display with the binary count
        update_led(binary_count);                      // see src/led_util.c
 40002b4:	8809883a 	mov	r4,r17
 40002b8:	40006600 	call	4000660 <update_led>
    
        // wait for the delay period
        delay_wait();                                   // see src/delay_wait.c
 40002bc:	40004cc0 	call	40004cc <delay_wait>
 40002c0:	9405883a 	add	r2,r18,r16
    {
        // increment the binary counter
        binary_count= binary_count + dir;

        // print the binary count out the STDOUT
        print_binary_count_stdio(binary_count);         // see src/jtag_uart_util.c
 40002c4:	14403fcc 	andi	r17,r2,255

    // wait for the delay period
    delay_wait();                                   // see src/delay_wait.c

    // count until we reach all the maximum count
    while( (binary_count < MAX_COUNT && dir > 0) || (binary_count > 0 && dir < 0) )
 40002c8:	80c03fcc 	andi	r3,r16,255
    {
        // increment the binary counter
        binary_count= binary_count + dir;

        // print the binary count out the STDOUT
        print_binary_count_stdio(binary_count);         // see src/jtag_uart_util.c
 40002cc:	8809883a 	mov	r4,r17
 40002d0:	1021883a 	mov	r16,r2

    // wait for the delay period
    delay_wait();                                   // see src/delay_wait.c

    // count until we reach all the maximum count
    while( (binary_count < MAX_COUNT && dir > 0) || (binary_count > 0 && dir < 0) )
 40002d4:	1cc00226 	beq	r3,r19,40002e0 <main+0x128>
 40002d8:	04bff516 	blt	zero,r18,40002b0 <__ram_exceptions_end+0xfabfc124>
 40002dc:	18000126 	beq	r3,zero,40002e4 <main+0x12c>
 40002e0:	903ff316 	blt	r18,zero,40002b0 <__ram_exceptions_end+0xfabfc124>
    
        // wait for the delay period
        delay_wait();                                   // see src/delay_wait.c
    }
    // announce loop completion on STDOUT and the UART
    alt_printf("\n\n LED control program completed its loop ...\n\n");
 40002e4:	01010034 	movhi	r4,1024
 40002e8:	2113eb04 	addi	r4,r4,20396
 40002ec:	4000a3c0 	call	4000a3c <alt_printf>

    // wait for the delay period
    delay_wait();                                   // see src/delay_wait.c
 40002f0:	40004cc0 	call	40004cc <delay_wait>
        
  }
 40002f4:	003fbe06 	br	40001f0 <__ram_exceptions_end+0xfabfc064>
    }

    else if( input == '5'){
    	dir = 5 ;
    	binary_count = 0 ;
        alt_printf(" -  counting up by 5\n");
 40002f8:	01010034 	movhi	r4,1024
 40002fc:	2113e104 	addi	r4,r4,20356
 4000300:	0023883a 	mov	r17,zero
    	binary_count = MAX_COUNT ;
        alt_printf(" -  counting down by 10\n");
    }

    else if( input == '5'){
    	dir = 5 ;
 4000304:	04800144 	movi	r18,5
    	binary_count = 0 ;
        alt_printf(" -  counting up by 5\n");
 4000308:	4000a3c0 	call	4000a3c <alt_printf>
        alt_printf(" -  counting down by 10\n");
    }

    else if( input == '5'){
    	dir = 5 ;
    	binary_count = 0 ;
 400030c:	0021883a 	mov	r16,zero
 4000310:	003fe006 	br	4000294 <__ram_exceptions_end+0xfabfc108>
    alt_getchar();
    alt_printf("You selected: '%c'\n",input);
	if (input == 'u') {
        dir = 1;
    	binary_count = 0;
        alt_printf(" -  counting up by 1\n");
 4000314:	01010034 	movhi	r4,1024
 4000318:	2113c804 	addi	r4,r4,20256
 400031c:	0023883a 	mov	r17,zero
    alt_printf("Press '5' to count up by 5\n");
    input = alt_getchar();
    alt_getchar();
    alt_printf("You selected: '%c'\n",input);
	if (input == 'u') {
        dir = 1;
 4000320:	04800044 	movi	r18,1
    	binary_count = 0;
        alt_printf(" -  counting up by 1\n");
 4000324:	4000a3c0 	call	4000a3c <alt_printf>
    input = alt_getchar();
    alt_getchar();
    alt_printf("You selected: '%c'\n",input);
	if (input == 'u') {
        dir = 1;
    	binary_count = 0;
 4000328:	0021883a 	mov	r16,zero
 400032c:	003fd906 	br	4000294 <__ram_exceptions_end+0xfabfc108>
        alt_printf(" -  counting up by 1\n");
    }
    else if (input == 'd') {
        dir = -1;
    	binary_count = MAX_COUNT;
        alt_printf(" -  counting down by 1\n");
 4000330:	01010034 	movhi	r4,1024
 4000334:	2113ce04 	addi	r4,r4,20280
        dir = 1;
    	binary_count = 0;
        alt_printf(" -  counting up by 1\n");
    }
    else if (input == 'd') {
        dir = -1;
 4000338:	04bfffc4 	movi	r18,-1
 400033c:	04403fc4 	movi	r17,255
    	binary_count = MAX_COUNT;
        alt_printf(" -  counting down by 1\n");
 4000340:	4000a3c0 	call	4000a3c <alt_printf>
    	binary_count = 0;
        alt_printf(" -  counting up by 1\n");
    }
    else if (input == 'd') {
        dir = -1;
    	binary_count = MAX_COUNT;
 4000344:	9021883a 	mov	r16,r18
 4000348:	003fd206 	br	4000294 <__ram_exceptions_end+0xfabfc108>
        alt_printf(" -  counting down by 1\n");
    }
    else if (input == '3') {
        dir = 3;
    	binary_count = 0;
        alt_printf(" -  counting up by 3\n");
 400034c:	01010034 	movhi	r4,1024
 4000350:	2113d404 	addi	r4,r4,20304
 4000354:	0023883a 	mov	r17,zero
        dir = -1;
    	binary_count = MAX_COUNT;
        alt_printf(" -  counting down by 1\n");
    }
    else if (input == '3') {
        dir = 3;
 4000358:	048000c4 	movi	r18,3
    	binary_count = 0;
        alt_printf(" -  counting up by 3\n");
 400035c:	4000a3c0 	call	4000a3c <alt_printf>
    	binary_count = MAX_COUNT;
        alt_printf(" -  counting down by 1\n");
    }
    else if (input == '3') {
        dir = 3;
    	binary_count = 0;
 4000360:	0021883a 	mov	r16,zero
 4000364:	003fcb06 	br	4000294 <__ram_exceptions_end+0xfabfc108>
        alt_printf(" -  counting up by 3\n");
    }
    else if( input == 't'){
    	dir = -10 ;
    	binary_count = MAX_COUNT ;
        alt_printf(" -  counting down by 10\n");
 4000368:	01010034 	movhi	r4,1024
 400036c:	2113da04 	addi	r4,r4,20328
 4000370:	04403fc4 	movi	r17,255
        dir = 3;
    	binary_count = 0;
        alt_printf(" -  counting up by 3\n");
    }
    else if( input == 't'){
    	dir = -10 ;
 4000374:	04bffd84 	movi	r18,-10
    	binary_count = MAX_COUNT ;
        alt_printf(" -  counting down by 10\n");
 4000378:	4000a3c0 	call	4000a3c <alt_printf>
    	binary_count = 0;
        alt_printf(" -  counting up by 3\n");
    }
    else if( input == 't'){
    	dir = -10 ;
    	binary_count = MAX_COUNT ;
 400037c:	043fffc4 	movi	r16,-1
 4000380:	003fc406 	br	4000294 <__ram_exceptions_end+0xfabfc108>

04000384 <my_alarm_callback>:

    // cast the context pointer into our alarm context structure pointer
    my_alarm_context = context;

    // increment the alarm count
    my_alarm_context->alarm_count++;
 4000384:	20800117 	ldw	r2,4(r4)
 4000388:	10800044 	addi	r2,r2,1
 400038c:	20800115 	stw	r2,4(r4)

    // return the timeout value for this alarm
    return (my_alarm_context->alarm_timeout);
 4000390:	20800017 	ldw	r2,0(r4)
}
 4000394:	f800283a 	ret

04000398 <alarm_init>:
void alarm_init(void)
{
    int return_result;

    // initialize the context structure for the 250ms alarm and start it running
    ALARM_250MS_CONTEXT.alarm_timeout = alt_ticks_per_second()/4;
 4000398:	d0a30917 	ldw	r2,-29660(gp)
    ALARM_250MS_CONTEXT.alarm_count = 0;
    return_result = alt_alarm_start (
 400039c:	01810034 	movhi	r6,1024
 40003a0:	01010034 	movhi	r4,1024
void alarm_init(void)
{
    int return_result;

    // initialize the context structure for the 250ms alarm and start it running
    ALARM_250MS_CONTEXT.alarm_timeout = alt_ticks_per_second()/4;
 40003a4:	1004d0ba 	srli	r2,r2,2
alt_alarm ALARM_1MS;
MY_ALARM_STRUCT ALARM_1MS_CONTEXT;

// main() should call this initialization routine when it starts to get the alarms running
void alarm_init(void)
{
 40003a8:	deffff04 	addi	sp,sp,-4
    int return_result;

    // initialize the context structure for the 250ms alarm and start it running
    ALARM_250MS_CONTEXT.alarm_timeout = alt_ticks_per_second()/4;
    ALARM_250MS_CONTEXT.alarm_count = 0;
    return_result = alt_alarm_start (
 40003ac:	3180e104 	addi	r6,r6,900
void alarm_init(void)
{
    int return_result;

    // initialize the context structure for the 250ms alarm and start it running
    ALARM_250MS_CONTEXT.alarm_timeout = alt_ticks_per_second()/4;
 40003b0:	d0a2f915 	stw	r2,-29724(gp)
    ALARM_250MS_CONTEXT.alarm_count = 0;
 40003b4:	d022fa15 	stw	zero,-29720(gp)
    return_result = alt_alarm_start (
 40003b8:	d162f917 	ldw	r5,-29724(gp)
 40003bc:	211a4304 	addi	r4,r4,26892
 40003c0:	d1e2f904 	addi	r7,gp,-29724
alt_alarm ALARM_1MS;
MY_ALARM_STRUCT ALARM_1MS_CONTEXT;

// main() should call this initialization routine when it starts to get the alarms running
void alarm_init(void)
{
 40003c4:	dfc00015 	stw	ra,0(sp)
    int return_result;

    // initialize the context structure for the 250ms alarm and start it running
    ALARM_250MS_CONTEXT.alarm_timeout = alt_ticks_per_second()/4;
    ALARM_250MS_CONTEXT.alarm_count = 0;
    return_result = alt_alarm_start (
 40003c8:	400084c0 	call	400084c <alt_alarm_start>
                        ALARM_250MS_CONTEXT.alarm_timeout,  //alt_u32 nticks
                        my_alarm_callback,                  //alt_u32 (*callback) (void* context)
                        (void*)(&ALARM_250MS_CONTEXT)       //void* context
                    );

    if(return_result)
 40003cc:	10003a1e 	bne	r2,zero,40004b8 <alarm_init+0x120>
        alt_printf("\n\nError when starting 250ms alarm...\n");
        error_loop();
    }

    // initialize the context structure for the 100ms alarm and start it running
    ALARM_100MS_CONTEXT.alarm_timeout = alt_ticks_per_second()/10;
 40003d0:	d1230917 	ldw	r4,-29660(gp)
 40003d4:	01400284 	movi	r5,10
 40003d8:	40007900 	call	4000790 <__udivsi3>
 40003dc:	d0a2fb15 	stw	r2,-29716(gp)
    ALARM_100MS_CONTEXT.alarm_count = 0;
 40003e0:	d022fc15 	stw	zero,-29712(gp)
    return_result = alt_alarm_start (
 40003e4:	d162fb17 	ldw	r5,-29716(gp)
 40003e8:	01810034 	movhi	r6,1024
 40003ec:	01010034 	movhi	r4,1024
 40003f0:	3180e104 	addi	r6,r6,900
 40003f4:	211a3704 	addi	r4,r4,26844
 40003f8:	d1e2fb04 	addi	r7,gp,-29716
 40003fc:	400084c0 	call	400084c <alt_alarm_start>
                        ALARM_100MS_CONTEXT.alarm_timeout,  //alt_u32 nticks
                        my_alarm_callback,                  //alt_u32 (*callback) (void* context)
                        (void*)(&ALARM_100MS_CONTEXT)       //void* context
                    );

    if(return_result)
 4000400:	1000281e 	bne	r2,zero,40004a4 <alarm_init+0x10c>
        alt_printf("\n\nError when starting 100ms alarm...\n");
        error_loop();
    }

    // initialize the context structure for the 10ms alarm and start it running
    ALARM_10MS_CONTEXT.alarm_timeout = alt_ticks_per_second()/100;
 4000404:	d1230917 	ldw	r4,-29660(gp)
 4000408:	01401904 	movi	r5,100
 400040c:	40007900 	call	4000790 <__udivsi3>
 4000410:	d0a2fd15 	stw	r2,-29708(gp)
    ALARM_10MS_CONTEXT.alarm_count = 0;
 4000414:	d022fe15 	stw	zero,-29704(gp)
    return_result = alt_alarm_start (
 4000418:	d162fd17 	ldw	r5,-29708(gp)
 400041c:	01810034 	movhi	r6,1024
 4000420:	01010034 	movhi	r4,1024
 4000424:	3180e104 	addi	r6,r6,900
 4000428:	211a4904 	addi	r4,r4,26916
 400042c:	d1e2fd04 	addi	r7,gp,-29708
 4000430:	400084c0 	call	400084c <alt_alarm_start>
                        ALARM_10MS_CONTEXT.alarm_timeout,   //alt_u32 nticks
                        my_alarm_callback,                  //alt_u32 (*callback) (void* context)
                        (void*)(&ALARM_10MS_CONTEXT)        //void* context
                    );

    if(return_result)
 4000434:	1000161e 	bne	r2,zero,4000490 <alarm_init+0xf8>
        alt_printf("\n\nError when starting 10ms alarm...\n");
        error_loop();
    }

    // initialize the context structure for the 1ms alarm and start it running
    ALARM_1MS_CONTEXT.alarm_timeout = alt_ticks_per_second()/1000;
 4000438:	d1230917 	ldw	r4,-29660(gp)
 400043c:	0140fa04 	movi	r5,1000
 4000440:	40007900 	call	4000790 <__udivsi3>
 4000444:	d0a2ff15 	stw	r2,-29700(gp)
    ALARM_1MS_CONTEXT.alarm_count = 0;
 4000448:	d0230015 	stw	zero,-29696(gp)
    return_result = alt_alarm_start (
 400044c:	d162ff17 	ldw	r5,-29700(gp)
 4000450:	01810034 	movhi	r6,1024
 4000454:	01010034 	movhi	r4,1024
 4000458:	3180e104 	addi	r6,r6,900
 400045c:	211a3d04 	addi	r4,r4,26868
 4000460:	d1e2ff04 	addi	r7,gp,-29700
 4000464:	400084c0 	call	400084c <alt_alarm_start>
                        ALARM_1MS_CONTEXT.alarm_timeout,    //alt_u32 nticks
                        my_alarm_callback,                  //alt_u32 (*callback) (void* context)
                        (void*)(&ALARM_1MS_CONTEXT)         //void* context
                    );

    if(return_result)
 4000468:	1000031e 	bne	r2,zero,4000478 <alarm_init+0xe0>
    {
        alt_printf("\n\nError when starting 1ms alarm...\n");
        error_loop();
    }

}
 400046c:	dfc00017 	ldw	ra,0(sp)
 4000470:	dec00104 	addi	sp,sp,4
 4000474:	f800283a 	ret
                        (void*)(&ALARM_1MS_CONTEXT)         //void* context
                    );

    if(return_result)
    {
        alt_printf("\n\nError when starting 1ms alarm...\n");
 4000478:	01010034 	movhi	r4,1024
 400047c:	21141504 	addi	r4,r4,20564
 4000480:	4000a3c0 	call	4000a3c <alt_printf>
        error_loop();
    }

}
 4000484:	dfc00017 	ldw	ra,0(sp)
 4000488:	dec00104 	addi	sp,sp,4
                    );

    if(return_result)
    {
        alt_printf("\n\nError when starting 1ms alarm...\n");
        error_loop();
 400048c:	40005e01 	jmpi	40005e0 <error_loop>
                        (void*)(&ALARM_10MS_CONTEXT)        //void* context
                    );

    if(return_result)
    {
        alt_printf("\n\nError when starting 10ms alarm...\n");
 4000490:	01010034 	movhi	r4,1024
 4000494:	21140b04 	addi	r4,r4,20524
 4000498:	4000a3c0 	call	4000a3c <alt_printf>
        error_loop();
 400049c:	40005e00 	call	40005e0 <error_loop>
 40004a0:	003fe506 	br	4000438 <__ram_exceptions_end+0xfabfc2ac>
                        (void*)(&ALARM_100MS_CONTEXT)       //void* context
                    );

    if(return_result)
    {
        alt_printf("\n\nError when starting 100ms alarm...\n");
 40004a4:	01010034 	movhi	r4,1024
 40004a8:	21140104 	addi	r4,r4,20484
 40004ac:	4000a3c0 	call	4000a3c <alt_printf>
        error_loop();
 40004b0:	40005e00 	call	40005e0 <error_loop>
 40004b4:	003fd306 	br	4000404 <__ram_exceptions_end+0xfabfc278>
                        (void*)(&ALARM_250MS_CONTEXT)       //void* context
                    );

    if(return_result)
    {
        alt_printf("\n\nError when starting 250ms alarm...\n");
 40004b8:	01010034 	movhi	r4,1024
 40004bc:	2113f704 	addi	r4,r4,20444
 40004c0:	4000a3c0 	call	4000a3c <alt_printf>
        error_loop();
 40004c4:	40005e00 	call	40005e0 <error_loop>
 40004c8:	003fc106 	br	40003d0 <__ram_exceptions_end+0xfabfc244>

040004cc <delay_wait>:
volatile alt_u32 LAST_DELAY = 0;
volatile alt_u8  DELAY_MODE = DELAY_MODE_100MS;

// the main() loop can call this routine to delay based on the current delay mode
void delay_wait(void)
{
 40004cc:	defffa04 	addi	sp,sp,-24
 40004d0:	dc000015 	stw	r16,0(sp)
    alt_u32 this_delay = LAST_DELAY;
 40004d4:	d4230117 	ldw	r16,-29692(gp)

    if(DELAY_MODE != DELAY_MODE_NONE)
 40004d8:	d0a00003 	ldbu	r2,-32768(gp)
volatile alt_u32 LAST_DELAY = 0;
volatile alt_u8  DELAY_MODE = DELAY_MODE_100MS;

// the main() loop can call this routine to delay based on the current delay mode
void delay_wait(void)
{
 40004dc:	dfc00515 	stw	ra,20(sp)
 40004e0:	dd000415 	stw	r20,16(sp)
 40004e4:	dcc00315 	stw	r19,12(sp)
 40004e8:	dc800215 	stw	r18,8(sp)
 40004ec:	dc400115 	stw	r17,4(sp)
    alt_u32 this_delay = LAST_DELAY;

    if(DELAY_MODE != DELAY_MODE_NONE)
 40004f0:	10803fcc 	andi	r2,r2,255
 40004f4:	10001326 	beq	r2,zero,4000544 <delay_wait+0x78>
    {
        do      // wait until we see the proper delay count increment
        {
            switch(DELAY_MODE)
 40004f8:	04400084 	movi	r17,2
 40004fc:	048000c4 	movi	r18,3
 4000500:	05000104 	movi	r20,4
 4000504:	04c00044 	movi	r19,1
 4000508:	00000506 	br	4000520 <delay_wait+0x54>
 400050c:	14801c26 	beq	r2,r18,4000580 <delay_wait+0xb4>
 4000510:	1500161e 	bne	r2,r20,400056c <delay_wait+0xa0>
            {
                case(DELAY_MODE_250MS):
                    this_delay = ALARM_250MS_CONTEXT.alarm_count;
 4000514:	d422fa17 	ldw	r16,-29720(gp)
                    break;
                default:
                    alt_printf("Error: invalid delay mode detected...\n");
                    error_loop();
            }
        } while(LAST_DELAY == this_delay);
 4000518:	d0a30117 	ldw	r2,-29692(gp)
 400051c:	8080081e 	bne	r16,r2,4000540 <delay_wait+0x74>

    if(DELAY_MODE != DELAY_MODE_NONE)
    {
        do      // wait until we see the proper delay count increment
        {
            switch(DELAY_MODE)
 4000520:	d0a00003 	ldbu	r2,-32768(gp)
 4000524:	10803fcc 	andi	r2,r2,255
 4000528:	14400e26 	beq	r2,r17,4000564 <delay_wait+0x98>
 400052c:	88bff736 	bltu	r17,r2,400050c <__ram_exceptions_end+0xfabfc380>
 4000530:	14c00e1e 	bne	r2,r19,400056c <delay_wait+0xa0>
                    break;
                case(DELAY_MODE_10MS):
                    this_delay = ALARM_10MS_CONTEXT.alarm_count;
                    break;
                case(DELAY_MODE_1MS):
                    this_delay = ALARM_1MS_CONTEXT.alarm_count;
 4000534:	d4230017 	ldw	r16,-29696(gp)
                    break;
                default:
                    alt_printf("Error: invalid delay mode detected...\n");
                    error_loop();
            }
        } while(LAST_DELAY == this_delay);
 4000538:	d0a30117 	ldw	r2,-29692(gp)
 400053c:	80bff826 	beq	r16,r2,4000520 <__ram_exceptions_end+0xfabfc394>

        LAST_DELAY = this_delay;
 4000540:	d4230115 	stw	r16,-29692(gp)
    }

}
 4000544:	dfc00517 	ldw	ra,20(sp)
 4000548:	dd000417 	ldw	r20,16(sp)
 400054c:	dcc00317 	ldw	r19,12(sp)
 4000550:	dc800217 	ldw	r18,8(sp)
 4000554:	dc400117 	ldw	r17,4(sp)
 4000558:	dc000017 	ldw	r16,0(sp)
 400055c:	dec00604 	addi	sp,sp,24
 4000560:	f800283a 	ret
                    break;
                case(DELAY_MODE_100MS):
                    this_delay = ALARM_100MS_CONTEXT.alarm_count;
                    break;
                case(DELAY_MODE_10MS):
                    this_delay = ALARM_10MS_CONTEXT.alarm_count;
 4000564:	d422fe17 	ldw	r16,-29704(gp)
                    break;
 4000568:	003feb06 	br	4000518 <__ram_exceptions_end+0xfabfc38c>
                case(DELAY_MODE_1MS):
                    this_delay = ALARM_1MS_CONTEXT.alarm_count;
                    break;
                default:
                    alt_printf("Error: invalid delay mode detected...\n");
 400056c:	01010034 	movhi	r4,1024
 4000570:	21141e04 	addi	r4,r4,20600
 4000574:	4000a3c0 	call	4000a3c <alt_printf>
                    error_loop();
 4000578:	40005e00 	call	40005e0 <error_loop>
 400057c:	003fe606 	br	4000518 <__ram_exceptions_end+0xfabfc38c>
            {
                case(DELAY_MODE_250MS):
                    this_delay = ALARM_250MS_CONTEXT.alarm_count;
                    break;
                case(DELAY_MODE_100MS):
                    this_delay = ALARM_100MS_CONTEXT.alarm_count;
 4000580:	d422fc17 	ldw	r16,-29712(gp)
                    break;
 4000584:	003fe406 	br	4000518 <__ram_exceptions_end+0xfabfc38c>

04000588 <set_delay_mode_250ms>:
}

// these are convenience routines for setting the delay modes
void set_delay_mode_250ms(void)
{
   DELAY_MODE = DELAY_MODE_250MS;
 4000588:	00800104 	movi	r2,4
 400058c:	d0a00005 	stb	r2,-32768(gp)
   LAST_DELAY = ALARM_250MS_CONTEXT.alarm_count;
 4000590:	d0a2fa17 	ldw	r2,-29720(gp)
 4000594:	d0a30115 	stw	r2,-29692(gp)
 4000598:	f800283a 	ret

0400059c <set_delay_mode_100ms>:
}

void set_delay_mode_100ms(void)
{
   DELAY_MODE = DELAY_MODE_100MS;
 400059c:	008000c4 	movi	r2,3
 40005a0:	d0a00005 	stb	r2,-32768(gp)
   LAST_DELAY = ALARM_100MS_CONTEXT.alarm_count;
 40005a4:	d0a2fc17 	ldw	r2,-29712(gp)
 40005a8:	d0a30115 	stw	r2,-29692(gp)
 40005ac:	f800283a 	ret

040005b0 <set_delay_mode_10ms>:
}

void set_delay_mode_10ms(void)
{
   DELAY_MODE = DELAY_MODE_10MS;
 40005b0:	00800084 	movi	r2,2
 40005b4:	d0a00005 	stb	r2,-32768(gp)
   LAST_DELAY = ALARM_10MS_CONTEXT.alarm_count;
 40005b8:	d0a2fe17 	ldw	r2,-29704(gp)
 40005bc:	d0a30115 	stw	r2,-29692(gp)
 40005c0:	f800283a 	ret

040005c4 <set_delay_mode_1ms>:
}

void set_delay_mode_1ms(void)
{
   DELAY_MODE = DELAY_MODE_1MS;
 40005c4:	00800044 	movi	r2,1
 40005c8:	d0a00005 	stb	r2,-32768(gp)
   LAST_DELAY = ALARM_1MS_CONTEXT.alarm_count;
 40005cc:	d0a30017 	ldw	r2,-29696(gp)
 40005d0:	d0a30115 	stw	r2,-29692(gp)
 40005d4:	f800283a 	ret

040005d8 <set_delay_mode_none>:
}

void set_delay_mode_none(void)
{
   DELAY_MODE = DELAY_MODE_NONE;
 40005d8:	d0200005 	stb	zero,-32768(gp)
 40005dc:	f800283a 	ret

040005e0 <error_loop>:

// any non-recoverable errors that are detected in the application can jump to here
void error_loop(void)
{
    // indicate that we got into the error loop
    alt_printf("\nError loop entered...\n");
 40005e0:	01010034 	movhi	r4,1024

#include "../inc/main_includes.h"

// any non-recoverable errors that are detected in the application can jump to here
void error_loop(void)
{
 40005e4:	deffff04 	addi	sp,sp,-4
    // indicate that we got into the error loop
    alt_printf("\nError loop entered...\n");
 40005e8:	21142804 	addi	r4,r4,20640

#include "../inc/main_includes.h"

// any non-recoverable errors that are detected in the application can jump to here
void error_loop(void)
{
 40005ec:	dfc00015 	stw	ra,0(sp)
    // indicate that we got into the error loop
    alt_printf("\nError loop entered...\n");
 40005f0:	4000a3c0 	call	4000a3c <alt_printf>
    alt_printf("\nApplication halted...\n");
 40005f4:	01010034 	movhi	r4,1024
 40005f8:	21142e04 	addi	r4,r4,20664
 40005fc:	4000a3c0 	call	4000a3c <alt_printf>
 4000600:	003fff06 	br	4000600 <__ram_exceptions_end+0xfabfc474>

04000604 <print_binary_count_stdio>:

// this routine is called by the main() loop
void print_binary_count_stdio(alt_u16 binary_count)
{
    // print if we aren't masked off
    if(!PRINT_STDIO_MASK)
 4000604:	d0a30217 	ldw	r2,-29688(gp)
 4000608:	10000126 	beq	r2,zero,4000610 <print_binary_count_stdio+0xc>
        {
            alt_printf("\n");
            PRINT_STDIO_WRAP_COUNT = 0;
        }
    }
}
 400060c:	f800283a 	ret
 4000610:	200b883a 	mov	r5,r4
{
    // print if we aren't masked off
    if(!PRINT_STDIO_MASK)
    {
        // print the binary count
        alt_printf("0x%x ", binary_count);
 4000614:	01010034 	movhi	r4,1024
volatile int PRINT_STDIO_WRAP_COUNT = 0;
volatile int PRINT_STDIO_MASK = 0;

// this routine is called by the main() loop
void print_binary_count_stdio(alt_u16 binary_count)
{
 4000618:	deffff04 	addi	sp,sp,-4
    // print if we aren't masked off
    if(!PRINT_STDIO_MASK)
    {
        // print the binary count
        alt_printf("0x%x ", binary_count);
 400061c:	21143404 	addi	r4,r4,20688
 4000620:	297fffcc 	andi	r5,r5,65535
volatile int PRINT_STDIO_WRAP_COUNT = 0;
volatile int PRINT_STDIO_MASK = 0;

// this routine is called by the main() loop
void print_binary_count_stdio(alt_u16 binary_count)
{
 4000624:	dfc00015 	stw	ra,0(sp)
    // print if we aren't masked off
    if(!PRINT_STDIO_MASK)
    {
        // print the binary count
        alt_printf("0x%x ", binary_count);
 4000628:	4000a3c0 	call	4000a3c <alt_printf>

        // print a new line character after every 16 prints
        PRINT_STDIO_WRAP_COUNT++;
 400062c:	d0a30317 	ldw	r2,-29684(gp)
        if(PRINT_STDIO_WRAP_COUNT >= 16)
 4000630:	00c003c4 	movi	r3,15
    {
        // print the binary count
        alt_printf("0x%x ", binary_count);

        // print a new line character after every 16 prints
        PRINT_STDIO_WRAP_COUNT++;
 4000634:	10800044 	addi	r2,r2,1
 4000638:	d0a30315 	stw	r2,-29684(gp)
        if(PRINT_STDIO_WRAP_COUNT >= 16)
 400063c:	d0a30317 	ldw	r2,-29684(gp)
 4000640:	1880040e 	bge	r3,r2,4000654 <print_binary_count_stdio+0x50>
        {
            alt_printf("\n");
 4000644:	01010034 	movhi	r4,1024
 4000648:	21140a04 	addi	r4,r4,20520
 400064c:	4000a3c0 	call	4000a3c <alt_printf>
            PRINT_STDIO_WRAP_COUNT = 0;
 4000650:	d0230315 	stw	zero,-29684(gp)
        }
    }
}
 4000654:	dfc00017 	ldw	ra,0(sp)
 4000658:	dec00104 	addi	sp,sp,4
 400065c:	f800283a 	ret

04000660 <update_led>:
volatile alt_u8  LED_MASK = 0;

// convenience routine for updating the bank of leds
void update_led(alt_u8 display_value)
{
			display_value = ~display_value;
 4000660:	0108303a 	nor	r4,zero,r4
            LED_STATE = display_value & 0xFF;
 4000664:	d1230445 	stb	r4,-29679(gp)
            LED_STATE &= ~LED_MASK;
 4000668:	d0a30403 	ldbu	r2,-29680(gp)
 400066c:	d0e30443 	ldbu	r3,-29679(gp)
 4000670:	10803fcc 	andi	r2,r2,255
 4000674:	0084303a 	nor	r2,zero,r2
 4000678:	10c4703a 	and	r2,r2,r3
 400067c:	d0a30445 	stb	r2,-29679(gp)
            IOWR_ALTERA_AVALON_PIO_DATA(LED_PIO_BASE, LED_STATE);
 4000680:	d0a30443 	ldbu	r2,-29679(gp)
 4000684:	00c20034 	movhi	r3,2048
 4000688:	18c00c04 	addi	r3,r3,48
 400068c:	10803fcc 	andi	r2,r2,255
 4000690:	18800035 	stwio	r2,0(r3)
 4000694:	f800283a 	ret

04000698 <__divsi3>:
 4000698:	20001b16 	blt	r4,zero,4000708 <__divsi3+0x70>
 400069c:	000f883a 	mov	r7,zero
 40006a0:	28001616 	blt	r5,zero,40006fc <__divsi3+0x64>
 40006a4:	200d883a 	mov	r6,r4
 40006a8:	29001a2e 	bgeu	r5,r4,4000714 <__divsi3+0x7c>
 40006ac:	00800804 	movi	r2,32
 40006b0:	00c00044 	movi	r3,1
 40006b4:	00000106 	br	40006bc <__divsi3+0x24>
 40006b8:	10000d26 	beq	r2,zero,40006f0 <__divsi3+0x58>
 40006bc:	294b883a 	add	r5,r5,r5
 40006c0:	10bfffc4 	addi	r2,r2,-1
 40006c4:	18c7883a 	add	r3,r3,r3
 40006c8:	293ffb36 	bltu	r5,r4,40006b8 <__ram_exceptions_end+0xfabfc52c>
 40006cc:	0005883a 	mov	r2,zero
 40006d0:	18000726 	beq	r3,zero,40006f0 <__divsi3+0x58>
 40006d4:	0005883a 	mov	r2,zero
 40006d8:	31400236 	bltu	r6,r5,40006e4 <__divsi3+0x4c>
 40006dc:	314dc83a 	sub	r6,r6,r5
 40006e0:	10c4b03a 	or	r2,r2,r3
 40006e4:	1806d07a 	srli	r3,r3,1
 40006e8:	280ad07a 	srli	r5,r5,1
 40006ec:	183ffa1e 	bne	r3,zero,40006d8 <__ram_exceptions_end+0xfabfc54c>
 40006f0:	38000126 	beq	r7,zero,40006f8 <__divsi3+0x60>
 40006f4:	0085c83a 	sub	r2,zero,r2
 40006f8:	f800283a 	ret
 40006fc:	014bc83a 	sub	r5,zero,r5
 4000700:	39c0005c 	xori	r7,r7,1
 4000704:	003fe706 	br	40006a4 <__ram_exceptions_end+0xfabfc518>
 4000708:	0109c83a 	sub	r4,zero,r4
 400070c:	01c00044 	movi	r7,1
 4000710:	003fe306 	br	40006a0 <__ram_exceptions_end+0xfabfc514>
 4000714:	00c00044 	movi	r3,1
 4000718:	003fee06 	br	40006d4 <__ram_exceptions_end+0xfabfc548>

0400071c <__modsi3>:
 400071c:	20001716 	blt	r4,zero,400077c <__modsi3+0x60>
 4000720:	000f883a 	mov	r7,zero
 4000724:	2005883a 	mov	r2,r4
 4000728:	28001216 	blt	r5,zero,4000774 <__modsi3+0x58>
 400072c:	2900162e 	bgeu	r5,r4,4000788 <__modsi3+0x6c>
 4000730:	01800804 	movi	r6,32
 4000734:	00c00044 	movi	r3,1
 4000738:	00000106 	br	4000740 <__modsi3+0x24>
 400073c:	30000a26 	beq	r6,zero,4000768 <__modsi3+0x4c>
 4000740:	294b883a 	add	r5,r5,r5
 4000744:	31bfffc4 	addi	r6,r6,-1
 4000748:	18c7883a 	add	r3,r3,r3
 400074c:	293ffb36 	bltu	r5,r4,400073c <__ram_exceptions_end+0xfabfc5b0>
 4000750:	18000526 	beq	r3,zero,4000768 <__modsi3+0x4c>
 4000754:	1806d07a 	srli	r3,r3,1
 4000758:	11400136 	bltu	r2,r5,4000760 <__modsi3+0x44>
 400075c:	1145c83a 	sub	r2,r2,r5
 4000760:	280ad07a 	srli	r5,r5,1
 4000764:	183ffb1e 	bne	r3,zero,4000754 <__ram_exceptions_end+0xfabfc5c8>
 4000768:	38000126 	beq	r7,zero,4000770 <__modsi3+0x54>
 400076c:	0085c83a 	sub	r2,zero,r2
 4000770:	f800283a 	ret
 4000774:	014bc83a 	sub	r5,zero,r5
 4000778:	003fec06 	br	400072c <__ram_exceptions_end+0xfabfc5a0>
 400077c:	0109c83a 	sub	r4,zero,r4
 4000780:	01c00044 	movi	r7,1
 4000784:	003fe706 	br	4000724 <__ram_exceptions_end+0xfabfc598>
 4000788:	00c00044 	movi	r3,1
 400078c:	003ff106 	br	4000754 <__ram_exceptions_end+0xfabfc5c8>

04000790 <__udivsi3>:
 4000790:	200d883a 	mov	r6,r4
 4000794:	2900152e 	bgeu	r5,r4,40007ec <__udivsi3+0x5c>
 4000798:	28001416 	blt	r5,zero,40007ec <__udivsi3+0x5c>
 400079c:	00800804 	movi	r2,32
 40007a0:	00c00044 	movi	r3,1
 40007a4:	00000206 	br	40007b0 <__udivsi3+0x20>
 40007a8:	10000e26 	beq	r2,zero,40007e4 <__udivsi3+0x54>
 40007ac:	28000516 	blt	r5,zero,40007c4 <__udivsi3+0x34>
 40007b0:	294b883a 	add	r5,r5,r5
 40007b4:	10bfffc4 	addi	r2,r2,-1
 40007b8:	18c7883a 	add	r3,r3,r3
 40007bc:	293ffa36 	bltu	r5,r4,40007a8 <__ram_exceptions_end+0xfabfc61c>
 40007c0:	18000826 	beq	r3,zero,40007e4 <__udivsi3+0x54>
 40007c4:	0005883a 	mov	r2,zero
 40007c8:	31400236 	bltu	r6,r5,40007d4 <__udivsi3+0x44>
 40007cc:	314dc83a 	sub	r6,r6,r5
 40007d0:	10c4b03a 	or	r2,r2,r3
 40007d4:	1806d07a 	srli	r3,r3,1
 40007d8:	280ad07a 	srli	r5,r5,1
 40007dc:	183ffa1e 	bne	r3,zero,40007c8 <__ram_exceptions_end+0xfabfc63c>
 40007e0:	f800283a 	ret
 40007e4:	0005883a 	mov	r2,zero
 40007e8:	f800283a 	ret
 40007ec:	00c00044 	movi	r3,1
 40007f0:	003ff406 	br	40007c4 <__ram_exceptions_end+0xfabfc638>

040007f4 <__umodsi3>:
 40007f4:	2005883a 	mov	r2,r4
 40007f8:	2900122e 	bgeu	r5,r4,4000844 <__umodsi3+0x50>
 40007fc:	28001116 	blt	r5,zero,4000844 <__umodsi3+0x50>
 4000800:	01800804 	movi	r6,32
 4000804:	00c00044 	movi	r3,1
 4000808:	00000206 	br	4000814 <__umodsi3+0x20>
 400080c:	30000c26 	beq	r6,zero,4000840 <__umodsi3+0x4c>
 4000810:	28000516 	blt	r5,zero,4000828 <__umodsi3+0x34>
 4000814:	294b883a 	add	r5,r5,r5
 4000818:	31bfffc4 	addi	r6,r6,-1
 400081c:	18c7883a 	add	r3,r3,r3
 4000820:	293ffa36 	bltu	r5,r4,400080c <__ram_exceptions_end+0xfabfc680>
 4000824:	18000626 	beq	r3,zero,4000840 <__umodsi3+0x4c>
 4000828:	1806d07a 	srli	r3,r3,1
 400082c:	11400136 	bltu	r2,r5,4000834 <__umodsi3+0x40>
 4000830:	1145c83a 	sub	r2,r2,r5
 4000834:	280ad07a 	srli	r5,r5,1
 4000838:	183ffb1e 	bne	r3,zero,4000828 <__ram_exceptions_end+0xfabfc69c>
 400083c:	f800283a 	ret
 4000840:	f800283a 	ret
 4000844:	00c00044 	movi	r3,1
 4000848:	003ff706 	br	4000828 <__ram_exceptions_end+0xfabfc69c>

0400084c <alt_alarm_start>:
                     void* context)
{
  alt_irq_context irq_context;
  alt_u32 current_nticks = 0;
  
  if (alt_ticks_per_second ())
 400084c:	d0a30917 	ldw	r2,-29660(gp)
 4000850:	10001a26 	beq	r2,zero,40008bc <alt_alarm_start+0x70>
  {
    if (alarm)
 4000854:	20001b26 	beq	r4,zero,40008c4 <alt_alarm_start+0x78>
    {
      alarm->callback = callback;
 4000858:	21800315 	stw	r6,12(r4)
      alarm->context  = context;
 400085c:	21c00515 	stw	r7,20(r4)
static ALT_INLINE alt_irq_context ALT_ALWAYS_INLINE 
       alt_irq_disable_all (void)
{
  alt_irq_context context;

  NIOS2_READ_STATUS (context);
 4000860:	0007303a 	rdctl	r3,status

  NIOS2_WRITE_STATUS (context & ~NIOS2_STATUS_PIE_MSK);
 4000864:	00bfff84 	movi	r2,-2
 4000868:	1884703a 	and	r2,r3,r2
 400086c:	1001703a 	wrctl	status,r2
 * alt_nticks() returns the elapsed number of system clock ticks since reset.
 */

static ALT_INLINE alt_u32 ALT_ALWAYS_INLINE alt_nticks (void)
{
  return _alt_nticks;
 4000870:	d0a30817 	ldw	r2,-29664(gp)
 
      irq_context = alt_irq_disable_all ();
      
      current_nticks = alt_nticks();
      
      alarm->time = nticks + current_nticks + 1; 
 4000874:	11800044 	addi	r6,r2,1
 4000878:	314b883a 	add	r5,r6,r5
 400087c:	21400215 	stw	r5,8(r4)
      /* 
       * If the desired alarm time causes a roll-over, set the rollover
       * flag. This will prevent the subsequent tick event from causing
       * an alarm too early.
       */
      if(alarm->time < current_nticks)
 4000880:	28800b36 	bltu	r5,r2,40008b0 <alt_alarm_start+0x64>
      {
        alarm->rollover = 1;
      }
      else
      {
        alarm->rollover = 0;
 4000884:	20000405 	stb	zero,16(r4)
 */

static ALT_INLINE void ALT_ALWAYS_INLINE alt_llist_insert(alt_llist* list, 
                alt_llist* entry)
{
  entry->previous = list;
 4000888:	d0a00104 	addi	r2,gp,-32764
 400088c:	20800115 	stw	r2,4(r4)
  entry->next     = list->next;
 4000890:	d0a00117 	ldw	r2,-32764(gp)
 4000894:	20800015 	stw	r2,0(r4)

  list->next->previous = entry;
 4000898:	d0a00117 	ldw	r2,-32764(gp)
  list->next           = entry;
 400089c:	d1200115 	stw	r4,-32764(gp)
                alt_llist* entry)
{
  entry->previous = list;
  entry->next     = list->next;

  list->next->previous = entry;
 40008a0:	11000115 	stw	r4,4(r2)
  status &= ~NIOS2_STATUS_PIE_MSK;
  status |= (context & NIOS2_STATUS_PIE_MSK);
  
  NIOS2_WRITE_STATUS (status);
#else
  NIOS2_WRITE_STATUS (context);
 40008a4:	1801703a 	wrctl	status,r3
      }
    
      alt_llist_insert (&alt_alarm_list, &alarm->llist);
      alt_irq_enable_all (irq_context);

      return 0;
 40008a8:	0005883a 	mov	r2,zero
 40008ac:	f800283a 	ret
       * flag. This will prevent the subsequent tick event from causing
       * an alarm too early.
       */
      if(alarm->time < current_nticks)
      {
        alarm->rollover = 1;
 40008b0:	00800044 	movi	r2,1
 40008b4:	20800405 	stb	r2,16(r4)
 40008b8:	003ff306 	br	4000888 <__ram_exceptions_end+0xfabfc6fc>
      return -EINVAL;
    }
  }
  else
  {
    return -ENOTSUP;
 40008bc:	00bfde84 	movi	r2,-134
 40008c0:	f800283a 	ret

      return 0;
    }
    else
    {
      return -EINVAL;
 40008c4:	00bffa84 	movi	r2,-22
  }
  else
  {
    return -ENOTSUP;
  }
}
 40008c8:	f800283a 	ret

040008cc <alt_getchar>:
    if (ALT_DRIVER_READ(ALT_STDIN_DEV, &c, 1, alt_fd_list[STDIN_FILENO].fd_flags) <= 0) {
        return -1;
    }
    return c;
#else
    return getchar();
 40008cc:	d0a01117 	ldw	r2,-32700(gp)
 40008d0:	11000117 	ldw	r4,4(r2)
 40008d4:	40024081 	jmpi	4002408 <getc>

040008d8 <alt_load>:
 * there is no bootloader, so this application is responsible for loading to
 * RAM any sections that are required.
 */  

void alt_load (void)
{
 40008d8:	deffff04 	addi	sp,sp,-4

static void ALT_INLINE alt_load_section (alt_u32* from, 
                                         alt_u32* to, 
                                         alt_u32* end)
{
  if (to != from)
 40008dc:	01810034 	movhi	r6,1024
 40008e0:	01c10034 	movhi	r7,1024
 40008e4:	dfc00015 	stw	ra,0(sp)
 40008e8:	31944e04 	addi	r6,r6,20792
 40008ec:	39d73204 	addi	r7,r7,23752
 40008f0:	31c01026 	beq	r6,r7,4000934 <alt_load+0x5c>
  {
    while( to != end )
 40008f4:	00810034 	movhi	r2,1024
 40008f8:	10973204 	addi	r2,r2,23752
 40008fc:	30800d26 	beq	r6,r2,4000934 <alt_load+0x5c>
 4000900:	30c00104 	addi	r3,r6,4
 4000904:	10c7c83a 	sub	r3,r2,r3
 4000908:	1806d0ba 	srli	r3,r3,2
 400090c:	0005883a 	mov	r2,zero
 4000910:	18c00044 	addi	r3,r3,1
 4000914:	18c7883a 	add	r3,r3,r3
 4000918:	18c7883a 	add	r3,r3,r3
    {
      *to++ = *from++;
 400091c:	11c9883a 	add	r4,r2,r7
 4000920:	21400017 	ldw	r5,0(r4)
 4000924:	1189883a 	add	r4,r2,r6
 4000928:	10800104 	addi	r2,r2,4
 400092c:	21400015 	stw	r5,0(r4)
                                         alt_u32* to, 
                                         alt_u32* end)
{
  if (to != from)
  {
    while( to != end )
 4000930:	10fffa1e 	bne	r2,r3,400091c <__ram_exceptions_end+0xfabfc790>

static void ALT_INLINE alt_load_section (alt_u32* from, 
                                         alt_u32* to, 
                                         alt_u32* end)
{
  if (to != from)
 4000934:	01825034 	movhi	r6,2368
 4000938:	01c10034 	movhi	r7,1024
 400093c:	31900804 	addi	r6,r6,16416
 4000940:	39c00004 	addi	r7,r7,0
 4000944:	31c01026 	beq	r6,r7,4000988 <alt_load+0xb0>
  {
    while( to != end )
 4000948:	00825034 	movhi	r2,2368
 400094c:	10906304 	addi	r2,r2,16780
 4000950:	30800d26 	beq	r6,r2,4000988 <alt_load+0xb0>
 4000954:	30c00104 	addi	r3,r6,4
 4000958:	10c7c83a 	sub	r3,r2,r3
 400095c:	1806d0ba 	srli	r3,r3,2
 4000960:	0005883a 	mov	r2,zero
 4000964:	18c00044 	addi	r3,r3,1
 4000968:	18c7883a 	add	r3,r3,r3
 400096c:	18c7883a 	add	r3,r3,r3
    {
      *to++ = *from++;
 4000970:	11c9883a 	add	r4,r2,r7
 4000974:	21400017 	ldw	r5,0(r4)
 4000978:	1189883a 	add	r4,r2,r6
 400097c:	10800104 	addi	r2,r2,4
 4000980:	21400015 	stw	r5,0(r4)
                                         alt_u32* to, 
                                         alt_u32* end)
{
  if (to != from)
  {
    while( to != end )
 4000984:	18bffa1e 	bne	r3,r2,4000970 <__ram_exceptions_end+0xfabfc7e4>

static void ALT_INLINE alt_load_section (alt_u32* from, 
                                         alt_u32* to, 
                                         alt_u32* end)
{
  if (to != from)
 4000988:	01810034 	movhi	r6,1024
 400098c:	01c10034 	movhi	r7,1024
 4000990:	31938404 	addi	r6,r6,19984
 4000994:	39d38404 	addi	r7,r7,19984
 4000998:	31c01026 	beq	r6,r7,40009dc <alt_load+0x104>
  {
    while( to != end )
 400099c:	00810034 	movhi	r2,1024
 40009a0:	10944e04 	addi	r2,r2,20792
 40009a4:	30800d26 	beq	r6,r2,40009dc <alt_load+0x104>
 40009a8:	30c00104 	addi	r3,r6,4
 40009ac:	10c7c83a 	sub	r3,r2,r3
 40009b0:	1806d0ba 	srli	r3,r3,2
 40009b4:	0005883a 	mov	r2,zero
 40009b8:	18c00044 	addi	r3,r3,1
 40009bc:	18c7883a 	add	r3,r3,r3
 40009c0:	18c7883a 	add	r3,r3,r3
    {
      *to++ = *from++;
 40009c4:	11c9883a 	add	r4,r2,r7
 40009c8:	21400017 	ldw	r5,0(r4)
 40009cc:	1189883a 	add	r4,r2,r6
 40009d0:	10800104 	addi	r2,r2,4
 40009d4:	21400015 	stw	r5,0(r4)
                                         alt_u32* to, 
                                         alt_u32* end)
{
  if (to != from)
  {
    while( to != end )
 40009d8:	10fffa1e 	bne	r2,r3,40009c4 <__ram_exceptions_end+0xfabfc838>
  
  /*
   * Now ensure that the caches are in synch.
   */
  
  alt_dcache_flush_all();
 40009dc:	4001cac0 	call	4001cac <alt_dcache_flush_all>
  alt_icache_flush_all();
}
 40009e0:	dfc00017 	ldw	ra,0(sp)
 40009e4:	dec00104 	addi	sp,sp,4
  /*
   * Now ensure that the caches are in synch.
   */
  
  alt_dcache_flush_all();
  alt_icache_flush_all();
 40009e8:	4001e141 	jmpi	4001e14 <alt_icache_flush_all>

040009ec <alt_main>:
 * devices/filesystems/components in the system; and call the entry point for
 * the users application, i.e. main().
 */

void alt_main (void)
{
 40009ec:	defffe04 	addi	sp,sp,-8
#endif

  /* ALT LOG - please see HAL/sys/alt_log_printf.h for details */
  ALT_LOG_PRINT_BOOT("[alt_main.c] Entering alt_main, calling alt_irq_init.\r\n");
  /* Initialize the interrupt controller. */
  alt_irq_init (NULL);
 40009f0:	0009883a 	mov	r4,zero
 * devices/filesystems/components in the system; and call the entry point for
 * the users application, i.e. main().
 */

void alt_main (void)
{
 40009f4:	dfc00115 	stw	ra,4(sp)
 40009f8:	dc000015 	stw	r16,0(sp)
#endif

  /* ALT LOG - please see HAL/sys/alt_log_printf.h for details */
  ALT_LOG_PRINT_BOOT("[alt_main.c] Entering alt_main, calling alt_irq_init.\r\n");
  /* Initialize the interrupt controller. */
  alt_irq_init (NULL);
 40009fc:	4000cec0 	call	4000cec <alt_irq_init>
  ALT_LOG_PRINT_BOOT("[alt_main.c] Done OS Init, calling alt_sem_create.\r\n");
  ALT_SEM_CREATE (&alt_fd_list_lock, 1);

  /* Initialize the device drivers/software components. */
  ALT_LOG_PRINT_BOOT("[alt_main.c] Calling alt_sys_init.\r\n");
  alt_sys_init();
 4000a00:	4000d0c0 	call	4000d0c <alt_sys_init>
   * devices be present (not equal to /dev/null) and if direct drivers
   * aren't being used.
   */

    ALT_LOG_PRINT_BOOT("[alt_main.c] Redirecting IO.\r\n");
    alt_io_redirect(ALT_STDOUT, ALT_STDIN, ALT_STDERR);
 4000a04:	01810034 	movhi	r6,1024
 4000a08:	31943604 	addi	r6,r6,20696
 4000a0c:	300b883a 	mov	r5,r6
 4000a10:	3009883a 	mov	r4,r6
 4000a14:	4001f880 	call	4001f88 <alt_io_redirect>
  ALT_LOG_PRINT_BOOT("[alt_main.c] Calling main.\r\n");

#ifdef ALT_NO_EXIT
  main (alt_argc, alt_argv, alt_envp);
#else
  result = main (alt_argc, alt_argv, alt_envp);
 4000a18:	d1a30517 	ldw	r6,-29676(gp)
 4000a1c:	d1630617 	ldw	r5,-29672(gp)
 4000a20:	d1230717 	ldw	r4,-29668(gp)
 4000a24:	40001b80 	call	40001b8 <main>
  close(STDOUT_FILENO);
 4000a28:	01000044 	movi	r4,1
  ALT_LOG_PRINT_BOOT("[alt_main.c] Calling main.\r\n");

#ifdef ALT_NO_EXIT
  main (alt_argc, alt_argv, alt_envp);
#else
  result = main (alt_argc, alt_argv, alt_envp);
 4000a2c:	1021883a 	mov	r16,r2
  close(STDOUT_FILENO);
 4000a30:	4001bb00 	call	4001bb0 <close>
  exit (result);
 4000a34:	8009883a 	mov	r4,r16
 4000a38:	40023600 	call	4002360 <exit>

04000a3c <alt_printf>:
/* 
 * ALT printf function 
 */
void 
alt_printf(const char* fmt, ... )
{
 4000a3c:	defff304 	addi	sp,sp,-52
 4000a40:	dc000015 	stw	r16,0(sp)
 4000a44:	2021883a 	mov	r16,r4
 4000a48:	dfc00915 	stw	ra,36(sp)
 4000a4c:	df000815 	stw	fp,32(sp)
 4000a50:	ddc00715 	stw	r23,28(sp)
 4000a54:	dd800615 	stw	r22,24(sp)
 4000a58:	dd400515 	stw	r21,20(sp)
 4000a5c:	dd000415 	stw	r20,16(sp)
 4000a60:	dcc00315 	stw	r19,12(sp)
 4000a64:	dc800215 	stw	r18,8(sp)
 4000a68:	dc400115 	stw	r17,4(sp)
 4000a6c:	d9400a15 	stw	r5,40(sp)
 4000a70:	d9800b15 	stw	r6,44(sp)
 4000a74:	d9c00c15 	stw	r7,48(sp)
    w = fmt;
    while ((c = *w++) != 0)
    {
        /* If not a format escape character, just print  */
        /* character.  Otherwise, process format string. */
        if (c != '%')
 4000a78:	04400944 	movi	r17,37
 */
void 
alt_printf(const char* fmt, ... )
{
	va_list args;
	va_start(args, fmt);
 4000a7c:	dcc00a04 	addi	r19,sp,40
                if (c == '%')
                {
                    /* Process "%" escape sequence. */
                    alt_putchar(c);
                } 
                else if (c == 'c')
 4000a80:	054018c4 	movi	r21,99
                {
                    int v = va_arg(args, int);
                    alt_putchar(v);
                }
                else if (c == 'x')
 4000a84:	05801e04 	movi	r22,120
                        digit_shift -= 4;

                    /* Print digits. */
                    for (; digit_shift >= 0; digit_shift -= 4)
                    {
                        digit = (v & (0xF << digit_shift)) >> digit_shift;
 4000a88:	048003c4 	movi	r18,15
                        if (digit <= 9)
 4000a8c:	05000244 	movi	r20,9
    const char *w;
    char c;

    /* Process format string. */
    w = fmt;
    while ((c = *w++) != 0)
 4000a90:	81000007 	ldb	r4,0(r16)
 4000a94:	20000526 	beq	r4,zero,4000aac <alt_printf+0x70>
    {
        /* If not a format escape character, just print  */
        /* character.  Otherwise, process format string. */
        if (c != '%')
 4000a98:	24401026 	beq	r4,r17,4000adc <alt_printf+0xa0>
    const char *w;
    char c;

    /* Process format string. */
    w = fmt;
    while ((c = *w++) != 0)
 4000a9c:	84000044 	addi	r16,r16,1
    {
        /* If not a format escape character, just print  */
        /* character.  Otherwise, process format string. */
        if (c != '%')
        {
            alt_putchar(c);
 4000aa0:	4000bb80 	call	4000bb8 <alt_putchar>
    const char *w;
    char c;

    /* Process format string. */
    w = fmt;
    while ((c = *w++) != 0)
 4000aa4:	81000007 	ldb	r4,0(r16)
 4000aa8:	203ffb1e 	bne	r4,zero,4000a98 <__ram_exceptions_end+0xfabfc90c>
        }
    }
#ifdef ALT_SEMIHOSTING
    alt_putbufflush();
#endif
}
 4000aac:	dfc00917 	ldw	ra,36(sp)
 4000ab0:	df000817 	ldw	fp,32(sp)
 4000ab4:	ddc00717 	ldw	r23,28(sp)
 4000ab8:	dd800617 	ldw	r22,24(sp)
 4000abc:	dd400517 	ldw	r21,20(sp)
 4000ac0:	dd000417 	ldw	r20,16(sp)
 4000ac4:	dcc00317 	ldw	r19,12(sp)
 4000ac8:	dc800217 	ldw	r18,8(sp)
 4000acc:	dc400117 	ldw	r17,4(sp)
 4000ad0:	dc000017 	ldw	r16,0(sp)
 4000ad4:	dec00d04 	addi	sp,sp,52
 4000ad8:	f800283a 	ret
        }
        else
        {
            /* Get format character.  If none     */
            /* available, processing is complete. */
            if ((c = *w++) != 0)
 4000adc:	80800047 	ldb	r2,1(r16)
 4000ae0:	84000084 	addi	r16,r16,2
 4000ae4:	103ff126 	beq	r2,zero,4000aac <__ram_exceptions_end+0xfabfc920>
            {
                if (c == '%')
 4000ae8:	14402926 	beq	r2,r17,4000b90 <alt_printf+0x154>
                {
                    /* Process "%" escape sequence. */
                    alt_putchar(c);
                } 
                else if (c == 'c')
 4000aec:	15402b26 	beq	r2,r21,4000b9c <alt_printf+0x160>
                {
                    int v = va_arg(args, int);
                    alt_putchar(v);
                }
                else if (c == 'x')
 4000af0:	15800b26 	beq	r2,r22,4000b20 <alt_printf+0xe4>
                        else
                            c = 'a' + digit - 10;
                        alt_putchar(c);
                    }
                }
                else if (c == 's')
 4000af4:	00c01cc4 	movi	r3,115
 4000af8:	10ffe51e 	bne	r2,r3,4000a90 <__ram_exceptions_end+0xfabfc904>
                {
                    /* Process string format. */
                    char *s = va_arg(args, char *);
 4000afc:	9f000017 	ldw	fp,0(r19)
 4000b00:	9cc00104 	addi	r19,r19,4

                    while(*s)
 4000b04:	e1000007 	ldb	r4,0(fp)
 4000b08:	203fe126 	beq	r4,zero,4000a90 <__ram_exceptions_end+0xfabfc904>
                      alt_putchar(*s++);
 4000b0c:	e7000044 	addi	fp,fp,1
 4000b10:	4000bb80 	call	4000bb8 <alt_putchar>
                else if (c == 's')
                {
                    /* Process string format. */
                    char *s = va_arg(args, char *);

                    while(*s)
 4000b14:	e1000007 	ldb	r4,0(fp)
 4000b18:	203ffc1e 	bne	r4,zero,4000b0c <__ram_exceptions_end+0xfabfc980>
 4000b1c:	003fdc06 	br	4000a90 <__ram_exceptions_end+0xfabfc904>
                    alt_putchar(v);
                }
                else if (c == 'x')
                {
                    /* Process hexadecimal number format. */
                    unsigned long v = va_arg(args, unsigned long);
 4000b20:	9dc00017 	ldw	r23,0(r19)
 4000b24:	9cc00104 	addi	r19,r19,4
                    unsigned long digit;
                    int digit_shift;

                    /* If the number value is zero, just print and continue. */
                    if (v == 0)
 4000b28:	b8002026 	beq	r23,zero,4000bac <alt_printf+0x170>
                        continue;
                    }

                    /* Find first non-zero digit. */
                    digit_shift = 28;
                    while (!(v & (0xF << digit_shift)))
 4000b2c:	b8bc002c 	andhi	r2,r23,61440
 4000b30:	07000704 	movi	fp,28
 4000b34:	1000101e 	bne	r2,zero,4000b78 <alt_printf+0x13c>
                        digit_shift -= 4;
 4000b38:	e73fff04 	addi	fp,fp,-4
                        continue;
                    }

                    /* Find first non-zero digit. */
                    digit_shift = 28;
                    while (!(v & (0xF << digit_shift)))
 4000b3c:	9704983a 	sll	r2,r18,fp
 4000b40:	15c4703a 	and	r2,r2,r23
 4000b44:	103ffc26 	beq	r2,zero,4000b38 <__ram_exceptions_end+0xfabfc9ac>
                        digit_shift -= 4;

                    /* Print digits. */
                    for (; digit_shift >= 0; digit_shift -= 4)
 4000b48:	e03fd116 	blt	fp,zero,4000a90 <__ram_exceptions_end+0xfabfc904>
                    {
                        digit = (v & (0xF << digit_shift)) >> digit_shift;
 4000b4c:	9708983a 	sll	r4,r18,fp
 4000b50:	25c8703a 	and	r4,r4,r23
 4000b54:	2708d83a 	srl	r4,r4,fp
                        if (digit <= 9)
 4000b58:	a1000b36 	bltu	r20,r4,4000b88 <alt_printf+0x14c>
                            c = '0' + digit;
 4000b5c:	21000c04 	addi	r4,r4,48
                        else
                            c = 'a' + digit - 10;
                        alt_putchar(c);
 4000b60:	21003fcc 	andi	r4,r4,255
 4000b64:	2100201c 	xori	r4,r4,128
                    digit_shift = 28;
                    while (!(v & (0xF << digit_shift)))
                        digit_shift -= 4;

                    /* Print digits. */
                    for (; digit_shift >= 0; digit_shift -= 4)
 4000b68:	e73fff04 	addi	fp,fp,-4
                        digit = (v & (0xF << digit_shift)) >> digit_shift;
                        if (digit <= 9)
                            c = '0' + digit;
                        else
                            c = 'a' + digit - 10;
                        alt_putchar(c);
 4000b6c:	213fe004 	addi	r4,r4,-128
 4000b70:	4000bb80 	call	4000bb8 <alt_putchar>
                    digit_shift = 28;
                    while (!(v & (0xF << digit_shift)))
                        digit_shift -= 4;

                    /* Print digits. */
                    for (; digit_shift >= 0; digit_shift -= 4)
 4000b74:	e03fc616 	blt	fp,zero,4000a90 <__ram_exceptions_end+0xfabfc904>
                    {
                        digit = (v & (0xF << digit_shift)) >> digit_shift;
 4000b78:	9708983a 	sll	r4,r18,fp
 4000b7c:	25c8703a 	and	r4,r4,r23
 4000b80:	2708d83a 	srl	r4,r4,fp
                        if (digit <= 9)
 4000b84:	a13ff52e 	bgeu	r20,r4,4000b5c <__ram_exceptions_end+0xfabfc9d0>
                            c = '0' + digit;
                        else
                            c = 'a' + digit - 10;
 4000b88:	210015c4 	addi	r4,r4,87
 4000b8c:	003ff406 	br	4000b60 <__ram_exceptions_end+0xfabfc9d4>
            if ((c = *w++) != 0)
            {
                if (c == '%')
                {
                    /* Process "%" escape sequence. */
                    alt_putchar(c);
 4000b90:	8809883a 	mov	r4,r17
 4000b94:	4000bb80 	call	4000bb8 <alt_putchar>
 4000b98:	003fbd06 	br	4000a90 <__ram_exceptions_end+0xfabfc904>
                } 
                else if (c == 'c')
                {
                    int v = va_arg(args, int);
                    alt_putchar(v);
 4000b9c:	99000017 	ldw	r4,0(r19)
                    /* Process "%" escape sequence. */
                    alt_putchar(c);
                } 
                else if (c == 'c')
                {
                    int v = va_arg(args, int);
 4000ba0:	9cc00104 	addi	r19,r19,4
                    alt_putchar(v);
 4000ba4:	4000bb80 	call	4000bb8 <alt_putchar>
 4000ba8:	003fb906 	br	4000a90 <__ram_exceptions_end+0xfabfc904>
                    int digit_shift;

                    /* If the number value is zero, just print and continue. */
                    if (v == 0)
                    {
                        alt_putchar('0');
 4000bac:	01000c04 	movi	r4,48
 4000bb0:	4000bb80 	call	4000bb8 <alt_putchar>
                        continue;
 4000bb4:	003fb606 	br	4000a90 <__ram_exceptions_end+0xfabfc904>

04000bb8 <alt_putchar>:
    if (ALT_DRIVER_WRITE(ALT_STDOUT_DEV, &c1, 1, 0) == -1) {
        return -1;
    }
    return c;
#else
    return putchar(c);
 4000bb8:	d0a01117 	ldw	r2,-32700(gp)
 4000bbc:	11400217 	ldw	r5,8(r2)
 4000bc0:	40026f41 	jmpi	40026f4 <putc>

04000bc4 <alt_alarm_stop>:
static ALT_INLINE alt_irq_context ALT_ALWAYS_INLINE 
       alt_irq_disable_all (void)
{
  alt_irq_context context;

  NIOS2_READ_STATUS (context);
 4000bc4:	0007303a 	rdctl	r3,status

  NIOS2_WRITE_STATUS (context & ~NIOS2_STATUS_PIE_MSK);
 4000bc8:	00bfff84 	movi	r2,-2
 4000bcc:	1884703a 	and	r2,r3,r2
 4000bd0:	1001703a 	wrctl	status,r2
 * input argument is the element to remove.
 */
     
static ALT_INLINE void ALT_ALWAYS_INLINE alt_llist_remove(alt_llist* entry)
{
  entry->next->previous = entry->previous;
 4000bd4:	21400117 	ldw	r5,4(r4)
 4000bd8:	20800017 	ldw	r2,0(r4)
 4000bdc:	11400115 	stw	r5,4(r2)
  entry->previous->next = entry->next;
 4000be0:	21400117 	ldw	r5,4(r4)
 4000be4:	28800015 	stw	r2,0(r5)
  /* 
   * Set the entry to point to itself, so that any further calls to
   * alt_llist_remove() are harmless.
   */

  entry->previous = entry;
 4000be8:	21000115 	stw	r4,4(r4)
  entry->next     = entry;
 4000bec:	21000015 	stw	r4,0(r4)
  status &= ~NIOS2_STATUS_PIE_MSK;
  status |= (context & NIOS2_STATUS_PIE_MSK);
  
  NIOS2_WRITE_STATUS (status);
#else
  NIOS2_WRITE_STATUS (context);
 4000bf0:	1801703a 	wrctl	status,r3
 4000bf4:	f800283a 	ret

04000bf8 <alt_tick>:

  alt_u32    next_callback;

  /* update the tick counter */

  _alt_nticks++;
 4000bf8:	d0a30817 	ldw	r2,-29664(gp)
 * 
 * alt_tick() is expected to run at interrupt level.
 */

void alt_tick (void)
{
 4000bfc:	defffa04 	addi	sp,sp,-24
 4000c00:	dc000015 	stw	r16,0(sp)
  alt_alarm* next;
  alt_alarm* alarm = (alt_alarm*) alt_alarm_list.next;
 4000c04:	d4200117 	ldw	r16,-32764(gp)

  alt_u32    next_callback;

  /* update the tick counter */

  _alt_nticks++;
 4000c08:	10800044 	addi	r2,r2,1
 * 
 * alt_tick() is expected to run at interrupt level.
 */

void alt_tick (void)
{
 4000c0c:	dc800215 	stw	r18,8(sp)
 4000c10:	dfc00515 	stw	ra,20(sp)
 4000c14:	dd000415 	stw	r20,16(sp)
 4000c18:	dcc00315 	stw	r19,12(sp)
 4000c1c:	dc400115 	stw	r17,4(sp)
  alt_alarm* next;
  alt_alarm* alarm = (alt_alarm*) alt_alarm_list.next;
 4000c20:	d4a00104 	addi	r18,gp,-32764

  alt_u32    next_callback;

  /* update the tick counter */

  _alt_nticks++;
 4000c24:	d0a30815 	stw	r2,-29664(gp)

  /* process the registered callbacks */

  while (alarm != (alt_alarm*) &alt_alarm_list)
 4000c28:	84801126 	beq	r16,r18,4000c70 <alt_tick+0x78>
         * flag. This will prevent the subsequent tick event from causing
         * an alarm too early.
         */
        if(alarm->time < _alt_nticks)
        {
          alarm->rollover = 1;
 4000c2c:	04c00044 	movi	r19,1
{
  alt_irq_context context;

  NIOS2_READ_STATUS (context);

  NIOS2_WRITE_STATUS (context & ~NIOS2_STATUS_PIE_MSK);
 4000c30:	053fff84 	movi	r20,-2
 4000c34:	00000606 	br	4000c50 <alt_tick+0x58>
     * roll-over flag; once the flag is cleared this (or subsequnt)
     * tick events are enabled to generate an alarm event. 
     */
    if ((alarm->rollover) && (_alt_nticks == 0))
    {
      alarm->rollover = 0;
 4000c38:	80000405 	stb	zero,16(r16)
    }
    
    /* if the alarm period has expired, make the callback */    
    if ((alarm->time <= _alt_nticks) && (alarm->rollover == 0))
 4000c3c:	d0e30817 	ldw	r3,-29664(gp)
 4000c40:	80800217 	ldw	r2,8(r16)
 4000c44:	1880122e 	bgeu	r3,r2,4000c90 <alt_tick+0x98>
 4000c48:	8821883a 	mov	r16,r17

  _alt_nticks++;

  /* process the registered callbacks */

  while (alarm != (alt_alarm*) &alt_alarm_list)
 4000c4c:	8c800826 	beq	r17,r18,4000c70 <alt_tick+0x78>
    /* 
     * Upon the tick-counter rolling over it is safe to clear the 
     * roll-over flag; once the flag is cleared this (or subsequnt)
     * tick events are enabled to generate an alarm event. 
     */
    if ((alarm->rollover) && (_alt_nticks == 0))
 4000c50:	80800403 	ldbu	r2,16(r16)

  /* process the registered callbacks */

  while (alarm != (alt_alarm*) &alt_alarm_list)
  {
    next = (alt_alarm*) alarm->llist.next;
 4000c54:	84400017 	ldw	r17,0(r16)
    /* 
     * Upon the tick-counter rolling over it is safe to clear the 
     * roll-over flag; once the flag is cleared this (or subsequnt)
     * tick events are enabled to generate an alarm event. 
     */
    if ((alarm->rollover) && (_alt_nticks == 0))
 4000c58:	103ff826 	beq	r2,zero,4000c3c <__ram_exceptions_end+0xfabfcab0>
 4000c5c:	d0a30817 	ldw	r2,-29664(gp)
 4000c60:	103ff526 	beq	r2,zero,4000c38 <__ram_exceptions_end+0xfabfcaac>
    {
      alarm->rollover = 0;
    }
    
    /* if the alarm period has expired, make the callback */    
    if ((alarm->time <= _alt_nticks) && (alarm->rollover == 0))
 4000c64:	d0a30817 	ldw	r2,-29664(gp)
 4000c68:	8821883a 	mov	r16,r17

  _alt_nticks++;

  /* process the registered callbacks */

  while (alarm != (alt_alarm*) &alt_alarm_list)
 4000c6c:	8cbff81e 	bne	r17,r18,4000c50 <__ram_exceptions_end+0xfabfcac4>
  /* 
   * Update the operating system specific timer facilities.
   */

  ALT_OS_TIME_TICK();
}
 4000c70:	dfc00517 	ldw	ra,20(sp)
 4000c74:	dd000417 	ldw	r20,16(sp)
 4000c78:	dcc00317 	ldw	r19,12(sp)
 4000c7c:	dc800217 	ldw	r18,8(sp)
 4000c80:	dc400117 	ldw	r17,4(sp)
 4000c84:	dc000017 	ldw	r16,0(sp)
 4000c88:	dec00604 	addi	sp,sp,24
 4000c8c:	f800283a 	ret
    }
    
    /* if the alarm period has expired, make the callback */    
    if ((alarm->time <= _alt_nticks) && (alarm->rollover == 0))
    {
      next_callback = alarm->callback (alarm->context);
 4000c90:	80800317 	ldw	r2,12(r16)
 4000c94:	81000517 	ldw	r4,20(r16)
 4000c98:	103ee83a 	callr	r2

      /* deactivate the alarm if the return value is zero */

      if (next_callback == 0)
 4000c9c:	10000726 	beq	r2,zero,4000cbc <alt_tick+0xc4>
      {
        alt_alarm_stop (alarm);
      }
      else
      {
        alarm->time += next_callback;
 4000ca0:	80c00217 	ldw	r3,8(r16)
        /* 
         * If the desired alarm time causes a roll-over, set the rollover
         * flag. This will prevent the subsequent tick event from causing
         * an alarm too early.
         */
        if(alarm->time < _alt_nticks)
 4000ca4:	d1230817 	ldw	r4,-29664(gp)
      {
        alt_alarm_stop (alarm);
      }
      else
      {
        alarm->time += next_callback;
 4000ca8:	10c5883a 	add	r2,r2,r3
 4000cac:	80800215 	stw	r2,8(r16)
        /* 
         * If the desired alarm time causes a roll-over, set the rollover
         * flag. This will prevent the subsequent tick event from causing
         * an alarm too early.
         */
        if(alarm->time < _alt_nticks)
 4000cb0:	113fe52e 	bgeu	r2,r4,4000c48 <__ram_exceptions_end+0xfabfcabc>
        {
          alarm->rollover = 1;
 4000cb4:	84c00405 	stb	r19,16(r16)
 4000cb8:	003fe306 	br	4000c48 <__ram_exceptions_end+0xfabfcabc>
static ALT_INLINE alt_irq_context ALT_ALWAYS_INLINE 
       alt_irq_disable_all (void)
{
  alt_irq_context context;

  NIOS2_READ_STATUS (context);
 4000cbc:	0005303a 	rdctl	r2,status

  NIOS2_WRITE_STATUS (context & ~NIOS2_STATUS_PIE_MSK);
 4000cc0:	1506703a 	and	r3,r2,r20
 4000cc4:	1801703a 	wrctl	status,r3
 * input argument is the element to remove.
 */
     
static ALT_INLINE void ALT_ALWAYS_INLINE alt_llist_remove(alt_llist* entry)
{
  entry->next->previous = entry->previous;
 4000cc8:	81000117 	ldw	r4,4(r16)
 4000ccc:	80c00017 	ldw	r3,0(r16)
 4000cd0:	19000115 	stw	r4,4(r3)
  entry->previous->next = entry->next;
 4000cd4:	81000117 	ldw	r4,4(r16)
 4000cd8:	20c00015 	stw	r3,0(r4)
  /* 
   * Set the entry to point to itself, so that any further calls to
   * alt_llist_remove() are harmless.
   */

  entry->previous = entry;
 4000cdc:	84000115 	stw	r16,4(r16)
  entry->next     = entry;
 4000ce0:	84000015 	stw	r16,0(r16)
  status &= ~NIOS2_STATUS_PIE_MSK;
  status |= (context & NIOS2_STATUS_PIE_MSK);
  
  NIOS2_WRITE_STATUS (status);
#else
  NIOS2_WRITE_STATUS (context);
 4000ce4:	1001703a 	wrctl	status,r2
 4000ce8:	003fd706 	br	4000c48 <__ram_exceptions_end+0xfabfcabc>

04000cec <alt_irq_init>:
 * The "base" parameter is ignored and only
 * present for backwards-compatibility.
 */

void alt_irq_init ( const void* base )
{
 4000cec:	deffff04 	addi	sp,sp,-4
 4000cf0:	dfc00015 	stw	ra,0(sp)
    ALTERA_NIOS2_GEN2_IRQ_INIT ( NIOS2_GEN2_0, nios2_gen2_0);
 4000cf4:	40021980 	call	4002198 <altera_nios2_gen2_irq_init>
 * alt_irq_cpu_enable_interrupts() enables the CPU to start taking interrupts.
 */
static ALT_INLINE void ALT_ALWAYS_INLINE 
       alt_irq_cpu_enable_interrupts (void)
{
    NIOS2_WRITE_STATUS(NIOS2_STATUS_PIE_MSK
 4000cf8:	00800044 	movi	r2,1
 4000cfc:	1001703a 	wrctl	status,r2
    alt_irq_cpu_enable_interrupts();
}
 4000d00:	dfc00017 	ldw	ra,0(sp)
 4000d04:	dec00104 	addi	sp,sp,4
 4000d08:	f800283a 	ret

04000d0c <alt_sys_init>:
 * Initialize the non-interrupt controller devices.
 * Called after alt_irq_init().
 */

void alt_sys_init( void )
{
 4000d0c:	deffff04 	addi	sp,sp,-4
    ALTERA_AVALON_TIMER_INIT ( TIMER_0, timer_0);
 4000d10:	01c0fa04 	movi	r7,1000
 4000d14:	01800084 	movi	r6,2
 4000d18:	000b883a 	mov	r5,zero
 4000d1c:	01020034 	movhi	r4,2048
 * Initialize the non-interrupt controller devices.
 * Called after alt_irq_init().
 */

void alt_sys_init( void )
{
 4000d20:	dfc00015 	stw	ra,0(sp)
    ALTERA_AVALON_TIMER_INIT ( TIMER_0, timer_0);
 4000d24:	4000e640 	call	4000e64 <alt_avalon_timer_sc_init>

static ALT_INLINE int alt_dev_reg (alt_dev* dev)
{
  extern alt_llist alt_dev_list;

  return alt_dev_llist_insert ((alt_dev_llist*) dev, &alt_dev_list);
 4000d28:	01010034 	movhi	r4,1024
 4000d2c:	21149d04 	addi	r4,r4,21108
 4000d30:	d1600804 	addi	r5,gp,-32736
 4000d34:	4001ccc0 	call	4001ccc <alt_dev_llist_insert>
    ALTERA_AVALON_JTAG_UART_INIT ( JTAG_UART, jtag_uart);
    ALTERA_AVALON_SPI_INIT ( SPI_0, spi_0);
    ALTERA_AVALON_SYSID_QSYS_INIT ( SYSID, sysid);
    ALTERA_MODULAR_ADC_INIT ( MODULAR_ADC_0, modular_adc_0);
 4000d38:	01010034 	movhi	r4,1024
 4000d3c:	21148e04 	addi	r4,r4,21048
 4000d40:	01800044 	movi	r6,1
 4000d44:	000b883a 	mov	r5,zero
 4000d48:	4000f480 	call	4000f48 <altera_modular_adc_init>
    ALTERA_ONCHIP_FLASH_INIT ( ONCHIP_FLASH_0, onchip_flash_0);
 4000d4c:	01010034 	movhi	r4,1024
 4000d50:	21144e04 	addi	r4,r4,20792
}
 4000d54:	dfc00017 	ldw	ra,0(sp)
 4000d58:	dec00104 	addi	sp,sp,4
    ALTERA_AVALON_TIMER_INIT ( TIMER_0, timer_0);
    ALTERA_AVALON_JTAG_UART_INIT ( JTAG_UART, jtag_uart);
    ALTERA_AVALON_SPI_INIT ( SPI_0, spi_0);
    ALTERA_AVALON_SYSID_QSYS_INIT ( SYSID, sysid);
    ALTERA_MODULAR_ADC_INIT ( MODULAR_ADC_0, modular_adc_0);
    ALTERA_ONCHIP_FLASH_INIT ( ONCHIP_FLASH_0, onchip_flash_0);
 4000d5c:	40017781 	jmpi	4001778 <altera_onchip_flash_init>

04000d60 <altera_avalon_jtag_uart_read_fd>:
int 
altera_avalon_jtag_uart_read_fd(alt_fd* fd, char* buffer, int space)
{
    altera_avalon_jtag_uart_dev* dev = (altera_avalon_jtag_uart_dev*) fd->dev; 

    return altera_avalon_jtag_uart_read(&dev->state, buffer, space,
 4000d60:	20800017 	ldw	r2,0(r4)
 4000d64:	21c00217 	ldw	r7,8(r4)
 4000d68:	11000a04 	addi	r4,r2,40
 4000d6c:	4000d801 	jmpi	4000d80 <altera_avalon_jtag_uart_read>

04000d70 <altera_avalon_jtag_uart_write_fd>:
int 
altera_avalon_jtag_uart_write_fd(alt_fd* fd, const char* buffer, int space)
{
    altera_avalon_jtag_uart_dev* dev = (altera_avalon_jtag_uart_dev*) fd->dev; 

    return altera_avalon_jtag_uart_write(&dev->state, buffer, space,
 4000d70:	20800017 	ldw	r2,0(r4)
 4000d74:	21c00217 	ldw	r7,8(r4)
 4000d78:	11000a04 	addi	r4,r2,40
 4000d7c:	4000df41 	jmpi	4000df4 <altera_avalon_jtag_uart_write>

04000d80 <altera_avalon_jtag_uart_read>:
  char* buffer, int space, int flags)
{
  unsigned int base = sp->base;

  char * ptr = buffer;
  char * end = buffer + space;
 4000d80:	298d883a 	add	r6,r5,r6

int 
altera_avalon_jtag_uart_read(altera_avalon_jtag_uart_state* sp, 
  char* buffer, int space, int flags)
{
  unsigned int base = sp->base;
 4000d84:	22400017 	ldw	r9,0(r4)

  char * ptr = buffer;
  char * end = buffer + space;

  while (ptr < end)
 4000d88:	2980162e 	bgeu	r5,r6,4000de4 <altera_avalon_jtag_uart_read+0x64>
 4000d8c:	2807883a 	mov	r3,r5

    if (data & ALTERA_AVALON_JTAG_UART_DATA_RVALID_MSK)
      *ptr++ = (data & ALTERA_AVALON_JTAG_UART_DATA_DATA_MSK) >> ALTERA_AVALON_JTAG_UART_DATA_DATA_OFST;
    else if (ptr != buffer)
      break;
    else if(flags & O_NONBLOCK)
 4000d90:	3a90000c 	andi	r10,r7,16384
 4000d94:	00000306 	br	4000da4 <altera_avalon_jtag_uart_read+0x24>
  while (ptr < end)
  {
    unsigned int data = IORD_ALTERA_AVALON_JTAG_UART_DATA(base);

    if (data & ALTERA_AVALON_JTAG_UART_DATA_RVALID_MSK)
      *ptr++ = (data & ALTERA_AVALON_JTAG_UART_DATA_DATA_MSK) >> ALTERA_AVALON_JTAG_UART_DATA_DATA_OFST;
 4000d98:	19000005 	stb	r4,0(r3)
  unsigned int base = sp->base;

  char * ptr = buffer;
  char * end = buffer + space;

  while (ptr < end)
 4000d9c:	1180092e 	bgeu	r2,r6,4000dc4 <altera_avalon_jtag_uart_read+0x44>
 4000da0:	1007883a 	mov	r3,r2
  {
    unsigned int data = IORD_ALTERA_AVALON_JTAG_UART_DATA(base);
 4000da4:	49000037 	ldwio	r4,0(r9)

    if (data & ALTERA_AVALON_JTAG_UART_DATA_RVALID_MSK)
 4000da8:	2220000c 	andi	r8,r4,32768
      *ptr++ = (data & ALTERA_AVALON_JTAG_UART_DATA_DATA_MSK) >> ALTERA_AVALON_JTAG_UART_DATA_DATA_OFST;
 4000dac:	18800044 	addi	r2,r3,1

  while (ptr < end)
  {
    unsigned int data = IORD_ALTERA_AVALON_JTAG_UART_DATA(base);

    if (data & ALTERA_AVALON_JTAG_UART_DATA_RVALID_MSK)
 4000db0:	403ff91e 	bne	r8,zero,4000d98 <__ram_exceptions_end+0xfabfcc0c>
      *ptr++ = (data & ALTERA_AVALON_JTAG_UART_DATA_DATA_MSK) >> ALTERA_AVALON_JTAG_UART_DATA_DATA_OFST;
    else if (ptr != buffer)
 4000db4:	28c0061e 	bne	r5,r3,4000dd0 <altera_avalon_jtag_uart_read+0x50>
      break;
    else if(flags & O_NONBLOCK)
 4000db8:	5000081e 	bne	r10,zero,4000ddc <altera_avalon_jtag_uart_read+0x5c>
 4000dbc:	2805883a 	mov	r2,r5
 4000dc0:	003ff706 	br	4000da0 <__ram_exceptions_end+0xfabfcc14>
      break;   
    
  }

  if (ptr != buffer)
 4000dc4:	28800726 	beq	r5,r2,4000de4 <altera_avalon_jtag_uart_read+0x64>
    return ptr - buffer;
 4000dc8:	1145c83a 	sub	r2,r2,r5
 4000dcc:	f800283a 	ret
 4000dd0:	1805883a 	mov	r2,r3
 4000dd4:	1145c83a 	sub	r2,r2,r5
 4000dd8:	f800283a 	ret
  else if (flags & O_NONBLOCK)
    return -EWOULDBLOCK;
 4000ddc:	00bffd44 	movi	r2,-11
 4000de0:	f800283a 	ret
    
  }

  if (ptr != buffer)
    return ptr - buffer;
  else if (flags & O_NONBLOCK)
 4000de4:	39d0000c 	andi	r7,r7,16384
 4000de8:	383ffc1e 	bne	r7,zero,4000ddc <__ram_exceptions_end+0xfabfcc50>
    return -EWOULDBLOCK;
  else
    return -EIO;
 4000dec:	00bffec4 	movi	r2,-5
}
 4000df0:	f800283a 	ret

04000df4 <altera_avalon_jtag_uart_write>:
 */

int altera_avalon_jtag_uart_write(altera_avalon_jtag_uart_state* sp, 
  const char * ptr, int count, int flags)
{
  unsigned int base = sp->base;
 4000df4:	21c00017 	ldw	r7,0(r4)
 * one FIFOs worth of data.  But you said you didn't want to use interrupts :-)
 */

int altera_avalon_jtag_uart_write(altera_avalon_jtag_uart_state* sp, 
  const char * ptr, int count, int flags)
{
 4000df8:	3005883a 	mov	r2,r6
  unsigned int base = sp->base;

  const char * end = ptr + count;
 4000dfc:	298d883a 	add	r6,r5,r6
 4000e00:	39000104 	addi	r4,r7,4

  while (ptr < end)
 4000e04:	2980072e 	bgeu	r5,r6,4000e24 <altera_avalon_jtag_uart_write+0x30>
    if ((IORD_ALTERA_AVALON_JTAG_UART_CONTROL(base) & ALTERA_AVALON_JTAG_UART_CONTROL_WSPACE_MSK) != 0)
 4000e08:	20c00037 	ldwio	r3,0(r4)
 4000e0c:	18ffffec 	andhi	r3,r3,65535
 4000e10:	183ffd26 	beq	r3,zero,4000e08 <__ram_exceptions_end+0xfabfcc7c>
      IOWR_ALTERA_AVALON_JTAG_UART_DATA(base, *ptr++);
 4000e14:	28c00007 	ldb	r3,0(r5)
 4000e18:	38c00035 	stwio	r3,0(r7)
 4000e1c:	29400044 	addi	r5,r5,1
 4000e20:	003ff806 	br	4000e04 <__ram_exceptions_end+0xfabfcc78>

  return count;
}
 4000e24:	f800283a 	ret

04000e28 <alt_avalon_timer_sc_irq>:
#ifdef ALT_ENHANCED_INTERRUPT_API_PRESENT
static void alt_avalon_timer_sc_irq (void* base)
#else
static void alt_avalon_timer_sc_irq (void* base, alt_u32 id)
#endif
{
 4000e28:	defffe04 	addi	sp,sp,-8
 4000e2c:	dfc00115 	stw	ra,4(sp)
 4000e30:	dc000015 	stw	r16,0(sp)
  alt_irq_context cpu_sr;
  
  /* clear the interrupt */
  IOWR_ALTERA_AVALON_TIMER_STATUS (base, 0);
 4000e34:	20000035 	stwio	zero,0(r4)
  /* 
   * Dummy read to ensure IRQ is negated before the ISR returns.
   * The control register is read because reading the status
   * register has side-effects per the register map documentation.
   */
  IORD_ALTERA_AVALON_TIMER_CONTROL (base);
 4000e38:	20800137 	ldwio	r2,4(r4)
static ALT_INLINE alt_irq_context ALT_ALWAYS_INLINE 
       alt_irq_disable_all (void)
{
  alt_irq_context context;

  NIOS2_READ_STATUS (context);
 4000e3c:	0021303a 	rdctl	r16,status

  NIOS2_WRITE_STATUS (context & ~NIOS2_STATUS_PIE_MSK);
 4000e40:	00bfff84 	movi	r2,-2
 4000e44:	8084703a 	and	r2,r16,r2
 4000e48:	1001703a 	wrctl	status,r2
  /* 
   * Notify the system of a clock tick. disable interrupts 
   * during this time to safely support ISR preemption
   */
  cpu_sr = alt_irq_disable_all();
  alt_tick ();
 4000e4c:	4000bf80 	call	4000bf8 <alt_tick>
  status &= ~NIOS2_STATUS_PIE_MSK;
  status |= (context & NIOS2_STATUS_PIE_MSK);
  
  NIOS2_WRITE_STATUS (status);
#else
  NIOS2_WRITE_STATUS (context);
 4000e50:	8001703a 	wrctl	status,r16
  alt_irq_enable_all(cpu_sr);
}
 4000e54:	dfc00117 	ldw	ra,4(sp)
 4000e58:	dc000017 	ldw	r16,0(sp)
 4000e5c:	dec00204 	addi	sp,sp,8
 4000e60:	f800283a 	ret

04000e64 <alt_avalon_timer_sc_init>:
 * in order to initialise the value of the clock frequency.
 */

static ALT_INLINE int ALT_ALWAYS_INLINE alt_sysclk_init (alt_u32 nticks)
{
  if (! _alt_tick_rate)
 4000e64:	d0e30917 	ldw	r3,-29660(gp)
 * auto-generated alt_sys_init() function.
 */

void alt_avalon_timer_sc_init (void* base, alt_u32 irq_controller_id, 
                                alt_u32 irq, alt_u32 freq)
{
 4000e68:	defffe04 	addi	sp,sp,-8
 4000e6c:	dfc00115 	stw	ra,4(sp)
 4000e70:	2005883a 	mov	r2,r4
 4000e74:	2809883a 	mov	r4,r5
 4000e78:	300b883a 	mov	r5,r6
 4000e7c:	1800011e 	bne	r3,zero,4000e84 <alt_avalon_timer_sc_init+0x20>
  {
    _alt_tick_rate = nticks;
 4000e80:	d1e30915 	stw	r7,-29660(gp)
  
  alt_sysclk_init (freq);
  
  /* set to free running mode */
  
  IOWR_ALTERA_AVALON_TIMER_CONTROL (base, 
 4000e84:	00c001c4 	movi	r3,7
 4000e88:	10c00135 	stwio	r3,4(r2)
            ALTERA_AVALON_TIMER_CONTROL_CONT_MSK |
            ALTERA_AVALON_TIMER_CONTROL_START_MSK);

  /* register the interrupt handler, and enable the interrupt */
#ifdef ALT_ENHANCED_INTERRUPT_API_PRESENT
  alt_ic_isr_register(irq_controller_id, irq, alt_avalon_timer_sc_irq, 
 4000e8c:	01810034 	movhi	r6,1024
 4000e90:	31838a04 	addi	r6,r6,3624
 4000e94:	d8000015 	stw	zero,0(sp)
 4000e98:	100f883a 	mov	r7,r2
 4000e9c:	4001e200 	call	4001e20 <alt_ic_isr_register>
                      base, NULL);
#else
  alt_irq_register (irq, base, alt_avalon_timer_sc_irq);
#endif  
}
 4000ea0:	dfc00117 	ldw	ra,4(sp)
 4000ea4:	dec00204 	addi	sp,sp,8
 4000ea8:	f800283a 	ret

04000eac <alt_adc_irq>:
static void alt_adc_irq(void *context)
{
    alt_modular_adc_dev *dev = (alt_modular_adc_dev *) context;
    alt_irq_context cpu_sr = 0;

	if(NULL != dev)
 4000eac:	20001726 	beq	r4,zero,4000f0c <alt_adc_irq+0x60>
 * alt_adc_irq()
 *
 * Interrupt handler for the altera modular adc.
 */
static void alt_adc_irq(void *context)
{
 4000eb0:	defffd04 	addi	sp,sp,-12
 4000eb4:	dc000015 	stw	r16,0(sp)
 4000eb8:	2021883a 	mov	r16,r4
 4000ebc:	dfc00215 	stw	ra,8(sp)
 4000ec0:	dc400115 	stw	r17,4(sp)
static ALT_INLINE alt_irq_context ALT_ALWAYS_INLINE 
       alt_irq_disable_all (void)
{
  alt_irq_context context;

  NIOS2_READ_STATUS (context);
 4000ec4:	0023303a 	rdctl	r17,status

  NIOS2_WRITE_STATUS (context & ~NIOS2_STATUS_PIE_MSK);
 4000ec8:	00bfff84 	movi	r2,-2
 4000ecc:	8884703a 	and	r2,r17,r2
 4000ed0:	1001703a 	wrctl	status,r2
		* Other interrupts are explicitly disabled if callbacks
		* are registered because there is no guarantee that they are 
		* pre-emption-safe. This allows the driver to support 
		* interrupt pre-emption.
		*/
		if(dev->callback) 
 4000ed4:	20800a17 	ldw	r2,40(r4)
 4000ed8:	10000226 	beq	r2,zero,4000ee4 <alt_adc_irq+0x38>
		{
			dev->callback (dev->callback_context);
 4000edc:	21000b17 	ldw	r4,44(r4)
 4000ee0:	103ee83a 	callr	r2
    ALTERA_MODULAR_ADC_SAMPLE_STORAGE_IRQ_DISABLE(sample_store_base);
}

void adc_clear_interrupt_status(int sample_store_base)
{
    CLEAR_ALTERA_MODULAR_ADC_SAMPLE_STORAGE_IRQ_STATUS(sample_store_base);
 4000ee4:	80800c17 	ldw	r2,48(r16)
 4000ee8:	10804104 	addi	r2,r2,260
 4000eec:	10c00037 	ldwio	r3,0(r2)
 4000ef0:	18c00054 	ori	r3,r3,1
 4000ef4:	10c00035 	stwio	r3,0(r2)
  status &= ~NIOS2_STATUS_PIE_MSK;
  status |= (context & NIOS2_STATUS_PIE_MSK);
  
  NIOS2_WRITE_STATUS (status);
#else
  NIOS2_WRITE_STATUS (context);
 4000ef8:	8801703a 	wrctl	status,r17
	    
		alt_irq_enable_all(cpu_sr);
	}
	
    return;
}
 4000efc:	dfc00217 	ldw	ra,8(sp)
 4000f00:	dc400117 	ldw	r17,4(sp)
 4000f04:	dc000017 	ldw	r16,0(sp)
 4000f08:	dec00304 	addi	sp,sp,12
 4000f0c:	f800283a 	ret

04000f10 <alt_adc_word_read>:
    alt_u32 word_length = len;
    alt_u32* dest_buf = dest_ptr;
    alt_u32 base = sample_store_base;
     
    /* return -EINVAL if invalid arguments passed into function */
    if(NULL == dest_buf)
 4000f10:	28000b26 	beq	r5,zero,4000f40 <alt_adc_word_read+0x30>
    {
    	return -EINVAL;
    }

    for(word = 0; word < word_length; word++)
 4000f14:	30000826 	beq	r6,zero,4000f38 <alt_adc_word_read+0x28>
 4000f18:	0005883a 	mov	r2,zero
 4000f1c:	2149c83a 	sub	r4,r4,r5
    {
       *dest_buf = IORD_32DIRECT((base + (word * 4)),0);
 4000f20:	2907883a 	add	r3,r5,r4
 4000f24:	18c00037 	ldwio	r3,0(r3)
 4000f28:	28c00015 	stw	r3,0(r5)
    if(NULL == dest_buf)
    {
    	return -EINVAL;
    }

    for(word = 0; word < word_length; word++)
 4000f2c:	10800044 	addi	r2,r2,1
    {
       *dest_buf = IORD_32DIRECT((base + (word * 4)),0);

       dest_buf++;
 4000f30:	29400104 	addi	r5,r5,4
    if(NULL == dest_buf)
    {
    	return -EINVAL;
    }

    for(word = 0; word < word_length; word++)
 4000f34:	30bffa1e 	bne	r6,r2,4000f20 <__ram_exceptions_end+0xfabfcd94>
       *dest_buf = IORD_32DIRECT((base + (word * 4)),0);

       dest_buf++;
    }

    return 0;
 4000f38:	0005883a 	mov	r2,zero
 4000f3c:	f800283a 	ret
    alt_u32 base = sample_store_base;
     
    /* return -EINVAL if invalid arguments passed into function */
    if(NULL == dest_buf)
    {
    	return -EINVAL;
 4000f40:	00bffa84 	movi	r2,-22
       dest_buf++;
    }

    return 0;

}
 4000f44:	f800283a 	ret

04000f48 <altera_modular_adc_init>:


void altera_modular_adc_init(alt_modular_adc_dev* dev, alt_32 ic_id, alt_32 irq)
{
 4000f48:	defffb04 	addi	sp,sp,-20
 4000f4c:	dc000115 	stw	r16,4(sp)
 4000f50:	2821883a 	mov	r16,r5
    extern alt_llist altera_modular_adc_list;
    alt_dev_llist_insert((alt_dev_llist*) dev, &altera_modular_adc_list);
 4000f54:	d1600304 	addi	r5,gp,-32756

}


void altera_modular_adc_init(alt_modular_adc_dev* dev, alt_32 ic_id, alt_32 irq)
{
 4000f58:	dc800315 	stw	r18,12(sp)
 4000f5c:	dc400215 	stw	r17,8(sp)
 4000f60:	dfc00415 	stw	ra,16(sp)
 4000f64:	2025883a 	mov	r18,r4
 4000f68:	3023883a 	mov	r17,r6
    extern alt_llist altera_modular_adc_list;
    alt_dev_llist_insert((alt_dev_llist*) dev, &altera_modular_adc_list);
 4000f6c:	4001ccc0 	call	4001ccc <alt_dev_llist_insert>
	
	if ((0 <= ic_id) && (0 <= irq))
 4000f70:	80000816 	blt	r16,zero,4000f94 <altera_modular_adc_init+0x4c>
 4000f74:	88000716 	blt	r17,zero,4000f94 <altera_modular_adc_init+0x4c>
	{
          /* Install IRQ handler */
	  #ifdef ALT_ENHANCED_INTERRUPT_API_PRESENT
              alt_ic_isr_register(ic_id, irq, alt_adc_irq, 
 4000f78:	01810034 	movhi	r6,1024
 4000f7c:	3183ab04 	addi	r6,r6,3756
 4000f80:	d8000015 	stw	zero,0(sp)
 4000f84:	900f883a 	mov	r7,r18
 4000f88:	880b883a 	mov	r5,r17
 4000f8c:	8009883a 	mov	r4,r16
 4000f90:	4001e200 	call	4001e20 <alt_ic_isr_register>
                      dev, NULL);
          #else
             alt_irq_register(irq, dev, alt_adc_irq);
          #endif 
	}
}
 4000f94:	dfc00417 	ldw	ra,16(sp)
 4000f98:	dc800317 	ldw	r18,12(sp)
 4000f9c:	dc400217 	ldw	r17,8(sp)
 4000fa0:	dc000117 	ldw	r16,4(sp)
 4000fa4:	dec00504 	addi	sp,sp,20
 4000fa8:	f800283a 	ret

04000fac <alt_adc_register_callback>:
	alt_modular_adc_dev *dev,
	alt_adc_callback callback,
	void *context,
	alt_u32 sample_store_base)
{
    dev->callback         = callback;
 4000fac:	21400a15 	stw	r5,40(r4)
    dev->callback_context = context;
 4000fb0:	21800b15 	stw	r6,44(r4)
    dev->sample_store_base = sample_store_base;
 4000fb4:	21c00c15 	stw	r7,48(r4)
	
	if(NULL != callback)
 4000fb8:	28000926 	beq	r5,zero,4000fe0 <alt_adc_register_callback+0x34>
    ALTERA_MODULAR_ADC_SAMPLE_STORAGE_IRQ_DISABLE(sample_store_base);
}

void adc_clear_interrupt_status(int sample_store_base)
{
    CLEAR_ALTERA_MODULAR_ADC_SAMPLE_STORAGE_IRQ_STATUS(sample_store_base);
 4000fbc:	38c04104 	addi	r3,r7,260
 4000fc0:	18800037 	ldwio	r2,0(r3)
 4000fc4:	10800054 	ori	r2,r2,1
 4000fc8:	18800035 	stwio	r2,0(r3)
    IOWR_ALTERA_MODULAR_ADC_SEQUENCER_CMD_REG(sequencer_base, backup_cmd_reg);
}

void adc_interrupt_enable(int sample_store_base)
{
    ALTERA_MODULAR_ADC_SAMPLE_STORAGE_IRQ_ENABLE(sample_store_base);
 4000fcc:	39c04004 	addi	r7,r7,256
 4000fd0:	38800037 	ldwio	r2,0(r7)
 4000fd4:	10800054 	ori	r2,r2,1
 4000fd8:	38800035 	stwio	r2,0(r7)
 4000fdc:	f800283a 	ret
}

void adc_interrupt_disable(int sample_store_base)
{
    ALTERA_MODULAR_ADC_SAMPLE_STORAGE_IRQ_DISABLE(sample_store_base);
 4000fe0:	38c04004 	addi	r3,r7,256
 4000fe4:	19000037 	ldwio	r4,0(r3)
 4000fe8:	00bfff84 	movi	r2,-2
 4000fec:	2084703a 	and	r2,r4,r2
 4000ff0:	18800035 	stwio	r2,0(r3)
}

void adc_clear_interrupt_status(int sample_store_base)
{
    CLEAR_ALTERA_MODULAR_ADC_SAMPLE_STORAGE_IRQ_STATUS(sample_store_base);
 4000ff4:	39c04104 	addi	r7,r7,260
 4000ff8:	38800037 	ldwio	r2,0(r7)
 4000ffc:	10800054 	ori	r2,r2,1
 4001000:	38800035 	stwio	r2,0(r7)
 4001004:	f800283a 	ret

04001008 <altera_modular_adc_open>:
alt_modular_adc_dev* altera_modular_adc_open (const char *name)
{
    alt_modular_adc_dev *dev = NULL;

    /* Find requested device */
    dev = (alt_modular_adc_dev*) alt_find_dev (name, &altera_modular_adc_list);
 4001008:	d1600304 	addi	r5,gp,-32756
 400100c:	4001d381 	jmpi	4001d38 <alt_find_dev>

04001010 <adc_stop>:
    return dev;
}

void adc_stop(int sequencer_base)
{
    ALTERA_MODULAR_ADC_SEQUENCER_STOP(sequencer_base);
 4001010:	20c00037 	ldwio	r3,0(r4)
 4001014:	00bfff84 	movi	r2,-2
 4001018:	1884703a 	and	r2,r3,r2
 400101c:	20800035 	stwio	r2,0(r4)
 4001020:	20800037 	ldwio	r2,0(r4)
 4001024:	1080004c 	andi	r2,r2,1
 4001028:	103ffd1e 	bne	r2,zero,4001020 <__ram_exceptions_end+0xfabfce94>
}
 400102c:	f800283a 	ret

04001030 <adc_start>:

void adc_start(int sequencer_base)
{
    ALTERA_MODULAR_ADC_SEQUENCER_START(sequencer_base);
 4001030:	20800037 	ldwio	r2,0(r4)
 4001034:	10800054 	ori	r2,r2,1
 4001038:	20800035 	stwio	r2,0(r4)
 400103c:	f800283a 	ret

04001040 <adc_set_mode_run_once>:

void adc_set_mode_run_once(int sequencer_base)
{
    /* Note: Stop the ADC before calling this function,
       changing ADC mode while RUN bit is set has no effect. */
    ALTERA_MODULAR_ADC_SEQUENCER_MODE_RUN_ONCE(sequencer_base);
 4001040:	20c00037 	ldwio	r3,0(r4)
 4001044:	00bffc44 	movi	r2,-15
 4001048:	1884703a 	and	r2,r3,r2
 400104c:	10800094 	ori	r2,r2,2
 4001050:	20800035 	stwio	r2,0(r4)
 4001054:	f800283a 	ret

04001058 <adc_set_mode_run_continuously>:

void adc_set_mode_run_continuously(int sequencer_base)
{
    /* Note: Stop the ADC before calling this function,
       changing ADC mode while RUN bit is set has no effect. */
    ALTERA_MODULAR_ADC_SEQUENCER_MODE_RUN_CONTINUOUSLY(sequencer_base);
 4001058:	20c00037 	ldwio	r3,0(r4)
 400105c:	00bffc44 	movi	r2,-15
 4001060:	1884703a 	and	r2,r3,r2
 4001064:	20800035 	stwio	r2,0(r4)
 4001068:	f800283a 	ret

0400106c <adc_recalibrate>:
         2. Start the ADC Sequencer Core.
         5. Poll for RUN bit to be clear
         6. Restore CMD register
     */
    alt_u32 backup_cmd_reg;
    backup_cmd_reg = IORD_ALTERA_MODULAR_ADC_SEQUENCER_CMD_REG(sequencer_base);
 400106c:	20c00037 	ldwio	r3,0(r4)
    return dev;
}

void adc_stop(int sequencer_base)
{
    ALTERA_MODULAR_ADC_SEQUENCER_STOP(sequencer_base);
 4001070:	21400037 	ldwio	r5,0(r4)
 4001074:	00bfff84 	movi	r2,-2
 4001078:	2884703a 	and	r2,r5,r2
 400107c:	20800035 	stwio	r2,0(r4)
 4001080:	20800037 	ldwio	r2,0(r4)
 4001084:	1080004c 	andi	r2,r2,1
 4001088:	103ffd1e 	bne	r2,zero,4001080 <__ram_exceptions_end+0xfabfcef4>
         6. Restore CMD register
     */
    alt_u32 backup_cmd_reg;
    backup_cmd_reg = IORD_ALTERA_MODULAR_ADC_SEQUENCER_CMD_REG(sequencer_base);
    adc_stop(sequencer_base);
    ALTERA_MODULAR_ADC_SEQUENCER_MODE_RUN_RECALIBRATION(sequencer_base);
 400108c:	20800037 	ldwio	r2,0(r4)
 4001090:	10800394 	ori	r2,r2,14
 4001094:	20800035 	stwio	r2,0(r4)
    ALTERA_MODULAR_ADC_SEQUENCER_STOP(sequencer_base);
}

void adc_start(int sequencer_base)
{
    ALTERA_MODULAR_ADC_SEQUENCER_START(sequencer_base);
 4001098:	20800037 	ldwio	r2,0(r4)
 400109c:	10800054 	ori	r2,r2,1
 40010a0:	20800035 	stwio	r2,0(r4)
    alt_u32 backup_cmd_reg;
    backup_cmd_reg = IORD_ALTERA_MODULAR_ADC_SEQUENCER_CMD_REG(sequencer_base);
    adc_stop(sequencer_base);
    ALTERA_MODULAR_ADC_SEQUENCER_MODE_RUN_RECALIBRATION(sequencer_base);
    adc_start(sequencer_base);
    while(IORD_ALTERA_MODULAR_ADC_SEQUENCER_CMD_REG(sequencer_base)
 40010a4:	20800037 	ldwio	r2,0(r4)
 40010a8:	1080004c 	andi	r2,r2,1
 40010ac:	103ffd1e 	bne	r2,zero,40010a4 <__ram_exceptions_end+0xfabfcf18>
             & ALTERA_MODULAR_ADC_SEQUENCER_CMD_RUN_MSK);
    IOWR_ALTERA_MODULAR_ADC_SEQUENCER_CMD_REG(sequencer_base, backup_cmd_reg);
 40010b0:	20c00035 	stwio	r3,0(r4)
 40010b4:	f800283a 	ret

040010b8 <adc_interrupt_enable>:
}

void adc_interrupt_enable(int sample_store_base)
{
    ALTERA_MODULAR_ADC_SAMPLE_STORAGE_IRQ_ENABLE(sample_store_base);
 40010b8:	21004004 	addi	r4,r4,256
 40010bc:	20800037 	ldwio	r2,0(r4)
 40010c0:	10800054 	ori	r2,r2,1
 40010c4:	20800035 	stwio	r2,0(r4)
 40010c8:	f800283a 	ret

040010cc <adc_interrupt_disable>:
}

void adc_interrupt_disable(int sample_store_base)
{
    ALTERA_MODULAR_ADC_SAMPLE_STORAGE_IRQ_DISABLE(sample_store_base);
 40010cc:	21004004 	addi	r4,r4,256
 40010d0:	20c00037 	ldwio	r3,0(r4)
 40010d4:	00bfff84 	movi	r2,-2
 40010d8:	1884703a 	and	r2,r3,r2
 40010dc:	20800035 	stwio	r2,0(r4)
 40010e0:	f800283a 	ret

040010e4 <adc_clear_interrupt_status>:
}

void adc_clear_interrupt_status(int sample_store_base)
{
    CLEAR_ALTERA_MODULAR_ADC_SAMPLE_STORAGE_IRQ_STATUS(sample_store_base);
 40010e4:	21004104 	addi	r4,r4,260
 40010e8:	20800037 	ldwio	r2,0(r4)
 40010ec:	10800054 	ori	r2,r2,1
 40010f0:	20800035 	stwio	r2,0(r4)
 40010f4:	f800283a 	ret

040010f8 <adc_interrupt_asserted>:
}

int adc_interrupt_asserted(int sample_store_base)
{
    return((READ_ALTERA_MODULAR_ADC_SAMPLE_STORAGE_IRQ_STATUS(sample_store_base)==1) ? -1 : 0);
 40010f8:	20804137 	ldwio	r2,260(r4)
 40010fc:	1080004c 	andi	r2,r2,1
}
 4001100:	0085c83a 	sub	r2,zero,r2
 4001104:	f800283a 	ret

04001108 <adc_wait_for_interrupt>:

void adc_wait_for_interrupt(int sample_store_base)
{
 4001108:	21004104 	addi	r4,r4,260
    WAIT_FOR_ALTERA_MODULAR_ADC_SAMPLE_STORAGE_IRQ(sample_store_base);
 400110c:	20800037 	ldwio	r2,0(r4)
 4001110:	1080004c 	andi	r2,r2,1
 4001114:	103ffd26 	beq	r2,zero,400110c <__ram_exceptions_end+0xfabfcf80>
}
 4001118:	f800283a 	ret

0400111c <alt_onchip_flash_read>:
{
    int ret_code = 0;
    alt_onchip_flash_dev* flash = (alt_onchip_flash_dev*)flash_info;

    /* Make sure the input parameters is not outside of this device's range. */
    if ((offset >= flash->dev.length) || ((offset+length) > flash->dev.length)) {
 400111c:	20c00b17 	ldw	r3,44(r4)
 4001120:	28c0160e 	bge	r5,r3,400117c <alt_onchip_flash_read+0x60>
 4001124:	2005883a 	mov	r2,r4
 4001128:	29c9883a 	add	r4,r5,r7
 400112c:	19001316 	blt	r3,r4,400117c <alt_onchip_flash_read+0x60>
    alt_flash_dev *flash_info,
    int           offset,
    void          *dest_addr,
    int           length
)
{
 4001130:	defffe04 	addi	sp,sp,-8
 4001134:	dc000015 	stw	r16,0(sp)
 4001138:	1021883a 	mov	r16,r2
    /* Make sure the input parameters is not outside of this device's range. */
    if ((offset >= flash->dev.length) || ((offset+length) > flash->dev.length)) {
        return -EFAULT;
    }
    
    memcpy(dest_addr, (alt_u8*)flash->dev.base_addr+offset, length);
 400113c:	10800a17 	ldw	r2,40(r2)
 4001140:	3009883a 	mov	r4,r6
 4001144:	380d883a 	mov	r6,r7
 4001148:	114b883a 	add	r5,r2,r5
    alt_flash_dev *flash_info,
    int           offset,
    void          *dest_addr,
    int           length
)
{
 400114c:	dfc00115 	stw	ra,4(sp)
    /* Make sure the input parameters is not outside of this device's range. */
    if ((offset >= flash->dev.length) || ((offset+length) > flash->dev.length)) {
        return -EFAULT;
    }
    
    memcpy(dest_addr, (alt_u8*)flash->dev.base_addr+offset, length);
 4001150:	400250c0 	call	400250c <memcpy>

    if (NULL != flash->csr_base) {
 4001154:	80802f17 	ldw	r2,188(r16)
 4001158:	10000326 	beq	r2,zero,4001168 <alt_onchip_flash_read+0x4c>
        int read_status = IORD_ALTERA_ONCHIP_FLASH_STATUS(flash->csr_base) & ALTERA_ONCHIP_FLASH_STATUS_READ_MSK;
 400115c:	10800037 	ldwio	r2,0(r2)
        if (read_status != ALTERA_ONCHIP_FLASH_STATUS_READ_PASSED) {
 4001160:	1080010c 	andi	r2,r2,4
 4001164:	10000726 	beq	r2,zero,4001184 <alt_onchip_flash_read+0x68>
    int           offset,
    void          *dest_addr,
    int           length
)
{
    int ret_code = 0;
 4001168:	0005883a 	mov	r2,zero
            /* Read failed.  Return error.*/
            ret_code = -EIO;
        }
    }
    return ret_code;
}
 400116c:	dfc00117 	ldw	ra,4(sp)
 4001170:	dc000017 	ldw	r16,0(sp)
 4001174:	dec00204 	addi	sp,sp,8
 4001178:	f800283a 	ret
    int ret_code = 0;
    alt_onchip_flash_dev* flash = (alt_onchip_flash_dev*)flash_info;

    /* Make sure the input parameters is not outside of this device's range. */
    if ((offset >= flash->dev.length) || ((offset+length) > flash->dev.length)) {
        return -EFAULT;
 400117c:	00bffc84 	movi	r2,-14
 4001180:	f800283a 	ret

    if (NULL != flash->csr_base) {
        int read_status = IORD_ALTERA_ONCHIP_FLASH_STATUS(flash->csr_base) & ALTERA_ONCHIP_FLASH_STATUS_READ_MSK;
        if (read_status != ALTERA_ONCHIP_FLASH_STATUS_READ_PASSED) {
            /* Read failed.  Return error.*/
            ret_code = -EIO;
 4001184:	00bffec4 	movi	r2,-5
 4001188:	003ff806 	br	400116c <__ram_exceptions_end+0xfabfcfe0>

0400118c <alt_onchip_flash_get_info>:
{
    int ret_code = 0;

    alt_flash_dev* flash = (alt_flash_dev*)fd;

    if (NULL != number_of_regions)
 400118c:	30000226 	beq	r6,zero,4001198 <alt_onchip_flash_get_info+0xc>
    {
        /* Pass the number of region to user */
        *number_of_regions = flash->number_of_regions;
 4001190:	20800c17 	ldw	r2,48(r4)
 4001194:	30800015 	stw	r2,0(r6)
    }

    if (!flash->number_of_regions)
 4001198:	20800c17 	ldw	r2,48(r4)
 400119c:	10000926 	beq	r2,zero,40011c4 <alt_onchip_flash_get_info+0x38>
    {
        ret_code = -ENOMEM;
    }
    else if (flash->number_of_regions > ALT_MAX_NUMBER_OF_FLASH_REGIONS)
 40011a0:	00c00204 	movi	r3,8
 40011a4:	18800916 	blt	r3,r2,40011cc <alt_onchip_flash_get_info+0x40>
    {
        ret_code = -EFAULT;
    }
    else
    {
        if (NULL != info)
 40011a8:	28000426 	beq	r5,zero,40011bc <alt_onchip_flash_get_info+0x30>
        {
            /* Pass the table of erase blocks to user */
            *info = &flash->region_info[0];
 40011ac:	21000d04 	addi	r4,r4,52
 40011b0:	29000015 	stw	r4,0(r5)
    alt_flash_fd *fd,
    flash_region **info,
    int          *number_of_regions
)
{
    int ret_code = 0;
 40011b4:	0005883a 	mov	r2,zero
 40011b8:	f800283a 	ret
 40011bc:	0005883a 	mov	r2,zero
            *info = &flash->region_info[0];
        }
    }

    return ret_code;
}
 40011c0:	f800283a 	ret
        *number_of_regions = flash->number_of_regions;
    }

    if (!flash->number_of_regions)
    {
        ret_code = -ENOMEM;
 40011c4:	00bffd04 	movi	r2,-12
 40011c8:	f800283a 	ret
    }
    else if (flash->number_of_regions > ALT_MAX_NUMBER_OF_FLASH_REGIONS)
    {
        ret_code = -EFAULT;
 40011cc:	00bffc84 	movi	r2,-14
 40011d0:	f800283a 	ret

040011d4 <alt_onchip_flash_erase_block>:
    int ret_code = 0;
    alt_onchip_flash_dev *flash = (alt_onchip_flash_dev*)flash_info;
    int page_address;

    /* Make sure the input parameters is not outside of this device's range. */
    if (block_offset >= flash->dev.length) {
 40011d4:	20800b17 	ldw	r2,44(r4)
 40011d8:	2880580e 	bge	r5,r2,400133c <alt_onchip_flash_erase_block+0x168>
        return -EFAULT;
    }

    /* Make sure IP support write and erase operation */
    if ((flash->csr_base == NULL) || (flash->is_read_only)) {
 40011dc:	20c02f17 	ldw	r3,188(r4)
 40011e0:	18005426 	beq	r3,zero,4001334 <alt_onchip_flash_erase_block+0x160>
 40011e4:	20802e17 	ldw	r2,184(r4)
 40011e8:	1000521e 	bne	r2,zero,4001334 <alt_onchip_flash_erase_block+0x160>
        return -ENODEV;
    }

    /* The block_offset must be page size aligned */
    if ((block_offset & (flash->page_size - 1)) != 0)
 40011ec:	20803f17 	ldw	r2,252(r4)
 40011f0:	10bfffc4 	addi	r2,r2,-1
 40011f4:	1144703a 	and	r2,r2,r5
 40011f8:	1000521e 	bne	r2,zero,4001344 <alt_onchip_flash_erase_block+0x170>
int alt_onchip_flash_erase_block
(
    alt_flash_dev *flash_info,
    int           block_offset
)
{
 40011fc:	defffc04 	addi	sp,sp,-16
 4001200:	dc000015 	stw	r16,0(sp)
 4001204:	040002f4 	movhi	r16,11
 4001208:	dc800215 	stw	r18,8(sp)
 400120c:	dc400115 	stw	r17,4(sp)
 4001210:	dfc00315 	stw	ra,12(sp)
 4001214:	2825883a 	mov	r18,r5
 4001218:	2023883a 	mov	r17,r4
 400121c:	842b9804 	addi	r16,r16,-20896
 4001220:	00000306 	br	4001230 <alt_onchip_flash_erase_block+0x5c>
        (IORD_ALTERA_ONCHIP_FLASH_STATUS(flash->csr_base) &
              ALTERA_ONCHIP_FLASH_STATUS_BUSY_MSK
        ) !=  ALTERA_ONCHIP_FLASH_STATUS_BUSY_IDLE
    ) {
	 
	alt_busy_sleep(1); /* delay 1us */
 4001224:	4001b380 	call	4001b38 <alt_busy_sleep>

        /* If timeout value is zero, it will never timeout. */
        if (timeout != 0) {
            count_down--;
            if (count_down == 0) {
 4001228:	80003a26 	beq	r16,zero,4001314 <alt_onchip_flash_erase_block+0x140>
 400122c:	88c02f17 	ldw	r3,188(r17)
    int ret_code = 0;
    int timeout = ALTERA_ONCHIP_FLASH_STATUS_BIT_POLLING_TIMEOUT_VALUE;
    int count_down = ALTERA_ONCHIP_FLASH_STATUS_BIT_POLLING_TIMEOUT_VALUE;

    while (
        (IORD_ALTERA_ONCHIP_FLASH_STATUS(flash->csr_base) &
 4001230:	18800037 	ldwio	r2,0(r3)
              ALTERA_ONCHIP_FLASH_STATUS_BUSY_MSK
        ) !=  ALTERA_ONCHIP_FLASH_STATUS_BUSY_IDLE
    ) {
	 
	alt_busy_sleep(1); /* delay 1us */
 4001234:	01000044 	movi	r4,1
{
    int ret_code = 0;
    int timeout = ALTERA_ONCHIP_FLASH_STATUS_BIT_POLLING_TIMEOUT_VALUE;
    int count_down = ALTERA_ONCHIP_FLASH_STATUS_BIT_POLLING_TIMEOUT_VALUE;

    while (
 4001238:	108000cc 	andi	r2,r2,3
 400123c:	843fffc4 	addi	r16,r16,-1
 4001240:	103ff81e 	bne	r2,zero,4001224 <__ram_exceptions_end+0xfabfd098>
    {
        return ret_code;
    }

    /* Enable write and erase operation */
    ALTERA_ONCHIP_FLASH_ENABLE_WRITE_AND_ERASE_OPERATION(flash->csr_base);
 4001244:	18c00104 	addi	r3,r3,4
 4001248:	18800037 	ldwio	r2,0(r3)
 400124c:	113c002c 	andhi	r4,r2,61440
 4001250:	00802034 	movhi	r2,128
 4001254:	10bfffc4 	addi	r2,r2,-1
 4001258:	2084b03a 	or	r2,r4,r2
 400125c:	18800035 	stwio	r2,0(r3)

    /* Calculate Page erase address, it is 32bit word addressing*/
    page_address = block_offset / 4;

    /* Perform Page erase operation */
    ALTERA_ONCHIP_FLASH_PAGE_ERASE(flash->csr_base, page_address);
 4001260:	88c02f17 	ldw	r3,188(r17)
 4001264:	18c00104 	addi	r3,r3,4
 4001268:	18800037 	ldwio	r2,0(r3)
 400126c:	900b883a 	mov	r5,r18
 4001270:	90002a16 	blt	r18,zero,400131c <alt_onchip_flash_erase_block+0x148>
 4001274:	280bd0ba 	srai	r5,r5,2
 4001278:	10bc002c 	andhi	r2,r2,61440
 400127c:	29401c34 	orhi	r5,r5,112
 4001280:	288ab03a 	or	r5,r5,r2
 4001284:	19400035 	stwio	r5,0(r3)
 4001288:	040002f4 	movhi	r16,11
 400128c:	842b9804 	addi	r16,r16,-20896
 4001290:	00000206 	br	400129c <alt_onchip_flash_erase_block+0xc8>
        (IORD_ALTERA_ONCHIP_FLASH_STATUS(flash->csr_base) &
              ALTERA_ONCHIP_FLASH_STATUS_BUSY_MSK
        ) !=  ALTERA_ONCHIP_FLASH_STATUS_BUSY_IDLE
    ) {
	 
	alt_busy_sleep(1); /* delay 1us */
 4001294:	4001b380 	call	4001b38 <alt_busy_sleep>

        /* If timeout value is zero, it will never timeout. */
        if (timeout != 0) {
            count_down--;
            if (count_down == 0) {
 4001298:	80002226 	beq	r16,zero,4001324 <alt_onchip_flash_erase_block+0x150>
    int ret_code = 0;
    int timeout = ALTERA_ONCHIP_FLASH_STATUS_BIT_POLLING_TIMEOUT_VALUE;
    int count_down = ALTERA_ONCHIP_FLASH_STATUS_BIT_POLLING_TIMEOUT_VALUE;

    while (
        (IORD_ALTERA_ONCHIP_FLASH_STATUS(flash->csr_base) &
 400129c:	88c02f17 	ldw	r3,188(r17)
 40012a0:	18800037 	ldwio	r2,0(r3)
              ALTERA_ONCHIP_FLASH_STATUS_BUSY_MSK
        ) !=  ALTERA_ONCHIP_FLASH_STATUS_BUSY_IDLE
    ) {
	 
	alt_busy_sleep(1); /* delay 1us */
 40012a4:	01000044 	movi	r4,1
{
    int ret_code = 0;
    int timeout = ALTERA_ONCHIP_FLASH_STATUS_BIT_POLLING_TIMEOUT_VALUE;
    int count_down = ALTERA_ONCHIP_FLASH_STATUS_BIT_POLLING_TIMEOUT_VALUE;

    while (
 40012a8:	108000cc 	andi	r2,r2,3
 40012ac:	843fffc4 	addi	r16,r16,-1
 40012b0:	103ff81e 	bne	r2,zero,4001294 <__ram_exceptions_end+0xfabfd108>

    /* Calculate Page erase address, it is 32bit word addressing*/
    page_address = block_offset / 4;

    /* Perform Page erase operation */
    ALTERA_ONCHIP_FLASH_PAGE_ERASE(flash->csr_base, page_address);
 40012b4:	040002f4 	movhi	r16,11
 40012b8:	842b9804 	addi	r16,r16,-20896
 40012bc:	00000306 	br	40012cc <alt_onchip_flash_erase_block+0xf8>
        (IORD_ALTERA_ONCHIP_FLASH_STATUS(flash->csr_base) &
              ALTERA_ONCHIP_FLASH_STATUS_ERASE_MSK
        ) !=  ALTERA_ONCHIP_FLASH_STATUS_ERASE_PASSED
    ) {

	alt_busy_sleep(1); /* delay 1us */
 40012c0:	4001b380 	call	4001b38 <alt_busy_sleep>
 40012c4:	88c02f17 	ldw	r3,188(r17)

        /* If timeout value is zero, it will never timeout. */
        if (timeout != 0) {
            count_down--;
            if (count_down == 0) {
 40012c8:	80001826 	beq	r16,zero,400132c <alt_onchip_flash_erase_block+0x158>
    int ret_code = 0;
    int timeout = ALTERA_ONCHIP_FLASH_STATUS_BIT_POLLING_TIMEOUT_VALUE;
    int count_down = ALTERA_ONCHIP_FLASH_STATUS_BIT_POLLING_TIMEOUT_VALUE;

    while (
        (IORD_ALTERA_ONCHIP_FLASH_STATUS(flash->csr_base) &
 40012cc:	18800037 	ldwio	r2,0(r3)
              ALTERA_ONCHIP_FLASH_STATUS_ERASE_MSK
        ) !=  ALTERA_ONCHIP_FLASH_STATUS_ERASE_PASSED
    ) {

	alt_busy_sleep(1); /* delay 1us */
 40012d0:	01000044 	movi	r4,1
{
    int ret_code = 0;
    int timeout = ALTERA_ONCHIP_FLASH_STATUS_BIT_POLLING_TIMEOUT_VALUE;
    int count_down = ALTERA_ONCHIP_FLASH_STATUS_BIT_POLLING_TIMEOUT_VALUE;

    while (
 40012d4:	1080040c 	andi	r2,r2,16
 40012d8:	843fffc4 	addi	r16,r16,-1
 40012dc:	103ff826 	beq	r2,zero,40012c0 <__ram_exceptions_end+0xfabfd134>
int alt_onchip_flash_poll_for_status_erase_passed
(
    alt_onchip_flash_dev *flash
)
{
    int ret_code = 0;
 40012e0:	0005883a 	mov	r2,zero

    /* Wait until flash controller indicate erase passed */
    ret_code = alt_onchip_flash_poll_for_status_erase_passed(flash);

    /* Disable write and erase operation */
    ALTERA_ONCHIP_FLASH_DISABLE_WRITE_AND_ERASE_OPERATION(flash->csr_base);
 40012e4:	18c00104 	addi	r3,r3,4
 40012e8:	19400037 	ldwio	r5,0(r3)
 40012ec:	01040034 	movhi	r4,4096
 40012f0:	213fffc4 	addi	r4,r4,-1
 40012f4:	2908b03a 	or	r4,r5,r4
 40012f8:	19000035 	stwio	r4,0(r3)

    return ret_code;
}
 40012fc:	dfc00317 	ldw	ra,12(sp)
 4001300:	dc800217 	ldw	r18,8(sp)
 4001304:	dc400117 	ldw	r17,4(sp)
 4001308:	dc000017 	ldw	r16,0(sp)
 400130c:	dec00404 	addi	sp,sp,16
 4001310:	f800283a 	ret
        /* If timeout value is zero, it will never timeout. */
        if (timeout != 0) {
            count_down--;
            if (count_down == 0) {
                /* Timeout */
                ret_code = -ETIMEDOUT;
 4001314:	00bfe304 	movi	r2,-116
 4001318:	003ff806 	br	40012fc <__ram_exceptions_end+0xfabfd170>

    /* Calculate Page erase address, it is 32bit word addressing*/
    page_address = block_offset / 4;

    /* Perform Page erase operation */
    ALTERA_ONCHIP_FLASH_PAGE_ERASE(flash->csr_base, page_address);
 400131c:	914000c4 	addi	r5,r18,3
 4001320:	003fd406 	br	4001274 <__ram_exceptions_end+0xfabfd0e8>
 4001324:	88c02f17 	ldw	r3,188(r17)
 4001328:	003fe206 	br	40012b4 <__ram_exceptions_end+0xfabfd128>
        /* If timeout value is zero, it will never timeout. */
        if (timeout != 0) {
            count_down--;
            if (count_down == 0) {
                /* Timeout */
                ret_code = -ETIMEDOUT;
 400132c:	00bfe304 	movi	r2,-116
 4001330:	003fec06 	br	40012e4 <__ram_exceptions_end+0xfabfd158>
        return -EFAULT;
    }

    /* Make sure IP support write and erase operation */
    if ((flash->csr_base == NULL) || (flash->is_read_only)) {
        return -ENODEV;
 4001334:	00bffb44 	movi	r2,-19
 4001338:	f800283a 	ret
    alt_onchip_flash_dev *flash = (alt_onchip_flash_dev*)flash_info;
    int page_address;

    /* Make sure the input parameters is not outside of this device's range. */
    if (block_offset >= flash->dev.length) {
        return -EFAULT;
 400133c:	00bffc84 	movi	r2,-14
 4001340:	f800283a 	ret

    /* The block_offset must be page size aligned */
    if ((block_offset & (flash->page_size - 1)) != 0)
    {
        /* The address is not aligned */
        return -EINVAL;
 4001344:	00bffa84 	movi	r2,-22

    /* Disable write and erase operation */
    ALTERA_ONCHIP_FLASH_DISABLE_WRITE_AND_ERASE_OPERATION(flash->csr_base);

    return ret_code;
}
 4001348:	f800283a 	ret

0400134c <alt_onchip_flash_write_block>:
    int next_data_offset;
    alt_u32 chunk_of_data;

    /* Make sure the input parameters is not outside of this device's range. */
    if (
        (block_offset >= flash->dev.length) ||
 400134c:	20800b17 	ldw	r2,44(r4)
    int           block_offset,
    int           data_offset,
    const void    *data,
    int           length
)
{
 4001350:	defff404 	addi	sp,sp,-48
 4001354:	dc800415 	stw	r18,16(sp)
 4001358:	dfc00b15 	stw	ra,44(sp)
 400135c:	df000a15 	stw	fp,40(sp)
 4001360:	ddc00915 	stw	r23,36(sp)
 4001364:	dd800815 	stw	r22,32(sp)
 4001368:	dd400715 	stw	r21,28(sp)
 400136c:	dd000615 	stw	r20,24(sp)
 4001370:	dcc00515 	stw	r19,20(sp)
 4001374:	dc400315 	stw	r17,12(sp)
 4001378:	dc000215 	stw	r16,8(sp)
 400137c:	dc800c17 	ldw	r18,48(sp)
    int current_data_offset = data_offset;
    int next_data_offset;
    alt_u32 chunk_of_data;

    /* Make sure the input parameters is not outside of this device's range. */
    if (
 4001380:	2880740e 	bge	r5,r2,4001554 <alt_onchip_flash_write_block+0x208>
 4001384:	3023883a 	mov	r17,r6
        (block_offset >= flash->dev.length) ||
 4001388:	3080720e 	bge	r6,r2,4001554 <alt_onchip_flash_write_block+0x208>
        (data_offset >= flash->dev.length) ||
 400138c:	1185c83a 	sub	r2,r2,r6
 4001390:	14807016 	blt	r2,r18,4001554 <alt_onchip_flash_write_block+0x208>
    ) {
        return -EFAULT;
    }

    /* Make sure IP support support write and erase operation */
    if ((flash->csr_base == NULL) || (flash->is_read_only != 0)) {
 4001394:	20c02f17 	ldw	r3,188(r4)
 4001398:	2021883a 	mov	r16,r4
 400139c:	18006f26 	beq	r3,zero,400155c <alt_onchip_flash_write_block+0x210>
 40013a0:	20802e17 	ldw	r2,184(r4)
 40013a4:	10006d1e 	bne	r2,zero,400155c <alt_onchip_flash_write_block+0x210>
 40013a8:	04c002f4 	movhi	r19,11
 40013ac:	3829883a 	mov	r20,r7
 40013b0:	9ceb9804 	addi	r19,r19,-20896
 40013b4:	00000306 	br	40013c4 <alt_onchip_flash_write_block+0x78>
        (IORD_ALTERA_ONCHIP_FLASH_STATUS(flash->csr_base) &
              ALTERA_ONCHIP_FLASH_STATUS_BUSY_MSK
        ) !=  ALTERA_ONCHIP_FLASH_STATUS_BUSY_IDLE
    ) {
	 
	alt_busy_sleep(1); /* delay 1us */
 40013b8:	4001b380 	call	4001b38 <alt_busy_sleep>

        /* If timeout value is zero, it will never timeout. */
        if (timeout != 0) {
            count_down--;
            if (count_down == 0) {
 40013bc:	98006326 	beq	r19,zero,400154c <alt_onchip_flash_write_block+0x200>
 40013c0:	80c02f17 	ldw	r3,188(r16)
    int ret_code = 0;
    int timeout = ALTERA_ONCHIP_FLASH_STATUS_BIT_POLLING_TIMEOUT_VALUE;
    int count_down = ALTERA_ONCHIP_FLASH_STATUS_BIT_POLLING_TIMEOUT_VALUE;

    while (
        (IORD_ALTERA_ONCHIP_FLASH_STATUS(flash->csr_base) &
 40013c4:	18800037 	ldwio	r2,0(r3)
              ALTERA_ONCHIP_FLASH_STATUS_BUSY_MSK
        ) !=  ALTERA_ONCHIP_FLASH_STATUS_BUSY_IDLE
    ) {
	 
	alt_busy_sleep(1); /* delay 1us */
 40013c8:	01000044 	movi	r4,1
{
    int ret_code = 0;
    int timeout = ALTERA_ONCHIP_FLASH_STATUS_BIT_POLLING_TIMEOUT_VALUE;
    int count_down = ALTERA_ONCHIP_FLASH_STATUS_BIT_POLLING_TIMEOUT_VALUE;

    while (
 40013cc:	108000cc 	andi	r2,r2,3
 40013d0:	9cffffc4 	addi	r19,r19,-1
 40013d4:	103ff81e 	bne	r2,zero,40013b8 <__ram_exceptions_end+0xfabfd22c>
    {
        return ret_code;
    }

    /* Enable write and erase operation */
    ALTERA_ONCHIP_FLASH_ENABLE_WRITE_AND_ERASE_OPERATION(flash->csr_base);
 40013d8:	18c00104 	addi	r3,r3,4
 40013dc:	18800037 	ldwio	r2,0(r3)
 40013e0:	113c002c 	andhi	r4,r2,61440
 40013e4:	00802034 	movhi	r2,128
 40013e8:	10bfffc4 	addi	r2,r2,-1
 40013ec:	2084b03a 	or	r2,r4,r2
 40013f0:	18800035 	stwio	r2,0(r3)

    /* Check data length */
    while (length)
 40013f4:	0027883a 	mov	r19,zero
 40013f8:	90005a26 	beq	r18,zero,4001564 <alt_onchip_flash_write_block+0x218>
    {
        /* Minimum write size to onchip flash is 32 bits of data */
        chunk_of_data = 0xFFFFFFFF;
 40013fc:	05bfffc4 	movi	r22,-1

        /* The start of data_offset must be 4 bytes (32 bits) aligned */
        if ((current_data_offset & (ALTERA_ONCHIP_FLASH_DATA_ALIGN_SIZE - 1)) == 0)
        {
            /* The address is 4-byte aligned here */
            next_data_offset = (current_data_offset + ALTERA_ONCHIP_FLASH_DATA_ALIGN_SIZE) & ~(ALTERA_ONCHIP_FLASH_DATA_ALIGN_SIZE - 1);
 4001400:	057fff04 	movi	r21,-4

    /* Check data length */
    while (length)
    {
        /* Minimum write size to onchip flash is 32 bits of data */
        chunk_of_data = 0xFFFFFFFF;
 4001404:	dd800015 	stw	r22,0(sp)

        /* The start of data_offset must be 4 bytes (32 bits) aligned */
        if ((current_data_offset & (ALTERA_ONCHIP_FLASH_DATA_ALIGN_SIZE - 1)) == 0)
 4001408:	890000cc 	andi	r4,r17,3
 400140c:	20002c1e 	bne	r4,zero,40014c0 <alt_onchip_flash_write_block+0x174>
        {
            /* The address is 4-byte aligned here */
            next_data_offset = (current_data_offset + ALTERA_ONCHIP_FLASH_DATA_ALIGN_SIZE) & ~(ALTERA_ONCHIP_FLASH_DATA_ALIGN_SIZE - 1);
 4001410:	88c00104 	addi	r3,r17,4
 4001414:	1d46703a 	and	r3,r3,r21
            length_of_current_write = MIN(length, next_data_offset - current_data_offset);
 4001418:	1c79c83a 	sub	fp,r3,r17
 400141c:	9700010e 	bge	r18,fp,4001424 <alt_onchip_flash_write_block+0xd8>
 4001420:	9039883a 	mov	fp,r18
            /* Prepare the 4 bytes chunk of data to be written */
            memcpy(&chunk_of_data, &((alt_u8*)data)[buffer_offset], length_of_current_write);
 4001424:	a4cb883a 	add	r5,r20,r19
 4001428:	e00d883a 	mov	r6,fp
 400142c:	d809883a 	mov	r4,sp
 4001430:	d8c00115 	stw	r3,4(sp)
 4001434:	400250c0 	call	400250c <memcpy>

        /* The start of data_offset must be 4 bytes (32 bits) aligned */
        if ((current_data_offset & (ALTERA_ONCHIP_FLASH_DATA_ALIGN_SIZE - 1)) == 0)
        {
            /* The address is 4-byte aligned here */
            next_data_offset = (current_data_offset + ALTERA_ONCHIP_FLASH_DATA_ALIGN_SIZE) & ~(ALTERA_ONCHIP_FLASH_DATA_ALIGN_SIZE - 1);
 4001438:	d8c00117 	ldw	r3,4(sp)
 400143c:	882f883a 	mov	r23,r17
            length_of_current_write = MIN(length, next_data_offset - current_data_offset);
            /* Prepare the 4 bytes chunk of data to be written */
            memcpy(&chunk_of_data, &((alt_u8*)data)[buffer_offset], length_of_current_write);
            buffer_offset += length_of_current_write;
 4001440:	9f27883a 	add	r19,r19,fp
            length -= length_of_current_write;
 4001444:	9725c83a 	sub	r18,r18,fp

        /* The start of data_offset must be 4 bytes (32 bits) aligned */
        if ((current_data_offset & (ALTERA_ONCHIP_FLASH_DATA_ALIGN_SIZE - 1)) == 0)
        {
            /* The address is 4-byte aligned here */
            next_data_offset = (current_data_offset + ALTERA_ONCHIP_FLASH_DATA_ALIGN_SIZE) & ~(ALTERA_ONCHIP_FLASH_DATA_ALIGN_SIZE - 1);
 4001448:	1823883a 	mov	r17,r3
            buffer_offset += length_of_current_write - padding;
            length -= length_of_current_write - padding;
        }

        /* Writing to flash via IO 32 bits at a time */
        IOWR_32DIRECT(flash->dev.base_addr, current_data_offset, chunk_of_data);
 400144c:	80800a17 	ldw	r2,40(r16)
 4001450:	15ef883a 	add	r23,r2,r23
 4001454:	d8800017 	ldw	r2,0(sp)
 4001458:	b8800035 	stwio	r2,0(r23)
 400145c:	05c002f4 	movhi	r23,11
 4001460:	bdeb9804 	addi	r23,r23,-20896
 4001464:	00000206 	br	4001470 <alt_onchip_flash_write_block+0x124>
        (IORD_ALTERA_ONCHIP_FLASH_STATUS(flash->csr_base) &
              ALTERA_ONCHIP_FLASH_STATUS_BUSY_MSK
        ) !=  ALTERA_ONCHIP_FLASH_STATUS_BUSY_IDLE
    ) {
	 
	alt_busy_sleep(1); /* delay 1us */
 4001468:	4001b380 	call	4001b38 <alt_busy_sleep>

        /* If timeout value is zero, it will never timeout. */
        if (timeout != 0) {
            count_down--;
            if (count_down == 0) {
 400146c:	b8002326 	beq	r23,zero,40014fc <alt_onchip_flash_write_block+0x1b0>
    int ret_code = 0;
    int timeout = ALTERA_ONCHIP_FLASH_STATUS_BIT_POLLING_TIMEOUT_VALUE;
    int count_down = ALTERA_ONCHIP_FLASH_STATUS_BIT_POLLING_TIMEOUT_VALUE;

    while (
        (IORD_ALTERA_ONCHIP_FLASH_STATUS(flash->csr_base) &
 4001470:	80c02f17 	ldw	r3,188(r16)
 4001474:	18800037 	ldwio	r2,0(r3)
              ALTERA_ONCHIP_FLASH_STATUS_BUSY_MSK
        ) !=  ALTERA_ONCHIP_FLASH_STATUS_BUSY_IDLE
    ) {
	 
	alt_busy_sleep(1); /* delay 1us */
 4001478:	01000044 	movi	r4,1
{
    int ret_code = 0;
    int timeout = ALTERA_ONCHIP_FLASH_STATUS_BIT_POLLING_TIMEOUT_VALUE;
    int count_down = ALTERA_ONCHIP_FLASH_STATUS_BIT_POLLING_TIMEOUT_VALUE;

    while (
 400147c:	108000cc 	andi	r2,r2,3
 4001480:	bdffffc4 	addi	r23,r23,-1
 4001484:	103ff81e 	bne	r2,zero,4001468 <__ram_exceptions_end+0xfabfd2dc>
 4001488:	05c002f4 	movhi	r23,11
 400148c:	bdeb9804 	addi	r23,r23,-20896
 4001490:	00000306 	br	40014a0 <alt_onchip_flash_write_block+0x154>
        (IORD_ALTERA_ONCHIP_FLASH_STATUS(flash->csr_base) &
              ALTERA_ONCHIP_FLASH_STATUS_WRITE_MSK
        ) !=  ALTERA_ONCHIP_FLASH_STATUS_WRITE_PASSED
    ) {

	alt_busy_sleep(1); /* delay 1us */
 4001494:	4001b380 	call	4001b38 <alt_busy_sleep>

        /* If timeout value is zero, it will never timeout. */
        if (timeout != 0) {
            count_down--;
            if (count_down == 0) {
 4001498:	b8001826 	beq	r23,zero,40014fc <alt_onchip_flash_write_block+0x1b0>
 400149c:	80c02f17 	ldw	r3,188(r16)
    int ret_code = 0;
    int timeout = ALTERA_ONCHIP_FLASH_STATUS_BIT_POLLING_TIMEOUT_VALUE;
    int count_down = ALTERA_ONCHIP_FLASH_STATUS_BIT_POLLING_TIMEOUT_VALUE;

    while (
        (IORD_ALTERA_ONCHIP_FLASH_STATUS(flash->csr_base) &
 40014a0:	18800037 	ldwio	r2,0(r3)
              ALTERA_ONCHIP_FLASH_STATUS_WRITE_MSK
        ) !=  ALTERA_ONCHIP_FLASH_STATUS_WRITE_PASSED
    ) {

	alt_busy_sleep(1); /* delay 1us */
 40014a4:	01000044 	movi	r4,1
{
    int ret_code = 0;
    int timeout = ALTERA_ONCHIP_FLASH_STATUS_BIT_POLLING_TIMEOUT_VALUE;
    int count_down = ALTERA_ONCHIP_FLASH_STATUS_BIT_POLLING_TIMEOUT_VALUE;

    while (
 40014a8:	1080020c 	andi	r2,r2,8
 40014ac:	bdffffc4 	addi	r23,r23,-1
 40014b0:	103ff826 	beq	r2,zero,4001494 <__ram_exceptions_end+0xfabfd308>

    /* Enable write and erase operation */
    ALTERA_ONCHIP_FLASH_ENABLE_WRITE_AND_ERASE_OPERATION(flash->csr_base);

    /* Check data length */
    while (length)
 40014b4:	903fd31e 	bne	r18,zero,4001404 <__ram_exceptions_end+0xfabfd278>
        /* If timeout value is zero, it will never timeout. */
        if (timeout != 0) {
            count_down--;
            if (count_down == 0) {
                /* Timeout */
                ret_code = -ETIMEDOUT;
 40014b8:	0005883a 	mov	r2,zero
 40014bc:	00001106 	br	4001504 <alt_onchip_flash_write_block+0x1b8>
        } else {
            /* Calculate how many padding bytes need to be added before the start of a data offset */
            int padding = current_data_offset & (ALTERA_ONCHIP_FLASH_DATA_ALIGN_SIZE - 1);

            /* Calculate new 4-byte aligned data offset */
            current_data_offset = current_data_offset - padding;
 40014c0:	892fc83a 	sub	r23,r17,r4
            next_data_offset = (current_data_offset + ALTERA_ONCHIP_FLASH_DATA_ALIGN_SIZE) & ~(ALTERA_ONCHIP_FLASH_DATA_ALIGN_SIZE - 1);
 40014c4:	bc400104 	addi	r17,r23,4
 40014c8:	8d62703a 	and	r17,r17,r21
            length_of_current_write = MIN(length + padding, next_data_offset - current_data_offset);
            /* Prepare the 4 bytes chunk of data to be written */
            memcpy((void *)(((int)&chunk_of_data) + (int)padding), &((alt_u8*)data)[buffer_offset], length_of_current_write - padding);
 40014cc:	2485883a 	add	r2,r4,r18
 40014d0:	8df9c83a 	sub	fp,r17,r23
 40014d4:	1700010e 	bge	r2,fp,40014dc <alt_onchip_flash_write_block+0x190>
 40014d8:	1039883a 	mov	fp,r2
 40014dc:	e139c83a 	sub	fp,fp,r4
 40014e0:	a4cb883a 	add	r5,r20,r19
 40014e4:	e00d883a 	mov	r6,fp
 40014e8:	d909883a 	add	r4,sp,r4
 40014ec:	400250c0 	call	400250c <memcpy>
            buffer_offset += length_of_current_write - padding;
 40014f0:	9f27883a 	add	r19,r19,fp
            length -= length_of_current_write - padding;
 40014f4:	9725c83a 	sub	r18,r18,fp
 40014f8:	003fd406 	br	400144c <__ram_exceptions_end+0xfabfd2c0>
 40014fc:	80c02f17 	ldw	r3,188(r16)
        /* If timeout value is zero, it will never timeout. */
        if (timeout != 0) {
            count_down--;
            if (count_down == 0) {
                /* Timeout */
                ret_code = -ETIMEDOUT;
 4001500:	00bfe304 	movi	r2,-116
        /* Prepare to write next 4 bytes */
        current_data_offset = next_data_offset;
    }

    /* Disable write and erase operation */
    ALTERA_ONCHIP_FLASH_DISABLE_WRITE_AND_ERASE_OPERATION(flash->csr_base);
 4001504:	18c00104 	addi	r3,r3,4
 4001508:	19400037 	ldwio	r5,0(r3)
 400150c:	01040034 	movhi	r4,4096
 4001510:	213fffc4 	addi	r4,r4,-1
 4001514:	2908b03a 	or	r4,r5,r4
 4001518:	19000035 	stwio	r4,0(r3)

    return ret_code;
}
 400151c:	dfc00b17 	ldw	ra,44(sp)
 4001520:	df000a17 	ldw	fp,40(sp)
 4001524:	ddc00917 	ldw	r23,36(sp)
 4001528:	dd800817 	ldw	r22,32(sp)
 400152c:	dd400717 	ldw	r21,28(sp)
 4001530:	dd000617 	ldw	r20,24(sp)
 4001534:	dcc00517 	ldw	r19,20(sp)
 4001538:	dc800417 	ldw	r18,16(sp)
 400153c:	dc400317 	ldw	r17,12(sp)
 4001540:	dc000217 	ldw	r16,8(sp)
 4001544:	dec00c04 	addi	sp,sp,48
 4001548:	f800283a 	ret
        /* If timeout value is zero, it will never timeout. */
        if (timeout != 0) {
            count_down--;
            if (count_down == 0) {
                /* Timeout */
                ret_code = -ETIMEDOUT;
 400154c:	00bfe304 	movi	r2,-116
 4001550:	003ff206 	br	400151c <__ram_exceptions_end+0xfabfd390>
    if (
        (block_offset >= flash->dev.length) ||
        (data_offset >= flash->dev.length) ||
        (length > (flash->dev.length - data_offset))
    ) {
        return -EFAULT;
 4001554:	00bffc84 	movi	r2,-14
 4001558:	003ff006 	br	400151c <__ram_exceptions_end+0xfabfd390>
    }

    /* Make sure IP support support write and erase operation */
    if ((flash->csr_base == NULL) || (flash->is_read_only != 0)) {
        return -ENODEV;
 400155c:	00bffb44 	movi	r2,-19
 4001560:	003fee06 	br	400151c <__ram_exceptions_end+0xfabfd390>
 4001564:	80c02f17 	ldw	r3,188(r16)
 4001568:	003fd306 	br	40014b8 <__ram_exceptions_end+0xfabfd32c>

0400156c <alt_onchip_flash_write>:
    int         full_length = length;
    int         start_offset = offset;
    alt_onchip_flash_dev* flash = (alt_onchip_flash_dev*)flash_info;

    /* Make sure the input parameters is not outside of this device's range. */
    if ((offset >= flash->dev.length) || (length > (flash->dev.length - offset)))
 400156c:	20800b17 	ldw	r2,44(r4)
    alt_flash_dev *flash_info,
    int           offset,
    const void    *src_addr,
    int           length
)
{
 4001570:	deffee04 	addi	sp,sp,-72
 4001574:	dfc01115 	stw	ra,68(sp)
 4001578:	df001015 	stw	fp,64(sp)
 400157c:	ddc00f15 	stw	r23,60(sp)
 4001580:	dd800e15 	stw	r22,56(sp)
 4001584:	dd400d15 	stw	r21,52(sp)
 4001588:	dd000c15 	stw	r20,48(sp)
 400158c:	dcc00b15 	stw	r19,44(sp)
 4001590:	dc800a15 	stw	r18,40(sp)
 4001594:	dc400915 	stw	r17,36(sp)
 4001598:	dc000815 	stw	r16,32(sp)
 400159c:	d9000215 	stw	r4,8(sp)
 40015a0:	d9400415 	stw	r5,16(sp)
 40015a4:	d9c00515 	stw	r7,20(sp)
    int         full_length = length;
    int         start_offset = offset;
    alt_onchip_flash_dev* flash = (alt_onchip_flash_dev*)flash_info;

    /* Make sure the input parameters is not outside of this device's range. */
    if ((offset >= flash->dev.length) || (length > (flash->dev.length - offset)))
 40015a8:	28806b0e 	bge	r5,r2,4001758 <alt_onchip_flash_write+0x1ec>
 40015ac:	1145c83a 	sub	r2,r2,r5
 40015b0:	11c06916 	blt	r2,r7,4001758 <alt_onchip_flash_write+0x1ec>
    }

    /*
    * First and foremost which sectors are affected?
    */
    for(i=0;i<flash->dev.number_of_regions;i++)
 40015b4:	20c00c17 	ldw	r3,48(r4)
 40015b8:	00c0690e 	bge	zero,r3,4001760 <alt_onchip_flash_write+0x1f4>
 40015bc:	302d883a 	mov	r22,r6
 40015c0:	d9800217 	ldw	r6,8(sp)
 40015c4:	d8800217 	ldw	r2,8(sp)
 40015c8:	df000517 	ldw	fp,20(sp)
 40015cc:	31800a17 	ldw	r6,40(r6)
 40015d0:	dc800417 	ldw	r18,16(sp)
 40015d4:	15c00f04 	addi	r23,r2,60
 40015d8:	d9800315 	stw	r6,12(sp)
 40015dc:	11801004 	addi	r6,r2,64
 40015e0:	d9800115 	stw	r6,4(sp)
 40015e4:	0027883a 	mov	r19,zero
    {
        /* Is it in this erase block region?*/
        if((offset >= flash->dev.region_info[i].offset) &&
 40015e8:	bc3ffe17 	ldw	r16,-8(r23)
 40015ec:	94000e16 	blt	r18,r16,4001628 <alt_onchip_flash_write+0xbc>
 40015f0:	b8bfff17 	ldw	r2,-4(r23)
 40015f4:	8085883a 	add	r2,r16,r2
 40015f8:	90800b0e 	bge	r18,r2,4001628 <alt_onchip_flash_write+0xbc>
            (offset < (flash->dev.region_info[i].offset +
            flash->dev.region_info[i].region_size)))
        {
            current_offset = flash->dev.region_info[i].offset;

            for(j=0;j<flash->dev.region_info[i].number_of_blocks;j++)
 40015fc:	ba400017 	ldw	r9,0(r23)
 4001600:	0240090e 	bge	zero,r9,4001628 <alt_onchip_flash_write+0xbc>
 4001604:	d8c00117 	ldw	r3,4(sp)
 4001608:	0023883a 	mov	r17,zero
 400160c:	1d000017 	ldw	r20,0(r3)
            {
                if ((offset >= current_offset ) &&
 4001610:	94000d0e 	bge	r18,r16,4001648 <alt_onchip_flash_write+0xdc>
 4001614:	8521883a 	add	r16,r16,r20
            (offset < (flash->dev.region_info[i].offset +
            flash->dev.region_info[i].region_size)))
        {
            current_offset = flash->dev.region_info[i].offset;

            for(j=0;j<flash->dev.region_info[i].number_of_blocks;j++)
 4001618:	8c400044 	addi	r17,r17,1
 400161c:	8a7ffc16 	blt	r17,r9,4001610 <__ram_exceptions_end+0xfabfd484>
 4001620:	d9800217 	ldw	r6,8(sp)
 4001624:	30c00c17 	ldw	r3,48(r6)
 4001628:	d8800117 	ldw	r2,4(sp)
    }

    /*
    * First and foremost which sectors are affected?
    */
    for(i=0;i<flash->dev.number_of_regions;i++)
 400162c:	9cc00044 	addi	r19,r19,1
 4001630:	bdc00404 	addi	r23,r23,16
 4001634:	10800404 	addi	r2,r2,16
 4001638:	d8800115 	stw	r2,4(sp)
 400163c:	98ffea16 	blt	r19,r3,40015e8 <__ram_exceptions_end+0xfabfd45c>
                                                                data_to_write);
                        }
                    }

                    /* Was this the last block? */
                    if ((length == data_to_write) || ret_code)
 4001640:	0005883a 	mov	r2,zero
 4001644:	00002006 	br	40016c8 <alt_onchip_flash_write+0x15c>
            current_offset = flash->dev.region_info[i].offset;

            for(j=0;j<flash->dev.region_info[i].number_of_blocks;j++)
            {
                if ((offset >= current_offset ) &&
                    (offset < (current_offset +
 4001648:	8507883a 	add	r3,r16,r20
        {
            current_offset = flash->dev.region_info[i].offset;

            for(j=0;j<flash->dev.region_info[i].number_of_blocks;j++)
            {
                if ((offset >= current_offset ) &&
 400164c:	90c0130e 	bge	r18,r3,400169c <alt_onchip_flash_write+0x130>
                {
                    /*
                    * Check if the contents of the block are different
                    * from the data we wish to put there
                    */
                    data_to_write = (current_offset + flash->dev.region_info[i].block_size - offset);
 4001650:	1cabc83a 	sub	r21,r3,r18
                    data_to_write = MIN(data_to_write, length);
 4001654:	e540010e 	bge	fp,r21,400165c <alt_onchip_flash_write+0xf0>
 4001658:	e02b883a 	mov	r21,fp
                    if(memcmp(src_addr, (alt_u8*)flash->dev.base_addr+offset, data_to_write))
 400165c:	d8800317 	ldw	r2,12(sp)
 4001660:	a80d883a 	mov	r6,r21
 4001664:	b009883a 	mov	r4,r22
 4001668:	148b883a 	add	r5,r2,r18
 400166c:	d8c00615 	stw	r3,24(sp)
 4001670:	da400715 	stw	r9,28(sp)
 4001674:	40024900 	call	4002490 <memcmp>
 4001678:	d8c00617 	ldw	r3,24(sp)
 400167c:	da400717 	ldw	r9,28(sp)
 4001680:	1000081e 	bne	r2,zero,40016a4 <alt_onchip_flash_write+0x138>
                                                                data_to_write);
                        }
                    }

                    /* Was this the last block? */
                    if ((length == data_to_write) || ret_code)
 4001684:	af3fee26 	beq	r21,fp,4001640 <__ram_exceptions_end+0xfabfd4b4>
 4001688:	1825883a 	mov	r18,r3
                    {
                        goto finished;
                    }

                    length -= data_to_write;
 400168c:	e579c83a 	sub	fp,fp,r21
                    offset = current_offset + flash->dev.region_info[i].block_size;
                    src_addr = (alt_u8*)src_addr + data_to_write;
 4001690:	b56d883a 	add	r22,r22,r21
 4001694:	9021883a 	mov	r16,r18
 4001698:	003fdf06 	br	4001618 <__ram_exceptions_end+0xfabfd48c>
 400169c:	1821883a 	mov	r16,r3
 40016a0:	003fdd06 	br	4001618 <__ram_exceptions_end+0xfabfd48c>
                    */
                    data_to_write = (current_offset + flash->dev.region_info[i].block_size - offset);
                    data_to_write = MIN(data_to_write, length);
                    if(memcmp(src_addr, (alt_u8*)flash->dev.base_addr+offset, data_to_write))
                    {
                        ret_code = (*flash->dev.erase_block)(&flash->dev, current_offset);
 40016a4:	d8c00217 	ldw	r3,8(sp)
 40016a8:	800b883a 	mov	r5,r16
 40016ac:	18800817 	ldw	r2,32(r3)
 40016b0:	1809883a 	mov	r4,r3
 40016b4:	103ee83a 	callr	r2

                        if (!ret_code)
                        {
                            ret_code = (*flash->dev.write_block)(
 40016b8:	d8c00217 	ldw	r3,8(sp)
                    data_to_write = MIN(data_to_write, length);
                    if(memcmp(src_addr, (alt_u8*)flash->dev.base_addr+offset, data_to_write))
                    {
                        ret_code = (*flash->dev.erase_block)(&flash->dev, current_offset);

                        if (!ret_code)
 40016bc:	10001526 	beq	r2,zero,4001714 <alt_onchip_flash_write+0x1a8>
 40016c0:	18c00a17 	ldw	r3,40(r3)
 40016c4:	d8c00315 	stw	r3,12(sp)
            }
        }
    }

finished:
    alt_dcache_flush((alt_u8*)flash->dev.base_addr+start_offset, full_length);
 40016c8:	d8c00317 	ldw	r3,12(sp)
 40016cc:	d9800417 	ldw	r6,16(sp)
 40016d0:	d9400517 	ldw	r5,20(sp)
 40016d4:	d8800615 	stw	r2,24(sp)
 40016d8:	1989883a 	add	r4,r3,r6
 40016dc:	4001c6c0 	call	4001c6c <alt_dcache_flush>
    return ret_code;
 40016e0:	d8800617 	ldw	r2,24(sp)
}
 40016e4:	dfc01117 	ldw	ra,68(sp)
 40016e8:	df001017 	ldw	fp,64(sp)
 40016ec:	ddc00f17 	ldw	r23,60(sp)
 40016f0:	dd800e17 	ldw	r22,56(sp)
 40016f4:	dd400d17 	ldw	r21,52(sp)
 40016f8:	dd000c17 	ldw	r20,48(sp)
 40016fc:	dcc00b17 	ldw	r19,44(sp)
 4001700:	dc800a17 	ldw	r18,40(sp)
 4001704:	dc400917 	ldw	r17,36(sp)
 4001708:	dc000817 	ldw	r16,32(sp)
 400170c:	dec01204 	addi	sp,sp,72
 4001710:	f800283a 	ret
                    {
                        ret_code = (*flash->dev.erase_block)(&flash->dev, current_offset);

                        if (!ret_code)
                        {
                            ret_code = (*flash->dev.write_block)(
 4001714:	18800917 	ldw	r2,36(r3)
 4001718:	b00f883a 	mov	r7,r22
 400171c:	dd400015 	stw	r21,0(sp)
 4001720:	900d883a 	mov	r6,r18
 4001724:	800b883a 	mov	r5,r16
 4001728:	1809883a 	mov	r4,r3
 400172c:	103ee83a 	callr	r2
                                                                data_to_write);
                        }
                    }

                    /* Was this the last block? */
                    if ((length == data_to_write) || ret_code)
 4001730:	af000f26 	beq	r21,fp,4001770 <alt_onchip_flash_write+0x204>
 4001734:	10000e1e 	bne	r2,zero,4001770 <alt_onchip_flash_write+0x204>
 4001738:	d8c00117 	ldw	r3,4(sp)
 400173c:	ba400017 	ldw	r9,0(r23)
 4001740:	1d000017 	ldw	r20,0(r3)
 4001744:	d8c00217 	ldw	r3,8(sp)
 4001748:	8525883a 	add	r18,r16,r20
 400174c:	18c00a17 	ldw	r3,40(r3)
 4001750:	d8c00315 	stw	r3,12(sp)
 4001754:	003fcd06 	br	400168c <__ram_exceptions_end+0xfabfd500>
    alt_onchip_flash_dev* flash = (alt_onchip_flash_dev*)flash_info;

    /* Make sure the input parameters is not outside of this device's range. */
    if ((offset >= flash->dev.length) || (length > (flash->dev.length - offset)))
    {
        return -EFAULT;
 4001758:	00bffc84 	movi	r2,-14
 400175c:	003fe106 	br	40016e4 <__ram_exceptions_end+0xfabfd558>
 4001760:	20c00a17 	ldw	r3,40(r4)
    }

    /*
    * First and foremost which sectors are affected?
    */
    for(i=0;i<flash->dev.number_of_regions;i++)
 4001764:	0005883a 	mov	r2,zero
 4001768:	d8c00315 	stw	r3,12(sp)
 400176c:	003fd606 	br	40016c8 <__ram_exceptions_end+0xfabfd53c>
 4001770:	d8c00217 	ldw	r3,8(sp)
 4001774:	003fd206 	br	40016c0 <__ram_exceptions_end+0xfabfd534>

04001778 <altera_onchip_flash_init>:

    /* Set up flash_region data structures. */
    number_of_regions = 0;
    region_info = &flash->dev.region_info[0];

    if (flash->csr_base != NULL) {
 4001778:	20802f17 	ldw	r2,188(r4)
**/
void altera_onchip_flash_init
(
    alt_onchip_flash_dev *flash
)
{
 400177c:	defff704 	addi	sp,sp,-36
 4001780:	dc800215 	stw	r18,8(sp)
 4001784:	dc000015 	stw	r16,0(sp)
 4001788:	dfc00815 	stw	ra,32(sp)
 400178c:	ddc00715 	stw	r23,28(sp)
 4001790:	dd800615 	stw	r22,24(sp)
 4001794:	dd400515 	stw	r21,20(sp)
 4001798:	dd000415 	stw	r20,16(sp)
 400179c:	dcc00315 	stw	r19,12(sp)
 40017a0:	dc400115 	stw	r17,4(sp)
 40017a4:	2021883a 	mov	r16,r4
    int sector4_status = ALTERA_ONCHIP_FLASH_STATUS_SECTOR4_AVAILABLE;
    int sector5_status = ALTERA_ONCHIP_FLASH_STATUS_SECTOR5_AVAILABLE;

    /* Set up flash_region data structures. */
    number_of_regions = 0;
    region_info = &flash->dev.region_info[0];
 40017a8:	24800d04 	addi	r18,r4,52

    if (flash->csr_base != NULL) {
 40017ac:	10003926 	beq	r2,zero,4001894 <altera_onchip_flash_init+0x11c>
        sector1_status = IORD_ALTERA_ONCHIP_FLASH_STATUS(flash->csr_base) & ALTERA_ONCHIP_FLASH_STATUS_SECTOR1_MSK;
 40017b0:	11000037 	ldwio	r4,0(r2)
        sector2_status = IORD_ALTERA_ONCHIP_FLASH_STATUS(flash->csr_base) & ALTERA_ONCHIP_FLASH_STATUS_SECTOR2_MSK;
 40017b4:	10c00037 	ldwio	r3,0(r2)
 40017b8:	1d40100c 	andi	r21,r3,64
        sector3_status = IORD_ALTERA_ONCHIP_FLASH_STATUS(flash->csr_base) & ALTERA_ONCHIP_FLASH_STATUS_SECTOR3_MSK;
 40017bc:	10c00037 	ldwio	r3,0(r2)
 40017c0:	1d80200c 	andi	r22,r3,128
        sector4_status = IORD_ALTERA_ONCHIP_FLASH_STATUS(flash->csr_base) & ALTERA_ONCHIP_FLASH_STATUS_SECTOR4_MSK;
 40017c4:	15000037 	ldwio	r20,0(r2)
 40017c8:	a500400c 	andi	r20,r20,256
        sector5_status = IORD_ALTERA_ONCHIP_FLASH_STATUS(flash->csr_base) & ALTERA_ONCHIP_FLASH_STATUS_SECTOR5_MSK;
 40017cc:	14c00037 	ldwio	r19,0(r2)
    }

    if ((flash->sector1_enabled == 1) && (sector1_status != ALTERA_ONCHIP_FLASH_STATUS_SECTOR1_UNAVAILABLE)) {
 40017d0:	00800044 	movi	r2,1
 40017d4:	80c03017 	ldw	r3,192(r16)
    if (flash->csr_base != NULL) {
        sector1_status = IORD_ALTERA_ONCHIP_FLASH_STATUS(flash->csr_base) & ALTERA_ONCHIP_FLASH_STATUS_SECTOR1_MSK;
        sector2_status = IORD_ALTERA_ONCHIP_FLASH_STATUS(flash->csr_base) & ALTERA_ONCHIP_FLASH_STATUS_SECTOR2_MSK;
        sector3_status = IORD_ALTERA_ONCHIP_FLASH_STATUS(flash->csr_base) & ALTERA_ONCHIP_FLASH_STATUS_SECTOR3_MSK;
        sector4_status = IORD_ALTERA_ONCHIP_FLASH_STATUS(flash->csr_base) & ALTERA_ONCHIP_FLASH_STATUS_SECTOR4_MSK;
        sector5_status = IORD_ALTERA_ONCHIP_FLASH_STATUS(flash->csr_base) & ALTERA_ONCHIP_FLASH_STATUS_SECTOR5_MSK;
 40017d8:	9cc0800c 	andi	r19,r19,512
    }

    if ((flash->sector1_enabled == 1) && (sector1_status != ALTERA_ONCHIP_FLASH_STATUS_SECTOR1_UNAVAILABLE)) {
 40017dc:	18807726 	beq	r3,r2,40019bc <altera_onchip_flash_init+0x244>
    int sector3_status = ALTERA_ONCHIP_FLASH_STATUS_SECTOR3_AVAILABLE;
    int sector4_status = ALTERA_ONCHIP_FLASH_STATUS_SECTOR4_AVAILABLE;
    int sector5_status = ALTERA_ONCHIP_FLASH_STATUS_SECTOR5_AVAILABLE;

    /* Set up flash_region data structures. */
    number_of_regions = 0;
 40017e0:	0023883a 	mov	r17,zero
        region_info[number_of_regions].block_size = flash->page_size;

        number_of_regions++;
    }

    if ((flash->sector2_enabled == 1) && (sector2_status != ALTERA_ONCHIP_FLASH_STATUS_SECTOR2_UNAVAILABLE)) {
 40017e4:	80c03317 	ldw	r3,204(r16)
 40017e8:	00800044 	movi	r2,1
 40017ec:	18805926 	beq	r3,r2,4001954 <altera_onchip_flash_init+0x1dc>
        region_info[number_of_regions].block_size = flash->page_size;

        number_of_regions++;
	}

    if ((flash->sector3_enabled == 1) && (sector3_status != ALTERA_ONCHIP_FLASH_STATUS_SECTOR3_UNAVAILABLE)) {
 40017f0:	80c03617 	ldw	r3,216(r16)
 40017f4:	00800044 	movi	r2,1
 40017f8:	18804426 	beq	r3,r2,400190c <altera_onchip_flash_init+0x194>
        region_info[number_of_regions].block_size = flash->page_size;

        number_of_regions++;
	}

	if ((flash->sector4_enabled == 1) && (sector4_status != ALTERA_ONCHIP_FLASH_STATUS_SECTOR4_UNAVAILABLE)) {
 40017fc:	80c03917 	ldw	r3,228(r16)
 4001800:	00800044 	movi	r2,1
 4001804:	18803f26 	beq	r3,r2,4001904 <altera_onchip_flash_init+0x18c>
        region_info[number_of_regions].block_size = flash->page_size;

        number_of_regions++;
	}

    if ((flash->sector5_enabled == 1) && (sector5_status != ALTERA_ONCHIP_FLASH_STATUS_SECTOR5_UNAVAILABLE)) {
 4001808:	80c03c17 	ldw	r3,240(r16)
 400180c:	00800044 	movi	r2,1
 4001810:	18800e26 	beq	r3,r2,400184c <altera_onchip_flash_init+0xd4>

static ALT_INLINE int alt_flash_device_register( alt_flash_fd* fd)
{
  extern alt_llist alt_flash_dev_list;

  return alt_dev_llist_insert ((alt_dev_llist*) fd, &alt_flash_dev_list);
 4001814:	d1600d04 	addi	r5,gp,-32716
 4001818:	8009883a 	mov	r4,r16

        number_of_regions++;
    }

    /* Update number of regions. */
    flash->dev.number_of_regions = number_of_regions;
 400181c:	84400c15 	stw	r17,48(r16)

    /*
    *  Register this device as a valid flash device type
    */
    alt_flash_device_register(&(flash->dev));
}
 4001820:	dfc00817 	ldw	ra,32(sp)
 4001824:	ddc00717 	ldw	r23,28(sp)
 4001828:	dd800617 	ldw	r22,24(sp)
 400182c:	dd400517 	ldw	r21,20(sp)
 4001830:	dd000417 	ldw	r20,16(sp)
 4001834:	dcc00317 	ldw	r19,12(sp)
 4001838:	dc800217 	ldw	r18,8(sp)
 400183c:	dc400117 	ldw	r17,4(sp)
 4001840:	dc000017 	ldw	r16,0(sp)
 4001844:	dec00904 	addi	sp,sp,36
 4001848:	4001ccc1 	jmpi	4001ccc <alt_dev_llist_insert>
        region_info[number_of_regions].block_size = flash->page_size;

        number_of_regions++;
	}

    if ((flash->sector5_enabled == 1) && (sector5_status != ALTERA_ONCHIP_FLASH_STATUS_SECTOR5_UNAVAILABLE)) {
 400184c:	983ff11e 	bne	r19,zero,4001814 <__ram_exceptions_end+0xfabfd688>

        region_info[number_of_regions].offset = flash->sector5_start_addr;
 4001850:	81403d17 	ldw	r5,244(r16)
        region_info[number_of_regions].region_size = flash->sector5_end_addr - flash->sector5_start_addr + 1;
 4001854:	80803e17 	ldw	r2,248(r16)
        number_of_regions++;
	}

    if ((flash->sector5_enabled == 1) && (sector5_status != ALTERA_ONCHIP_FLASH_STATUS_SECTOR5_UNAVAILABLE)) {

        region_info[number_of_regions].offset = flash->sector5_start_addr;
 4001858:	8806913a 	slli	r3,r17,4
        region_info[number_of_regions].region_size = flash->sector5_end_addr - flash->sector5_start_addr + 1;
        region_info[number_of_regions].number_of_blocks = flash->dev.region_info[number_of_regions].region_size / flash->page_size;
 400185c:	84c03f17 	ldw	r19,252(r16)
	}

    if ((flash->sector5_enabled == 1) && (sector5_status != ALTERA_ONCHIP_FLASH_STATUS_SECTOR5_UNAVAILABLE)) {

        region_info[number_of_regions].offset = flash->sector5_start_addr;
        region_info[number_of_regions].region_size = flash->sector5_end_addr - flash->sector5_start_addr + 1;
 4001860:	1145c83a 	sub	r2,r2,r5
        number_of_regions++;
	}

    if ((flash->sector5_enabled == 1) && (sector5_status != ALTERA_ONCHIP_FLASH_STATUS_SECTOR5_UNAVAILABLE)) {

        region_info[number_of_regions].offset = flash->sector5_start_addr;
 4001864:	90e5883a 	add	r18,r18,r3
        region_info[number_of_regions].region_size = flash->sector5_end_addr - flash->sector5_start_addr + 1;
 4001868:	10800044 	addi	r2,r2,1
 400186c:	90800115 	stw	r2,4(r18)
        region_info[number_of_regions].number_of_blocks = flash->dev.region_info[number_of_regions].region_size / flash->page_size;
 4001870:	80c7883a 	add	r3,r16,r3
 4001874:	19000e17 	ldw	r4,56(r3)
        number_of_regions++;
	}

    if ((flash->sector5_enabled == 1) && (sector5_status != ALTERA_ONCHIP_FLASH_STATUS_SECTOR5_UNAVAILABLE)) {

        region_info[number_of_regions].offset = flash->sector5_start_addr;
 4001878:	91400015 	stw	r5,0(r18)
        region_info[number_of_regions].region_size = flash->sector5_end_addr - flash->sector5_start_addr + 1;
        region_info[number_of_regions].number_of_blocks = flash->dev.region_info[number_of_regions].region_size / flash->page_size;
 400187c:	980b883a 	mov	r5,r19
 4001880:	40006980 	call	4000698 <__divsi3>
 4001884:	90800215 	stw	r2,8(r18)
        region_info[number_of_regions].block_size = flash->page_size;
 4001888:	94c00315 	stw	r19,12(r18)

        number_of_regions++;
 400188c:	8c400044 	addi	r17,r17,1
 4001890:	003fe006 	br	4001814 <__ram_exceptions_end+0xfabfd688>
        sector3_status = IORD_ALTERA_ONCHIP_FLASH_STATUS(flash->csr_base) & ALTERA_ONCHIP_FLASH_STATUS_SECTOR3_MSK;
        sector4_status = IORD_ALTERA_ONCHIP_FLASH_STATUS(flash->csr_base) & ALTERA_ONCHIP_FLASH_STATUS_SECTOR4_MSK;
        sector5_status = IORD_ALTERA_ONCHIP_FLASH_STATUS(flash->csr_base) & ALTERA_ONCHIP_FLASH_STATUS_SECTOR5_MSK;
    }

    if ((flash->sector1_enabled == 1) && (sector1_status != ALTERA_ONCHIP_FLASH_STATUS_SECTOR1_UNAVAILABLE)) {
 4001894:	20c03017 	ldw	r3,192(r4)
 4001898:	00800044 	movi	r2,1
 400189c:	18805626 	beq	r3,r2,40019f8 <altera_onchip_flash_init+0x280>
        region_info[number_of_regions].block_size = flash->page_size;

        number_of_regions++;
    }

    if ((flash->sector2_enabled == 1) && (sector2_status != ALTERA_ONCHIP_FLASH_STATUS_SECTOR2_UNAVAILABLE)) {
 40018a0:	24403317 	ldw	r17,204(r4)
 40018a4:	88803f26 	beq	r17,r2,40019a4 <altera_onchip_flash_init+0x22c>
        region_info[number_of_regions].block_size = flash->page_size;

        number_of_regions++;
	}

    if ((flash->sector3_enabled == 1) && (sector3_status != ALTERA_ONCHIP_FLASH_STATUS_SECTOR3_UNAVAILABLE)) {
 40018a8:	20c03617 	ldw	r3,216(r4)
 40018ac:	18805726 	beq	r3,r2,4001a0c <altera_onchip_flash_init+0x294>
        region_info[number_of_regions].block_size = flash->page_size;

        number_of_regions++;
	}

	if ((flash->sector4_enabled == 1) && (sector4_status != ALTERA_ONCHIP_FLASH_STATUS_SECTOR4_UNAVAILABLE)) {
 40018b0:	20c03917 	ldw	r3,228(r4)
    flash_region* region_info;
    int sector1_status = ALTERA_ONCHIP_FLASH_STATUS_SECTOR1_AVAILABLE;
    int sector2_status = ALTERA_ONCHIP_FLASH_STATUS_SECTOR2_AVAILABLE;
    int sector3_status = ALTERA_ONCHIP_FLASH_STATUS_SECTOR3_AVAILABLE;
    int sector4_status = ALTERA_ONCHIP_FLASH_STATUS_SECTOR4_AVAILABLE;
    int sector5_status = ALTERA_ONCHIP_FLASH_STATUS_SECTOR5_AVAILABLE;
 40018b4:	0027883a 	mov	r19,zero

    /* Set up flash_region data structures. */
    number_of_regions = 0;
 40018b8:	0023883a 	mov	r17,zero
        region_info[number_of_regions].block_size = flash->page_size;

        number_of_regions++;
	}

	if ((flash->sector4_enabled == 1) && (sector4_status != ALTERA_ONCHIP_FLASH_STATUS_SECTOR4_UNAVAILABLE)) {
 40018bc:	18bfd21e 	bne	r3,r2,4001808 <__ram_exceptions_end+0xfabfd67c>

        region_info[number_of_regions].offset = flash->sector4_start_addr;
 40018c0:	81403a17 	ldw	r5,232(r16)
        region_info[number_of_regions].region_size = flash->sector4_end_addr - flash->sector4_start_addr + 1;
 40018c4:	80803b17 	ldw	r2,236(r16)
        number_of_regions++;
	}

	if ((flash->sector4_enabled == 1) && (sector4_status != ALTERA_ONCHIP_FLASH_STATUS_SECTOR4_UNAVAILABLE)) {

        region_info[number_of_regions].offset = flash->sector4_start_addr;
 40018c8:	8806913a 	slli	r3,r17,4
        region_info[number_of_regions].region_size = flash->sector4_end_addr - flash->sector4_start_addr + 1;
        region_info[number_of_regions].number_of_blocks = flash->dev.region_info[number_of_regions].region_size / flash->page_size;
 40018cc:	85403f17 	ldw	r21,252(r16)
	}

	if ((flash->sector4_enabled == 1) && (sector4_status != ALTERA_ONCHIP_FLASH_STATUS_SECTOR4_UNAVAILABLE)) {

        region_info[number_of_regions].offset = flash->sector4_start_addr;
        region_info[number_of_regions].region_size = flash->sector4_end_addr - flash->sector4_start_addr + 1;
 40018d0:	1145c83a 	sub	r2,r2,r5
        number_of_regions++;
	}

	if ((flash->sector4_enabled == 1) && (sector4_status != ALTERA_ONCHIP_FLASH_STATUS_SECTOR4_UNAVAILABLE)) {

        region_info[number_of_regions].offset = flash->sector4_start_addr;
 40018d4:	90e9883a 	add	r20,r18,r3
        region_info[number_of_regions].region_size = flash->sector4_end_addr - flash->sector4_start_addr + 1;
 40018d8:	10800044 	addi	r2,r2,1
 40018dc:	a0800115 	stw	r2,4(r20)
        region_info[number_of_regions].number_of_blocks = flash->dev.region_info[number_of_regions].region_size / flash->page_size;
 40018e0:	80c7883a 	add	r3,r16,r3
 40018e4:	19000e17 	ldw	r4,56(r3)
        number_of_regions++;
	}

	if ((flash->sector4_enabled == 1) && (sector4_status != ALTERA_ONCHIP_FLASH_STATUS_SECTOR4_UNAVAILABLE)) {

        region_info[number_of_regions].offset = flash->sector4_start_addr;
 40018e8:	a1400015 	stw	r5,0(r20)
        region_info[number_of_regions].region_size = flash->sector4_end_addr - flash->sector4_start_addr + 1;
        region_info[number_of_regions].number_of_blocks = flash->dev.region_info[number_of_regions].region_size / flash->page_size;
 40018ec:	a80b883a 	mov	r5,r21
 40018f0:	40006980 	call	4000698 <__divsi3>
 40018f4:	a0800215 	stw	r2,8(r20)
        region_info[number_of_regions].block_size = flash->page_size;
 40018f8:	a5400315 	stw	r21,12(r20)

        number_of_regions++;
 40018fc:	8c400044 	addi	r17,r17,1
 4001900:	003fc106 	br	4001808 <__ram_exceptions_end+0xfabfd67c>
        region_info[number_of_regions].block_size = flash->page_size;

        number_of_regions++;
	}

	if ((flash->sector4_enabled == 1) && (sector4_status != ALTERA_ONCHIP_FLASH_STATUS_SECTOR4_UNAVAILABLE)) {
 4001904:	a03fee26 	beq	r20,zero,40018c0 <__ram_exceptions_end+0xfabfd734>
 4001908:	003fbf06 	br	4001808 <__ram_exceptions_end+0xfabfd67c>
        region_info[number_of_regions].block_size = flash->page_size;

        number_of_regions++;
	}

    if ((flash->sector3_enabled == 1) && (sector3_status != ALTERA_ONCHIP_FLASH_STATUS_SECTOR3_UNAVAILABLE)) {
 400190c:	b03fbb1e 	bne	r22,zero,40017fc <__ram_exceptions_end+0xfabfd670>

        region_info[number_of_regions].offset = flash->sector3_start_addr;
 4001910:	81403717 	ldw	r5,220(r16)
        region_info[number_of_regions].region_size = flash->sector3_end_addr - flash->sector3_start_addr + 1;
 4001914:	80803817 	ldw	r2,224(r16)
        number_of_regions++;
	}

    if ((flash->sector3_enabled == 1) && (sector3_status != ALTERA_ONCHIP_FLASH_STATUS_SECTOR3_UNAVAILABLE)) {

        region_info[number_of_regions].offset = flash->sector3_start_addr;
 4001918:	8806913a 	slli	r3,r17,4
        region_info[number_of_regions].region_size = flash->sector3_end_addr - flash->sector3_start_addr + 1;
        region_info[number_of_regions].number_of_blocks = flash->dev.region_info[number_of_regions].region_size / flash->page_size;
 400191c:	85803f17 	ldw	r22,252(r16)
	}

    if ((flash->sector3_enabled == 1) && (sector3_status != ALTERA_ONCHIP_FLASH_STATUS_SECTOR3_UNAVAILABLE)) {

        region_info[number_of_regions].offset = flash->sector3_start_addr;
        region_info[number_of_regions].region_size = flash->sector3_end_addr - flash->sector3_start_addr + 1;
 4001920:	1145c83a 	sub	r2,r2,r5
        number_of_regions++;
	}

    if ((flash->sector3_enabled == 1) && (sector3_status != ALTERA_ONCHIP_FLASH_STATUS_SECTOR3_UNAVAILABLE)) {

        region_info[number_of_regions].offset = flash->sector3_start_addr;
 4001924:	90eb883a 	add	r21,r18,r3
        region_info[number_of_regions].region_size = flash->sector3_end_addr - flash->sector3_start_addr + 1;
 4001928:	10800044 	addi	r2,r2,1
 400192c:	a8800115 	stw	r2,4(r21)
        region_info[number_of_regions].number_of_blocks = flash->dev.region_info[number_of_regions].region_size / flash->page_size;
 4001930:	80c7883a 	add	r3,r16,r3
 4001934:	19000e17 	ldw	r4,56(r3)
        number_of_regions++;
	}

    if ((flash->sector3_enabled == 1) && (sector3_status != ALTERA_ONCHIP_FLASH_STATUS_SECTOR3_UNAVAILABLE)) {

        region_info[number_of_regions].offset = flash->sector3_start_addr;
 4001938:	a9400015 	stw	r5,0(r21)
        region_info[number_of_regions].region_size = flash->sector3_end_addr - flash->sector3_start_addr + 1;
        region_info[number_of_regions].number_of_blocks = flash->dev.region_info[number_of_regions].region_size / flash->page_size;
 400193c:	b00b883a 	mov	r5,r22
 4001940:	40006980 	call	4000698 <__divsi3>
 4001944:	a8800215 	stw	r2,8(r21)
        region_info[number_of_regions].block_size = flash->page_size;
 4001948:	ad800315 	stw	r22,12(r21)

        number_of_regions++;
 400194c:	8c400044 	addi	r17,r17,1
 4001950:	003faa06 	br	40017fc <__ram_exceptions_end+0xfabfd670>
        region_info[number_of_regions].block_size = flash->page_size;

        number_of_regions++;
    }

    if ((flash->sector2_enabled == 1) && (sector2_status != ALTERA_ONCHIP_FLASH_STATUS_SECTOR2_UNAVAILABLE)) {
 4001954:	a83fa61e 	bne	r21,zero,40017f0 <__ram_exceptions_end+0xfabfd664>
 4001958:	882a913a 	slli	r21,r17,4
 400195c:	8807883a 	mov	r3,r17
 4001960:	88a3883a 	add	r17,r17,r2

        region_info[number_of_regions].offset = flash->sector2_start_addr;
 4001964:	81403417 	ldw	r5,208(r16)
        region_info[number_of_regions].region_size = flash->sector2_end_addr - flash->sector2_start_addr + 1;
 4001968:	80803517 	ldw	r2,212(r16)
        region_info[number_of_regions].number_of_blocks = flash->dev.region_info[number_of_regions].region_size / flash->page_size;
 400196c:	1806913a 	slli	r3,r3,4
        number_of_regions++;
    }

    if ((flash->sector2_enabled == 1) && (sector2_status != ALTERA_ONCHIP_FLASH_STATUS_SECTOR2_UNAVAILABLE)) {

        region_info[number_of_regions].offset = flash->sector2_start_addr;
 4001970:	956b883a 	add	r21,r18,r21
        region_info[number_of_regions].region_size = flash->sector2_end_addr - flash->sector2_start_addr + 1;
 4001974:	1145c83a 	sub	r2,r2,r5
 4001978:	10800044 	addi	r2,r2,1
        region_info[number_of_regions].number_of_blocks = flash->dev.region_info[number_of_regions].region_size / flash->page_size;
 400197c:	85c03f17 	ldw	r23,252(r16)
    }

    if ((flash->sector2_enabled == 1) && (sector2_status != ALTERA_ONCHIP_FLASH_STATUS_SECTOR2_UNAVAILABLE)) {

        region_info[number_of_regions].offset = flash->sector2_start_addr;
        region_info[number_of_regions].region_size = flash->sector2_end_addr - flash->sector2_start_addr + 1;
 4001980:	a8800115 	stw	r2,4(r21)
        region_info[number_of_regions].number_of_blocks = flash->dev.region_info[number_of_regions].region_size / flash->page_size;
 4001984:	80c5883a 	add	r2,r16,r3
 4001988:	11000e17 	ldw	r4,56(r2)
        number_of_regions++;
    }

    if ((flash->sector2_enabled == 1) && (sector2_status != ALTERA_ONCHIP_FLASH_STATUS_SECTOR2_UNAVAILABLE)) {

        region_info[number_of_regions].offset = flash->sector2_start_addr;
 400198c:	a9400015 	stw	r5,0(r21)
        region_info[number_of_regions].region_size = flash->sector2_end_addr - flash->sector2_start_addr + 1;
        region_info[number_of_regions].number_of_blocks = flash->dev.region_info[number_of_regions].region_size / flash->page_size;
 4001990:	b80b883a 	mov	r5,r23
 4001994:	40006980 	call	4000698 <__divsi3>
 4001998:	a8800215 	stw	r2,8(r21)
        region_info[number_of_regions].block_size = flash->page_size;
 400199c:	adc00315 	stw	r23,12(r21)
 40019a0:	003f9306 	br	40017f0 <__ram_exceptions_end+0xfabfd664>
        region_info[number_of_regions].block_size = flash->page_size;

        number_of_regions++;
    }

    if ((flash->sector2_enabled == 1) && (sector2_status != ALTERA_ONCHIP_FLASH_STATUS_SECTOR2_UNAVAILABLE)) {
 40019a4:	002b883a 	mov	r21,zero
    flash_region* region_info;
    int sector1_status = ALTERA_ONCHIP_FLASH_STATUS_SECTOR1_AVAILABLE;
    int sector2_status = ALTERA_ONCHIP_FLASH_STATUS_SECTOR2_AVAILABLE;
    int sector3_status = ALTERA_ONCHIP_FLASH_STATUS_SECTOR3_AVAILABLE;
    int sector4_status = ALTERA_ONCHIP_FLASH_STATUS_SECTOR4_AVAILABLE;
    int sector5_status = ALTERA_ONCHIP_FLASH_STATUS_SECTOR5_AVAILABLE;
 40019a8:	0027883a 	mov	r19,zero
    int number_of_regions;
    flash_region* region_info;
    int sector1_status = ALTERA_ONCHIP_FLASH_STATUS_SECTOR1_AVAILABLE;
    int sector2_status = ALTERA_ONCHIP_FLASH_STATUS_SECTOR2_AVAILABLE;
    int sector3_status = ALTERA_ONCHIP_FLASH_STATUS_SECTOR3_AVAILABLE;
    int sector4_status = ALTERA_ONCHIP_FLASH_STATUS_SECTOR4_AVAILABLE;
 40019ac:	0029883a 	mov	r20,zero
    /* A region is a sector of the onchip flash */
    int number_of_regions;
    flash_region* region_info;
    int sector1_status = ALTERA_ONCHIP_FLASH_STATUS_SECTOR1_AVAILABLE;
    int sector2_status = ALTERA_ONCHIP_FLASH_STATUS_SECTOR2_AVAILABLE;
    int sector3_status = ALTERA_ONCHIP_FLASH_STATUS_SECTOR3_AVAILABLE;
 40019b0:	002d883a 	mov	r22,zero
    int sector4_status = ALTERA_ONCHIP_FLASH_STATUS_SECTOR4_AVAILABLE;
    int sector5_status = ALTERA_ONCHIP_FLASH_STATUS_SECTOR5_AVAILABLE;

    /* Set up flash_region data structures. */
    number_of_regions = 0;
 40019b4:	0007883a 	mov	r3,zero
 40019b8:	003fea06 	br	4001964 <__ram_exceptions_end+0xfabfd7d8>
        sector3_status = IORD_ALTERA_ONCHIP_FLASH_STATUS(flash->csr_base) & ALTERA_ONCHIP_FLASH_STATUS_SECTOR3_MSK;
        sector4_status = IORD_ALTERA_ONCHIP_FLASH_STATUS(flash->csr_base) & ALTERA_ONCHIP_FLASH_STATUS_SECTOR4_MSK;
        sector5_status = IORD_ALTERA_ONCHIP_FLASH_STATUS(flash->csr_base) & ALTERA_ONCHIP_FLASH_STATUS_SECTOR5_MSK;
    }

    if ((flash->sector1_enabled == 1) && (sector1_status != ALTERA_ONCHIP_FLASH_STATUS_SECTOR1_UNAVAILABLE)) {
 40019bc:	2100080c 	andi	r4,r4,32
 40019c0:	203f871e 	bne	r4,zero,40017e0 <__ram_exceptions_end+0xfabfd654>

        region_info[number_of_regions].offset = flash->sector1_start_addr;
 40019c4:	81003117 	ldw	r4,196(r16)
        region_info[number_of_regions].region_size = flash->sector1_end_addr - flash->sector1_start_addr + 1;
 40019c8:	80803217 	ldw	r2,200(r16)
        region_info[number_of_regions].number_of_blocks = flash->dev.region_info[number_of_regions].region_size / flash->page_size;
 40019cc:	84403f17 	ldw	r17,252(r16)
        sector5_status = IORD_ALTERA_ONCHIP_FLASH_STATUS(flash->csr_base) & ALTERA_ONCHIP_FLASH_STATUS_SECTOR5_MSK;
    }

    if ((flash->sector1_enabled == 1) && (sector1_status != ALTERA_ONCHIP_FLASH_STATUS_SECTOR1_UNAVAILABLE)) {

        region_info[number_of_regions].offset = flash->sector1_start_addr;
 40019d0:	81000d15 	stw	r4,52(r16)
        region_info[number_of_regions].region_size = flash->sector1_end_addr - flash->sector1_start_addr + 1;
 40019d4:	1109c83a 	sub	r4,r2,r4
 40019d8:	21000044 	addi	r4,r4,1
        region_info[number_of_regions].number_of_blocks = flash->dev.region_info[number_of_regions].region_size / flash->page_size;
 40019dc:	880b883a 	mov	r5,r17
    }

    if ((flash->sector1_enabled == 1) && (sector1_status != ALTERA_ONCHIP_FLASH_STATUS_SECTOR1_UNAVAILABLE)) {

        region_info[number_of_regions].offset = flash->sector1_start_addr;
        region_info[number_of_regions].region_size = flash->sector1_end_addr - flash->sector1_start_addr + 1;
 40019e0:	81000e15 	stw	r4,56(r16)
        region_info[number_of_regions].number_of_blocks = flash->dev.region_info[number_of_regions].region_size / flash->page_size;
 40019e4:	40006980 	call	4000698 <__divsi3>
 40019e8:	80800f15 	stw	r2,60(r16)
        region_info[number_of_regions].block_size = flash->page_size;
 40019ec:	84401015 	stw	r17,64(r16)

        number_of_regions++;
 40019f0:	04400044 	movi	r17,1
 40019f4:	003f7b06 	br	40017e4 <__ram_exceptions_end+0xfabfd658>
    flash_region* region_info;
    int sector1_status = ALTERA_ONCHIP_FLASH_STATUS_SECTOR1_AVAILABLE;
    int sector2_status = ALTERA_ONCHIP_FLASH_STATUS_SECTOR2_AVAILABLE;
    int sector3_status = ALTERA_ONCHIP_FLASH_STATUS_SECTOR3_AVAILABLE;
    int sector4_status = ALTERA_ONCHIP_FLASH_STATUS_SECTOR4_AVAILABLE;
    int sector5_status = ALTERA_ONCHIP_FLASH_STATUS_SECTOR5_AVAILABLE;
 40019f8:	0027883a 	mov	r19,zero
    int number_of_regions;
    flash_region* region_info;
    int sector1_status = ALTERA_ONCHIP_FLASH_STATUS_SECTOR1_AVAILABLE;
    int sector2_status = ALTERA_ONCHIP_FLASH_STATUS_SECTOR2_AVAILABLE;
    int sector3_status = ALTERA_ONCHIP_FLASH_STATUS_SECTOR3_AVAILABLE;
    int sector4_status = ALTERA_ONCHIP_FLASH_STATUS_SECTOR4_AVAILABLE;
 40019fc:	0029883a 	mov	r20,zero
    /* A region is a sector of the onchip flash */
    int number_of_regions;
    flash_region* region_info;
    int sector1_status = ALTERA_ONCHIP_FLASH_STATUS_SECTOR1_AVAILABLE;
    int sector2_status = ALTERA_ONCHIP_FLASH_STATUS_SECTOR2_AVAILABLE;
    int sector3_status = ALTERA_ONCHIP_FLASH_STATUS_SECTOR3_AVAILABLE;
 4001a00:	002d883a 	mov	r22,zero
{
    /* A region is a sector of the onchip flash */
    int number_of_regions;
    flash_region* region_info;
    int sector1_status = ALTERA_ONCHIP_FLASH_STATUS_SECTOR1_AVAILABLE;
    int sector2_status = ALTERA_ONCHIP_FLASH_STATUS_SECTOR2_AVAILABLE;
 4001a04:	002b883a 	mov	r21,zero
 4001a08:	003fee06 	br	40019c4 <__ram_exceptions_end+0xfabfd838>
    int sector3_status = ALTERA_ONCHIP_FLASH_STATUS_SECTOR3_AVAILABLE;
    int sector4_status = ALTERA_ONCHIP_FLASH_STATUS_SECTOR4_AVAILABLE;
    int sector5_status = ALTERA_ONCHIP_FLASH_STATUS_SECTOR5_AVAILABLE;
 4001a0c:	0027883a 	mov	r19,zero
    int number_of_regions;
    flash_region* region_info;
    int sector1_status = ALTERA_ONCHIP_FLASH_STATUS_SECTOR1_AVAILABLE;
    int sector2_status = ALTERA_ONCHIP_FLASH_STATUS_SECTOR2_AVAILABLE;
    int sector3_status = ALTERA_ONCHIP_FLASH_STATUS_SECTOR3_AVAILABLE;
    int sector4_status = ALTERA_ONCHIP_FLASH_STATUS_SECTOR4_AVAILABLE;
 4001a10:	0029883a 	mov	r20,zero
    int sector5_status = ALTERA_ONCHIP_FLASH_STATUS_SECTOR5_AVAILABLE;

    /* Set up flash_region data structures. */
    number_of_regions = 0;
 4001a14:	0023883a 	mov	r17,zero
 4001a18:	003fbd06 	br	4001910 <__ram_exceptions_end+0xfabfd784>

04001a1c <alt_onchip_flash_poll_for_status_to_go_idle>:
**/
int alt_onchip_flash_poll_for_status_to_go_idle
(
    alt_onchip_flash_dev *flash
)
{
 4001a1c:	defffd04 	addi	sp,sp,-12
 4001a20:	dc000015 	stw	r16,0(sp)
    int ret_code = 0;
    int timeout = ALTERA_ONCHIP_FLASH_STATUS_BIT_POLLING_TIMEOUT_VALUE;
    int count_down = ALTERA_ONCHIP_FLASH_STATUS_BIT_POLLING_TIMEOUT_VALUE;

    while (
 4001a24:	040002f4 	movhi	r16,11
**/
int alt_onchip_flash_poll_for_status_to_go_idle
(
    alt_onchip_flash_dev *flash
)
{
 4001a28:	dc400115 	stw	r17,4(sp)
 4001a2c:	dfc00215 	stw	ra,8(sp)
 4001a30:	2023883a 	mov	r17,r4
    int ret_code = 0;
    int timeout = ALTERA_ONCHIP_FLASH_STATUS_BIT_POLLING_TIMEOUT_VALUE;
    int count_down = ALTERA_ONCHIP_FLASH_STATUS_BIT_POLLING_TIMEOUT_VALUE;

    while (
 4001a34:	842b9804 	addi	r16,r16,-20896
 4001a38:	00000206 	br	4001a44 <alt_onchip_flash_poll_for_status_to_go_idle+0x28>
        (IORD_ALTERA_ONCHIP_FLASH_STATUS(flash->csr_base) &
              ALTERA_ONCHIP_FLASH_STATUS_BUSY_MSK
        ) !=  ALTERA_ONCHIP_FLASH_STATUS_BUSY_IDLE
    ) {
	 
	alt_busy_sleep(1); /* delay 1us */
 4001a3c:	4001b380 	call	4001b38 <alt_busy_sleep>

        /* If timeout value is zero, it will never timeout. */
        if (timeout != 0) {
            count_down--;
            if (count_down == 0) {
 4001a40:	80000b26 	beq	r16,zero,4001a70 <alt_onchip_flash_poll_for_status_to_go_idle+0x54>
    int ret_code = 0;
    int timeout = ALTERA_ONCHIP_FLASH_STATUS_BIT_POLLING_TIMEOUT_VALUE;
    int count_down = ALTERA_ONCHIP_FLASH_STATUS_BIT_POLLING_TIMEOUT_VALUE;

    while (
        (IORD_ALTERA_ONCHIP_FLASH_STATUS(flash->csr_base) &
 4001a44:	88802f17 	ldw	r2,188(r17)
 4001a48:	10800037 	ldwio	r2,0(r2)
              ALTERA_ONCHIP_FLASH_STATUS_BUSY_MSK
        ) !=  ALTERA_ONCHIP_FLASH_STATUS_BUSY_IDLE
    ) {
	 
	alt_busy_sleep(1); /* delay 1us */
 4001a4c:	01000044 	movi	r4,1
{
    int ret_code = 0;
    int timeout = ALTERA_ONCHIP_FLASH_STATUS_BIT_POLLING_TIMEOUT_VALUE;
    int count_down = ALTERA_ONCHIP_FLASH_STATUS_BIT_POLLING_TIMEOUT_VALUE;

    while (
 4001a50:	108000cc 	andi	r2,r2,3
 4001a54:	843fffc4 	addi	r16,r16,-1
 4001a58:	103ff81e 	bne	r2,zero,4001a3c <__ram_exceptions_end+0xfabfd8b0>
            }
        }
    }

    return ret_code;
}
 4001a5c:	dfc00217 	ldw	ra,8(sp)
 4001a60:	dc400117 	ldw	r17,4(sp)
 4001a64:	dc000017 	ldw	r16,0(sp)
 4001a68:	dec00304 	addi	sp,sp,12
 4001a6c:	f800283a 	ret
        /* If timeout value is zero, it will never timeout. */
        if (timeout != 0) {
            count_down--;
            if (count_down == 0) {
                /* Timeout */
                ret_code = -ETIMEDOUT;
 4001a70:	00bfe304 	movi	r2,-116
 4001a74:	003ff906 	br	4001a5c <__ram_exceptions_end+0xfabfd8d0>

04001a78 <alt_onchip_flash_poll_for_status_erase_passed>:
**/
int alt_onchip_flash_poll_for_status_erase_passed
(
    alt_onchip_flash_dev *flash
)
{
 4001a78:	defffd04 	addi	sp,sp,-12
 4001a7c:	dc000015 	stw	r16,0(sp)
    int ret_code = 0;
    int timeout = ALTERA_ONCHIP_FLASH_STATUS_BIT_POLLING_TIMEOUT_VALUE;
    int count_down = ALTERA_ONCHIP_FLASH_STATUS_BIT_POLLING_TIMEOUT_VALUE;

    while (
 4001a80:	040002f4 	movhi	r16,11
**/
int alt_onchip_flash_poll_for_status_erase_passed
(
    alt_onchip_flash_dev *flash
)
{
 4001a84:	dc400115 	stw	r17,4(sp)
 4001a88:	dfc00215 	stw	ra,8(sp)
 4001a8c:	2023883a 	mov	r17,r4
    int ret_code = 0;
    int timeout = ALTERA_ONCHIP_FLASH_STATUS_BIT_POLLING_TIMEOUT_VALUE;
    int count_down = ALTERA_ONCHIP_FLASH_STATUS_BIT_POLLING_TIMEOUT_VALUE;

    while (
 4001a90:	842b9804 	addi	r16,r16,-20896
 4001a94:	00000206 	br	4001aa0 <alt_onchip_flash_poll_for_status_erase_passed+0x28>
        (IORD_ALTERA_ONCHIP_FLASH_STATUS(flash->csr_base) &
              ALTERA_ONCHIP_FLASH_STATUS_ERASE_MSK
        ) !=  ALTERA_ONCHIP_FLASH_STATUS_ERASE_PASSED
    ) {

	alt_busy_sleep(1); /* delay 1us */
 4001a98:	4001b380 	call	4001b38 <alt_busy_sleep>

        /* If timeout value is zero, it will never timeout. */
        if (timeout != 0) {
            count_down--;
            if (count_down == 0) {
 4001a9c:	80000c26 	beq	r16,zero,4001ad0 <alt_onchip_flash_poll_for_status_erase_passed+0x58>
    int ret_code = 0;
    int timeout = ALTERA_ONCHIP_FLASH_STATUS_BIT_POLLING_TIMEOUT_VALUE;
    int count_down = ALTERA_ONCHIP_FLASH_STATUS_BIT_POLLING_TIMEOUT_VALUE;

    while (
        (IORD_ALTERA_ONCHIP_FLASH_STATUS(flash->csr_base) &
 4001aa0:	88802f17 	ldw	r2,188(r17)
 4001aa4:	10800037 	ldwio	r2,0(r2)
              ALTERA_ONCHIP_FLASH_STATUS_ERASE_MSK
        ) !=  ALTERA_ONCHIP_FLASH_STATUS_ERASE_PASSED
    ) {

	alt_busy_sleep(1); /* delay 1us */
 4001aa8:	01000044 	movi	r4,1
{
    int ret_code = 0;
    int timeout = ALTERA_ONCHIP_FLASH_STATUS_BIT_POLLING_TIMEOUT_VALUE;
    int count_down = ALTERA_ONCHIP_FLASH_STATUS_BIT_POLLING_TIMEOUT_VALUE;

    while (
 4001aac:	1080040c 	andi	r2,r2,16
 4001ab0:	843fffc4 	addi	r16,r16,-1
 4001ab4:	103ff826 	beq	r2,zero,4001a98 <__ram_exceptions_end+0xfabfd90c>
int alt_onchip_flash_poll_for_status_erase_passed
(
    alt_onchip_flash_dev *flash
)
{
    int ret_code = 0;
 4001ab8:	0005883a 	mov	r2,zero
            }
        }
    }

    return ret_code;
}
 4001abc:	dfc00217 	ldw	ra,8(sp)
 4001ac0:	dc400117 	ldw	r17,4(sp)
 4001ac4:	dc000017 	ldw	r16,0(sp)
 4001ac8:	dec00304 	addi	sp,sp,12
 4001acc:	f800283a 	ret
        /* If timeout value is zero, it will never timeout. */
        if (timeout != 0) {
            count_down--;
            if (count_down == 0) {
                /* Timeout */
                ret_code = -ETIMEDOUT;
 4001ad0:	00bfe304 	movi	r2,-116
 4001ad4:	003ff906 	br	4001abc <__ram_exceptions_end+0xfabfd930>

04001ad8 <alt_onchip_flash_poll_for_status_write_passed>:
**/
int alt_onchip_flash_poll_for_status_write_passed
(
    alt_onchip_flash_dev *flash
)
{
 4001ad8:	defffd04 	addi	sp,sp,-12
 4001adc:	dc000015 	stw	r16,0(sp)
    int ret_code = 0;
    int timeout = ALTERA_ONCHIP_FLASH_STATUS_BIT_POLLING_TIMEOUT_VALUE;
    int count_down = ALTERA_ONCHIP_FLASH_STATUS_BIT_POLLING_TIMEOUT_VALUE;

    while (
 4001ae0:	040002f4 	movhi	r16,11
**/
int alt_onchip_flash_poll_for_status_write_passed
(
    alt_onchip_flash_dev *flash
)
{
 4001ae4:	dc400115 	stw	r17,4(sp)
 4001ae8:	dfc00215 	stw	ra,8(sp)
 4001aec:	2023883a 	mov	r17,r4
    int ret_code = 0;
    int timeout = ALTERA_ONCHIP_FLASH_STATUS_BIT_POLLING_TIMEOUT_VALUE;
    int count_down = ALTERA_ONCHIP_FLASH_STATUS_BIT_POLLING_TIMEOUT_VALUE;

    while (
 4001af0:	842b9804 	addi	r16,r16,-20896
 4001af4:	00000206 	br	4001b00 <alt_onchip_flash_poll_for_status_write_passed+0x28>
        (IORD_ALTERA_ONCHIP_FLASH_STATUS(flash->csr_base) &
              ALTERA_ONCHIP_FLASH_STATUS_WRITE_MSK
        ) !=  ALTERA_ONCHIP_FLASH_STATUS_WRITE_PASSED
    ) {

	alt_busy_sleep(1); /* delay 1us */
 4001af8:	4001b380 	call	4001b38 <alt_busy_sleep>

        /* If timeout value is zero, it will never timeout. */
        if (timeout != 0) {
            count_down--;
            if (count_down == 0) {
 4001afc:	80000c26 	beq	r16,zero,4001b30 <alt_onchip_flash_poll_for_status_write_passed+0x58>
    int ret_code = 0;
    int timeout = ALTERA_ONCHIP_FLASH_STATUS_BIT_POLLING_TIMEOUT_VALUE;
    int count_down = ALTERA_ONCHIP_FLASH_STATUS_BIT_POLLING_TIMEOUT_VALUE;

    while (
        (IORD_ALTERA_ONCHIP_FLASH_STATUS(flash->csr_base) &
 4001b00:	88802f17 	ldw	r2,188(r17)
 4001b04:	10800037 	ldwio	r2,0(r2)
              ALTERA_ONCHIP_FLASH_STATUS_WRITE_MSK
        ) !=  ALTERA_ONCHIP_FLASH_STATUS_WRITE_PASSED
    ) {

	alt_busy_sleep(1); /* delay 1us */
 4001b08:	01000044 	movi	r4,1
{
    int ret_code = 0;
    int timeout = ALTERA_ONCHIP_FLASH_STATUS_BIT_POLLING_TIMEOUT_VALUE;
    int count_down = ALTERA_ONCHIP_FLASH_STATUS_BIT_POLLING_TIMEOUT_VALUE;

    while (
 4001b0c:	1080020c 	andi	r2,r2,8
 4001b10:	843fffc4 	addi	r16,r16,-1
 4001b14:	103ff826 	beq	r2,zero,4001af8 <__ram_exceptions_end+0xfabfd96c>
int alt_onchip_flash_poll_for_status_write_passed
(
    alt_onchip_flash_dev *flash
)
{
    int ret_code = 0;
 4001b18:	0005883a 	mov	r2,zero
            }
        }
    }

    return ret_code;
}
 4001b1c:	dfc00217 	ldw	ra,8(sp)
 4001b20:	dc400117 	ldw	r17,4(sp)
 4001b24:	dc000017 	ldw	r16,0(sp)
 4001b28:	dec00304 	addi	sp,sp,12
 4001b2c:	f800283a 	ret
        /* If timeout value is zero, it will never timeout. */
        if (timeout != 0) {
            count_down--;
            if (count_down == 0) {
                /* Timeout */
                ret_code = -ETIMEDOUT;
 4001b30:	00bfe304 	movi	r2,-116
 4001b34:	003ff906 	br	4001b1c <__ram_exceptions_end+0xfabfd990>

04001b38 <alt_busy_sleep>:
  {
    cycles_per_loop = 3;
  }
  

  big_loops = us / (INT_MAX/
 4001b38:	01413b34 	movhi	r5,1260
#include "alt_types.h"

#include "priv/alt_busy_sleep.h"

unsigned int alt_busy_sleep (unsigned int us)
{
 4001b3c:	defffe04 	addi	sp,sp,-8
  {
    cycles_per_loop = 3;
  }
  

  big_loops = us / (INT_MAX/
 4001b40:	2953b104 	addi	r5,r5,20164
#include "alt_types.h"

#include "priv/alt_busy_sleep.h"

unsigned int alt_busy_sleep (unsigned int us)
{
 4001b44:	dc000015 	stw	r16,0(sp)
 4001b48:	dfc00115 	stw	ra,4(sp)
 4001b4c:	2021883a 	mov	r16,r4
  {
    cycles_per_loop = 3;
  }
  

  big_loops = us / (INT_MAX/
 4001b50:	40007900 	call	4000790 <__udivsi3>
  (ALT_CPU_FREQ/(cycles_per_loop * 1000000)));

  if (big_loops)
 4001b54:	10001226 	beq	r2,zero,4001ba0 <alt_busy_sleep+0x68>
      /*
      * Do NOT Try to single step the asm statement below 
      * (single step will never return)
      * Step out of this function or set a breakpoint after the asm statements
      */
      __asm__ volatile (
 4001b58:	01600034 	movhi	r5,32768
        "\n1:"
        "\n\t.pushsection .debug_alt_sim_info"
        "\n\t.int 4, 0, 0b, 1b"
        "\n\t.popsection"
        :: "r" (INT_MAX));
      us -= (INT_MAX/(ALT_CPU_FREQ/
 4001b5c:	013ec534 	movhi	r4,64276
      /*
      * Do NOT Try to single step the asm statement below 
      * (single step will never return)
      * Step out of this function or set a breakpoint after the asm statements
      */
      __asm__ volatile (
 4001b60:	297fffc4 	addi	r5,r5,-1
        "\n1:"
        "\n\t.pushsection .debug_alt_sim_info"
        "\n\t.int 4, 0, 0b, 1b"
        "\n\t.popsection"
        :: "r" (INT_MAX));
      us -= (INT_MAX/(ALT_CPU_FREQ/
 4001b64:	212c4f04 	addi	r4,r4,-20164
 4001b68:	0007883a 	mov	r3,zero
      /*
      * Do NOT Try to single step the asm statement below 
      * (single step will never return)
      * Step out of this function or set a breakpoint after the asm statements
      */
      __asm__ volatile (
 4001b6c:	297fffc4 	addi	r5,r5,-1
 4001b70:	283ffe1e 	bne	r5,zero,4001b6c <__ram_exceptions_end+0xfabfd9e0>
  big_loops = us / (INT_MAX/
  (ALT_CPU_FREQ/(cycles_per_loop * 1000000)));

  if (big_loops)
  {
    for(i=0;i<big_loops;i++)
 4001b74:	18c00044 	addi	r3,r3,1
        "\n1:"
        "\n\t.pushsection .debug_alt_sim_info"
        "\n\t.int 4, 0, 0b, 1b"
        "\n\t.popsection"
        :: "r" (INT_MAX));
      us -= (INT_MAX/(ALT_CPU_FREQ/
 4001b78:	8121883a 	add	r16,r16,r4
  big_loops = us / (INT_MAX/
  (ALT_CPU_FREQ/(cycles_per_loop * 1000000)));

  if (big_loops)
  {
    for(i=0;i<big_loops;i++)
 4001b7c:	18bffb16 	blt	r3,r2,4001b6c <__ram_exceptions_end+0xfabfd9e0>
    /*
    * Do NOT Try to single step the asm statement below 
    * (single step will never return)
    * Step out of this function or set a breakpoint after the asm statements
    */
    __asm__ volatile (
 4001b80:	840006a4 	muli	r16,r16,26
 4001b84:	843fffc4 	addi	r16,r16,-1
 4001b88:	803ffe1e 	bne	r16,zero,4001b84 <__ram_exceptions_end+0xfabfd9f8>
      "\n\t.popsection"
      :: "r" (us*(ALT_CPU_FREQ/(cycles_per_loop * 1000000))));
  }
#endif /* #ifndef ALT_SIM_OPTIMIZE */
  return 0;
}
 4001b8c:	0005883a 	mov	r2,zero
 4001b90:	dfc00117 	ldw	ra,4(sp)
 4001b94:	dc000017 	ldw	r16,0(sp)
 4001b98:	dec00204 	addi	sp,sp,8
 4001b9c:	f800283a 	ret
    /*
    * Do NOT Try to single step the asm statement below 
    * (single step will never return)
    * Step out of this function or set a breakpoint after the asm statements
    */
    __asm__ volatile (
 4001ba0:	840006a4 	muli	r16,r16,26
 4001ba4:	843fffc4 	addi	r16,r16,-1
 4001ba8:	043ffe16 	blt	zero,r16,4001ba4 <__ram_exceptions_end+0xfabfda18>
 4001bac:	003ff706 	br	4001b8c <__ram_exceptions_end+0xfabfda00>

04001bb0 <close>:
 *
 * ALT_CLOSE is mapped onto the close() system call in alt_syscall.h
 */
 
int ALT_CLOSE (int fildes)
{
 4001bb0:	defffd04 	addi	sp,sp,-12
 4001bb4:	dfc00215 	stw	ra,8(sp)
 4001bb8:	dc400115 	stw	r17,4(sp)
 4001bbc:	dc000015 	stw	r16,0(sp)
   * A common error case is that when the file descriptor was created, the call
   * to open() failed resulting in a negative file descriptor. This is trapped
   * below so that we don't try and process an invalid file descriptor.
   */

  fd = (fildes < 0) ? NULL : &alt_fd_list[fildes];
 4001bc0:	20001f16 	blt	r4,zero,4001c40 <close+0x90>
 4001bc4:	20c00324 	muli	r3,r4,12
 4001bc8:	00810034 	movhi	r2,1024
 4001bcc:	1094a804 	addi	r2,r2,21152
 4001bd0:	1885883a 	add	r2,r3,r2
 4001bd4:	2021883a 	mov	r16,r4

  if (fd)
 4001bd8:	10001926 	beq	r2,zero,4001c40 <close+0x90>
    /*
     * If the associated file system/device has a close function, call it so 
     * that any necessary cleanup code can run.
     */

    rval = (fd->dev->close) ? fd->dev->close(fd) : 0;
 4001bdc:	10c00017 	ldw	r3,0(r2)
 4001be0:	18c00417 	ldw	r3,16(r3)
 4001be4:	18000c26 	beq	r3,zero,4001c18 <close+0x68>
 4001be8:	1009883a 	mov	r4,r2
 4001bec:	183ee83a 	callr	r3

    /* Free the file descriptor structure and return. */

    alt_release_fd (fildes);
 4001bf0:	8009883a 	mov	r4,r16
    /*
     * If the associated file system/device has a close function, call it so 
     * that any necessary cleanup code can run.
     */

    rval = (fd->dev->close) ? fd->dev->close(fd) : 0;
 4001bf4:	1023883a 	mov	r17,r2

    /* Free the file descriptor structure and return. */

    alt_release_fd (fildes);
 4001bf8:	40021740 	call	4002174 <alt_release_fd>
    if (rval < 0)
    {
      ALT_ERRNO = -rval;
      return -1;
    }
    return 0;
 4001bfc:	0005883a 	mov	r2,zero
    rval = (fd->dev->close) ? fd->dev->close(fd) : 0;

    /* Free the file descriptor structure and return. */

    alt_release_fd (fildes);
    if (rval < 0)
 4001c00:	88000816 	blt	r17,zero,4001c24 <close+0x74>
  else
  {
    ALT_ERRNO = EBADFD;
    return -1;
  }
}
 4001c04:	dfc00217 	ldw	ra,8(sp)
 4001c08:	dc400117 	ldw	r17,4(sp)
 4001c0c:	dc000017 	ldw	r16,0(sp)
 4001c10:	dec00304 	addi	sp,sp,12
 4001c14:	f800283a 	ret

    rval = (fd->dev->close) ? fd->dev->close(fd) : 0;

    /* Free the file descriptor structure and return. */

    alt_release_fd (fildes);
 4001c18:	40021740 	call	4002174 <alt_release_fd>
    if (rval < 0)
    {
      ALT_ERRNO = -rval;
      return -1;
    }
    return 0;
 4001c1c:	0005883a 	mov	r2,zero
 4001c20:	003ff806 	br	4001c04 <__ram_exceptions_end+0xfabfda78>

extern int errno;

static ALT_INLINE int* alt_get_errno(void)
{
  return ((alt_errno) ? alt_errno() : &errno);
 4001c24:	d0a00c17 	ldw	r2,-32720(gp)
 4001c28:	10000c26 	beq	r2,zero,4001c5c <close+0xac>
 4001c2c:	103ee83a 	callr	r2
    /* Free the file descriptor structure and return. */

    alt_release_fd (fildes);
    if (rval < 0)
    {
      ALT_ERRNO = -rval;
 4001c30:	0463c83a 	sub	r17,zero,r17
 4001c34:	14400015 	stw	r17,0(r2)
      return -1;
 4001c38:	00bfffc4 	movi	r2,-1
 4001c3c:	003ff106 	br	4001c04 <__ram_exceptions_end+0xfabfda78>
 4001c40:	d0a00c17 	ldw	r2,-32720(gp)
 4001c44:	10000726 	beq	r2,zero,4001c64 <close+0xb4>
 4001c48:	103ee83a 	callr	r2
    }
    return 0;
  }
  else
  {
    ALT_ERRNO = EBADFD;
 4001c4c:	00c01444 	movi	r3,81
 4001c50:	10c00015 	stw	r3,0(r2)
    return -1;
 4001c54:	00bfffc4 	movi	r2,-1
 4001c58:	003fea06 	br	4001c04 <__ram_exceptions_end+0xfabfda78>
 4001c5c:	d0a30c04 	addi	r2,gp,-29648
 4001c60:	003ff306 	br	4001c30 <__ram_exceptions_end+0xfabfdaa4>
 4001c64:	d0a30c04 	addi	r2,gp,-29648
 4001c68:	003ff806 	br	4001c4c <__ram_exceptions_end+0xfabfdac0>

04001c6c <alt_dcache_flush>:
void alt_dcache_flush (void* start, alt_u32 len)
{
#if NIOS2_DCACHE_SIZE > 0

  char* i;
  char* end = ((char*) start) + len; 
 4001c6c:	214b883a 	add	r5,r4,r5

  for (i = start; i < end; i+= NIOS2_DCACHE_LINE_SIZE)
 4001c70:	2005883a 	mov	r2,r4
 4001c74:	2140092e 	bgeu	r4,r5,4001c9c <alt_dcache_flush+0x30>
  { 
    ALT_FLUSH_DATA(i); 
 4001c78:	1000001b 	flushda	0(r2)
#if NIOS2_DCACHE_SIZE > 0

  char* i;
  char* end = ((char*) start) + len; 

  for (i = start; i < end; i+= NIOS2_DCACHE_LINE_SIZE)
 4001c7c:	10800804 	addi	r2,r2,32
 4001c80:	117ffd36 	bltu	r2,r5,4001c78 <__ram_exceptions_end+0xfabfdaec>
 4001c84:	0104303a 	nor	r2,zero,r4
 4001c88:	1145883a 	add	r2,r2,r5
 4001c8c:	1004d17a 	srli	r2,r2,5
 4001c90:	10800044 	addi	r2,r2,1
 4001c94:	1004917a 	slli	r2,r2,5
 4001c98:	2085883a 	add	r2,r4,r2
   * For an unaligned flush request, we've got one more line left.
   * Note that this is dependent on NIOS2_DCACHE_LINE_SIZE to be a 
   * multiple of 2 (which it always is).
   */

  if (((alt_u32) start) & (NIOS2_DCACHE_LINE_SIZE - 1))
 4001c9c:	210007cc 	andi	r4,r4,31
 4001ca0:	20000126 	beq	r4,zero,4001ca8 <alt_dcache_flush+0x3c>
  {
    ALT_FLUSH_DATA(i);
 4001ca4:	1000001b 	flushda	0(r2)
 4001ca8:	f800283a 	ret

04001cac <alt_dcache_flush_all>:
void alt_dcache_flush_all (void)
{
#if NIOS2_DCACHE_SIZE > 0
  char* i;
  
  for (i = (char*) 0; i < (char*) NIOS2_DCACHE_SIZE; i+= NIOS2_DCACHE_LINE_SIZE)
 4001cac:	0005883a 	mov	r2,zero
 4001cb0:	00c20004 	movi	r3,2048
  { 
    __asm__ volatile ("flushd (%0)" :: "r" (i));
 4001cb4:	1000003b 	flushd	0(r2)
void alt_dcache_flush_all (void)
{
#if NIOS2_DCACHE_SIZE > 0
  char* i;
  
  for (i = (char*) 0; i < (char*) NIOS2_DCACHE_SIZE; i+= NIOS2_DCACHE_LINE_SIZE)
 4001cb8:	10800804 	addi	r2,r2,32
 4001cbc:	10fffd1e 	bne	r2,r3,4001cb4 <__ram_exceptions_end+0xfabfdb28>
  { 
    __asm__ volatile ("flushd (%0)" :: "r" (i));
  }
#endif /* NIOS2_DCACHE_SIZE > 0 */
}
 4001cc0:	f800283a 	ret

04001cc4 <alt_dev_null_write>:
 */

static int alt_dev_null_write (alt_fd* fd, const char* ptr, int len)
{
  return len;
}
 4001cc4:	3005883a 	mov	r2,r6
 4001cc8:	f800283a 	ret

04001ccc <alt_dev_llist_insert>:
{
  /*
   * check that the device exists, and that it has a valid name.
   */

  if (!dev || !dev->name)
 4001ccc:	20000a26 	beq	r4,zero,4001cf8 <alt_dev_llist_insert+0x2c>
 4001cd0:	20800217 	ldw	r2,8(r4)
 4001cd4:	10000826 	beq	r2,zero,4001cf8 <alt_dev_llist_insert+0x2c>

static ALT_INLINE void ALT_ALWAYS_INLINE alt_llist_insert(alt_llist* list, 
                alt_llist* entry)
{
  entry->previous = list;
  entry->next     = list->next;
 4001cd8:	28c00017 	ldw	r3,0(r5)
 */

static ALT_INLINE void ALT_ALWAYS_INLINE alt_llist_insert(alt_llist* list, 
                alt_llist* entry)
{
  entry->previous = list;
 4001cdc:	21400115 	stw	r5,4(r4)
   * register the device.
   */
  
  alt_llist_insert(list, &dev->llist);

  return 0;  
 4001ce0:	0005883a 	mov	r2,zero
  entry->next     = list->next;
 4001ce4:	20c00015 	stw	r3,0(r4)

  list->next->previous = entry;
 4001ce8:	28c00017 	ldw	r3,0(r5)
 4001cec:	19000115 	stw	r4,4(r3)
  list->next           = entry;
 4001cf0:	29000015 	stw	r4,0(r5)
 4001cf4:	f800283a 	ret
 4001cf8:	d0a00c17 	ldw	r2,-32720(gp)
 4001cfc:	10000926 	beq	r2,zero,4001d24 <alt_dev_llist_insert+0x58>
/*
 *
 */

int alt_dev_llist_insert (alt_dev_llist* dev, alt_llist* list)
{
 4001d00:	deffff04 	addi	sp,sp,-4
 4001d04:	dfc00015 	stw	ra,0(sp)
 4001d08:	103ee83a 	callr	r2
   * check that the device exists, and that it has a valid name.
   */

  if (!dev || !dev->name)
  {
    ALT_ERRNO = EINVAL;
 4001d0c:	00c00584 	movi	r3,22
 4001d10:	10c00015 	stw	r3,0(r2)
    return -EINVAL;
 4001d14:	00bffa84 	movi	r2,-22
   */
  
  alt_llist_insert(list, &dev->llist);

  return 0;  
}
 4001d18:	dfc00017 	ldw	ra,0(sp)
 4001d1c:	dec00104 	addi	sp,sp,4
 4001d20:	f800283a 	ret
 4001d24:	d0a30c04 	addi	r2,gp,-29648
   * check that the device exists, and that it has a valid name.
   */

  if (!dev || !dev->name)
  {
    ALT_ERRNO = EINVAL;
 4001d28:	00c00584 	movi	r3,22
 4001d2c:	10c00015 	stw	r3,0(r2)
    return -EINVAL;
 4001d30:	00bffa84 	movi	r2,-22
   */
  
  alt_llist_insert(list, &dev->llist);

  return 0;  
}
 4001d34:	f800283a 	ret

04001d38 <alt_find_dev>:
 * "name" must be an exact match for the devices registered name for a match to
 * be found.
 */
 
alt_dev* alt_find_dev(const char* name, alt_llist* llist)
{
 4001d38:	defffb04 	addi	sp,sp,-20
 4001d3c:	dc000015 	stw	r16,0(sp)
  alt_dev* next = (alt_dev*) llist->next;
 4001d40:	2c000017 	ldw	r16,0(r5)
 * "name" must be an exact match for the devices registered name for a match to
 * be found.
 */
 
alt_dev* alt_find_dev(const char* name, alt_llist* llist)
{
 4001d44:	dc400115 	stw	r17,4(sp)
 4001d48:	2823883a 	mov	r17,r5
 4001d4c:	dcc00315 	stw	r19,12(sp)
 4001d50:	dfc00415 	stw	ra,16(sp)
 4001d54:	dc800215 	stw	r18,8(sp)
 4001d58:	2027883a 	mov	r19,r4
  alt_dev* next = (alt_dev*) llist->next;
  alt_32 len;

  len  = strlen(name) + 1;
 4001d5c:	40028440 	call	4002844 <strlen>
  /*
   * Check each list entry in turn, until a match is found, or we reach the
   * end of the list (i.e. next winds up pointing back to the list head).
   */ 

  while (next != (alt_dev*) llist)
 4001d60:	8c000b26 	beq	r17,r16,4001d90 <alt_find_dev+0x58>
 4001d64:	14800044 	addi	r18,r2,1
 4001d68:	00000206 	br	4001d74 <alt_find_dev+0x3c>
    {
      /* match found */

      return next;
    }
    next = (alt_dev*) next->llist.next;
 4001d6c:	84000017 	ldw	r16,0(r16)
  /*
   * Check each list entry in turn, until a match is found, or we reach the
   * end of the list (i.e. next winds up pointing back to the list head).
   */ 

  while (next != (alt_dev*) llist)
 4001d70:	8c000726 	beq	r17,r16,4001d90 <alt_find_dev+0x58>
    /* 
     * memcmp() is used here rather than strcmp() in order to reduce the size
     * of the executable.
     */

    if (!memcmp (next->name, name, len))
 4001d74:	81000217 	ldw	r4,8(r16)
 4001d78:	900d883a 	mov	r6,r18
 4001d7c:	980b883a 	mov	r5,r19
 4001d80:	40024900 	call	4002490 <memcmp>
 4001d84:	103ff91e 	bne	r2,zero,4001d6c <__ram_exceptions_end+0xfabfdbe0>
 4001d88:	8005883a 	mov	r2,r16
 4001d8c:	00000106 	br	4001d94 <alt_find_dev+0x5c>
    next = (alt_dev*) next->llist.next;
  }
  
  /* No match found */
  
  return NULL;
 4001d90:	0005883a 	mov	r2,zero
}
 4001d94:	dfc00417 	ldw	ra,16(sp)
 4001d98:	dcc00317 	ldw	r19,12(sp)
 4001d9c:	dc800217 	ldw	r18,8(sp)
 4001da0:	dc400117 	ldw	r17,4(sp)
 4001da4:	dc000017 	ldw	r16,0(sp)
 4001da8:	dec00504 	addi	sp,sp,20
 4001dac:	f800283a 	ret

04001db0 <alt_flash_open_dev>:
#include "priv/alt_file.h"

ALT_LLIST_HEAD(alt_flash_dev_list);

alt_flash_fd* alt_flash_open_dev(const char* name)
{
 4001db0:	defffe04 	addi	sp,sp,-8
  alt_flash_dev* dev = (alt_flash_dev*)alt_find_dev(name, &alt_flash_dev_list);
 4001db4:	d1600d04 	addi	r5,gp,-32716
#include "priv/alt_file.h"

ALT_LLIST_HEAD(alt_flash_dev_list);

alt_flash_fd* alt_flash_open_dev(const char* name)
{
 4001db8:	dc000015 	stw	r16,0(sp)
 4001dbc:	dfc00115 	stw	ra,4(sp)
 4001dc0:	2021883a 	mov	r16,r4
  alt_flash_dev* dev = (alt_flash_dev*)alt_find_dev(name, &alt_flash_dev_list);
 4001dc4:	4001d380 	call	4001d38 <alt_find_dev>

  if ((dev) && dev->open)
 4001dc8:	10000826 	beq	r2,zero,4001dec <alt_flash_open_dev+0x3c>
 4001dcc:	10c00317 	ldw	r3,12(r2)
 4001dd0:	18000726 	beq	r3,zero,4001df0 <alt_flash_open_dev+0x40>
  {
    return dev->open(dev, name);
 4001dd4:	800b883a 	mov	r5,r16
 4001dd8:	1009883a 	mov	r4,r2
  }

  return dev;
}
 4001ddc:	dfc00117 	ldw	ra,4(sp)
 4001de0:	dc000017 	ldw	r16,0(sp)
 4001de4:	dec00204 	addi	sp,sp,8
{
  alt_flash_dev* dev = (alt_flash_dev*)alt_find_dev(name, &alt_flash_dev_list);

  if ((dev) && dev->open)
  {
    return dev->open(dev, name);
 4001de8:	1800683a 	jmp	r3
 4001dec:	0005883a 	mov	r2,zero
  }

  return dev;
}
 4001df0:	dfc00117 	ldw	ra,4(sp)
 4001df4:	dc000017 	ldw	r16,0(sp)
 4001df8:	dec00204 	addi	sp,sp,8
 4001dfc:	f800283a 	ret

04001e00 <alt_flash_close_dev>:

void alt_flash_close_dev(alt_flash_fd* fd)
{
  if (fd && fd->close)
 4001e00:	20000326 	beq	r4,zero,4001e10 <alt_flash_close_dev+0x10>
 4001e04:	20800417 	ldw	r2,16(r4)
 4001e08:	10000126 	beq	r2,zero,4001e10 <alt_flash_close_dev+0x10>
  {
    fd->close(fd);
 4001e0c:	1000683a 	jmp	r2
 4001e10:	f800283a 	ret

04001e14 <alt_icache_flush_all>:
 */

void alt_icache_flush_all (void)
{
#if NIOS2_ICACHE_SIZE > 0
  alt_icache_flush (0, NIOS2_ICACHE_SIZE);
 4001e14:	01420004 	movi	r5,2048
 4001e18:	0009883a 	mov	r4,zero
 4001e1c:	400229c1 	jmpi	400229c <alt_icache_flush>

04001e20 <alt_ic_isr_register>:
  * @return                 0 if successful, else error (-1)
  */
int alt_ic_isr_register(alt_u32 ic_id, alt_u32 irq, alt_isr_func isr, 
  void *isr_context, void *flags)
{
    return alt_iic_isr_register(ic_id, irq, isr, isr_context, flags);
 4001e20:	4001eac1 	jmpi	4001eac <alt_iic_isr_register>

04001e24 <alt_ic_irq_enable>:
static ALT_INLINE alt_irq_context ALT_ALWAYS_INLINE 
       alt_irq_disable_all (void)
{
  alt_irq_context context;

  NIOS2_READ_STATUS (context);
 4001e24:	0009303a 	rdctl	r4,status

  NIOS2_WRITE_STATUS (context & ~NIOS2_STATUS_PIE_MSK);
 4001e28:	00bfff84 	movi	r2,-2
 4001e2c:	2084703a 	and	r2,r4,r2
 4001e30:	1001703a 	wrctl	status,r2
  alt_irq_context  status;
  extern volatile alt_u32 alt_irq_active;

  status = alt_irq_disable_all ();

  alt_irq_active |= (1 << id);
 4001e34:	00c00044 	movi	r3,1
 4001e38:	d0a30a17 	ldw	r2,-29656(gp)
 4001e3c:	194a983a 	sll	r5,r3,r5
 4001e40:	288ab03a 	or	r5,r5,r2
 4001e44:	d1630a15 	stw	r5,-29656(gp)
  NIOS2_WRITE_IENABLE (alt_irq_active);
 4001e48:	d0a30a17 	ldw	r2,-29656(gp)
 4001e4c:	100170fa 	wrctl	ienable,r2
  status &= ~NIOS2_STATUS_PIE_MSK;
  status |= (context & NIOS2_STATUS_PIE_MSK);
  
  NIOS2_WRITE_STATUS (status);
#else
  NIOS2_WRITE_STATUS (context);
 4001e50:	2001703a 	wrctl	status,r4
  * @return                 0 if successful, else error (-1)
  */
int alt_ic_irq_enable (alt_u32 ic_id, alt_u32 irq)
{
    return alt_irq_enable(irq);
}
 4001e54:	0005883a 	mov	r2,zero
 4001e58:	f800283a 	ret

04001e5c <alt_ic_irq_disable>:
static ALT_INLINE alt_irq_context ALT_ALWAYS_INLINE 
       alt_irq_disable_all (void)
{
  alt_irq_context context;

  NIOS2_READ_STATUS (context);
 4001e5c:	0009303a 	rdctl	r4,status

  NIOS2_WRITE_STATUS (context & ~NIOS2_STATUS_PIE_MSK);
 4001e60:	00bfff84 	movi	r2,-2
 4001e64:	2084703a 	and	r2,r4,r2
 4001e68:	1001703a 	wrctl	status,r2
  alt_irq_context  status;
  extern volatile alt_u32 alt_irq_active;

  status = alt_irq_disable_all ();

  alt_irq_active &= ~(1 << id);
 4001e6c:	00ffff84 	movi	r3,-2
 4001e70:	d0a30a17 	ldw	r2,-29656(gp)
 4001e74:	194a183a 	rol	r5,r3,r5
 4001e78:	288a703a 	and	r5,r5,r2
 4001e7c:	d1630a15 	stw	r5,-29656(gp)
  NIOS2_WRITE_IENABLE (alt_irq_active);
 4001e80:	d0a30a17 	ldw	r2,-29656(gp)
 4001e84:	100170fa 	wrctl	ienable,r2
  status &= ~NIOS2_STATUS_PIE_MSK;
  status |= (context & NIOS2_STATUS_PIE_MSK);
  
  NIOS2_WRITE_STATUS (status);
#else
  NIOS2_WRITE_STATUS (context);
 4001e88:	2001703a 	wrctl	status,r4
  * @return                 0 if successful, else error (-1)
  */
int alt_ic_irq_disable(alt_u32 ic_id, alt_u32 irq)
{
    return alt_irq_disable(irq);
}
 4001e8c:	0005883a 	mov	r2,zero
 4001e90:	f800283a 	ret

04001e94 <alt_ic_irq_enabled>:
  */
alt_u32 alt_ic_irq_enabled(alt_u32 ic_id, alt_u32 irq)
{
    alt_u32 irq_enabled;

    NIOS2_READ_IENABLE(irq_enabled);
 4001e94:	000730fa 	rdctl	r3,ienable

    return (irq_enabled & (1 << irq)) ? 1: 0;
 4001e98:	00800044 	movi	r2,1
 4001e9c:	1144983a 	sll	r2,r2,r5
 4001ea0:	10c4703a 	and	r2,r2,r3
}
 4001ea4:	1004c03a 	cmpne	r2,r2,zero
 4001ea8:	f800283a 	ret

04001eac <alt_iic_isr_register>:
{
  int rc = -EINVAL;  
  int id = irq;             /* IRQ interpreted as the interrupt ID. */
  alt_irq_context status;

  if (id < ALT_NIRQ)
 4001eac:	00c007c4 	movi	r3,31
 4001eb0:	19401616 	blt	r3,r5,4001f0c <alt_iic_isr_register+0x60>
  * @param flags            
  * @return                 0 if successful, else error (-1)
  */
int alt_iic_isr_register(alt_u32 ic_id, alt_u32 irq, alt_isr_func isr, 
  void *isr_context, void *flags)
{
 4001eb4:	defffe04 	addi	sp,sp,-8
 4001eb8:	dfc00115 	stw	ra,4(sp)
 4001ebc:	dc000015 	stw	r16,0(sp)
static ALT_INLINE alt_irq_context ALT_ALWAYS_INLINE 
       alt_irq_disable_all (void)
{
  alt_irq_context context;

  NIOS2_READ_STATUS (context);
 4001ec0:	0021303a 	rdctl	r16,status

  NIOS2_WRITE_STATUS (context & ~NIOS2_STATUS_PIE_MSK);
 4001ec4:	00ffff84 	movi	r3,-2
 4001ec8:	80c6703a 	and	r3,r16,r3
 4001ecc:	1801703a 	wrctl	status,r3
     * state.
     */

    status = alt_irq_disable_all();

    alt_irq[id].handler = isr;
 4001ed0:	280490fa 	slli	r2,r5,3
 4001ed4:	00c10034 	movhi	r3,1024
 4001ed8:	18da4f04 	addi	r3,r3,26940
 4001edc:	1885883a 	add	r2,r3,r2
 4001ee0:	11800015 	stw	r6,0(r2)
    alt_irq[id].context = isr_context;
 4001ee4:	11c00115 	stw	r7,4(r2)

    rc = (isr) ? alt_ic_irq_enable(ic_id, id) : alt_ic_irq_disable(ic_id, id);
 4001ee8:	30000626 	beq	r6,zero,4001f04 <alt_iic_isr_register+0x58>
 4001eec:	4001e240 	call	4001e24 <alt_ic_irq_enable>
  status &= ~NIOS2_STATUS_PIE_MSK;
  status |= (context & NIOS2_STATUS_PIE_MSK);
  
  NIOS2_WRITE_STATUS (status);
#else
  NIOS2_WRITE_STATUS (context);
 4001ef0:	8001703a 	wrctl	status,r16

    alt_irq_enable_all(status);
  }

  return rc; 
}
 4001ef4:	dfc00117 	ldw	ra,4(sp)
 4001ef8:	dc000017 	ldw	r16,0(sp)
 4001efc:	dec00204 	addi	sp,sp,8
 4001f00:	f800283a 	ret
    status = alt_irq_disable_all();

    alt_irq[id].handler = isr;
    alt_irq[id].context = isr_context;

    rc = (isr) ? alt_ic_irq_enable(ic_id, id) : alt_ic_irq_disable(ic_id, id);
 4001f04:	4001e5c0 	call	4001e5c <alt_ic_irq_disable>
 4001f08:	003ff906 	br	4001ef0 <__ram_exceptions_end+0xfabfdd64>
  * @return                 0 if successful, else error (-1)
  */
int alt_iic_isr_register(alt_u32 ic_id, alt_u32 irq, alt_isr_func isr, 
  void *isr_context, void *flags)
{
  int rc = -EINVAL;  
 4001f0c:	00bffa84 	movi	r2,-22
 4001f10:	f800283a 	ret

04001f14 <alt_open_fd.constprop.0>:
 *
 * If the device can not be succesfully opened, then the input file descriptor
 * remains unchanged.
 */

static void alt_open_fd(alt_fd* fd, const char* name, int flags, int mode)
 4001f14:	defffe04 	addi	sp,sp,-8
 4001f18:	2805883a 	mov	r2,r5
 4001f1c:	dc000015 	stw	r16,0(sp)
 4001f20:	300b883a 	mov	r5,r6
 4001f24:	2021883a 	mov	r16,r4
{
  int old;

  old = open (name, flags, mode);
 4001f28:	01807fc4 	movi	r6,511
 4001f2c:	1009883a 	mov	r4,r2
 *
 * If the device can not be succesfully opened, then the input file descriptor
 * remains unchanged.
 */

static void alt_open_fd(alt_fd* fd, const char* name, int flags, int mode)
 4001f30:	dfc00115 	stw	ra,4(sp)
{
  int old;

  old = open (name, flags, mode);
 4001f34:	4001ffc0 	call	4001ffc <open>

  if (old >= 0)
 4001f38:	10000f16 	blt	r2,zero,4001f78 <alt_open_fd.constprop.0+0x64>
  {
    fd->dev      = alt_fd_list[old].dev;
 4001f3c:	10c00324 	muli	r3,r2,12
    fd->priv     = alt_fd_list[old].priv;
    fd->fd_flags = alt_fd_list[old].fd_flags;

    alt_release_fd (old);
 4001f40:	1009883a 	mov	r4,r2

  old = open (name, flags, mode);

  if (old >= 0)
  {
    fd->dev      = alt_fd_list[old].dev;
 4001f44:	00810034 	movhi	r2,1024
 4001f48:	1094a804 	addi	r2,r2,21152
 4001f4c:	10c5883a 	add	r2,r2,r3
 4001f50:	11400017 	ldw	r5,0(r2)
    fd->priv     = alt_fd_list[old].priv;
    fd->fd_flags = alt_fd_list[old].fd_flags;
 4001f54:	10c00217 	ldw	r3,8(r2)

  old = open (name, flags, mode);

  if (old >= 0)
  {
    fd->dev      = alt_fd_list[old].dev;
 4001f58:	81400015 	stw	r5,0(r16)
    fd->priv     = alt_fd_list[old].priv;
 4001f5c:	10800117 	ldw	r2,4(r2)
    fd->fd_flags = alt_fd_list[old].fd_flags;
 4001f60:	80c00215 	stw	r3,8(r16)
  old = open (name, flags, mode);

  if (old >= 0)
  {
    fd->dev      = alt_fd_list[old].dev;
    fd->priv     = alt_fd_list[old].priv;
 4001f64:	80800115 	stw	r2,4(r16)
    fd->fd_flags = alt_fd_list[old].fd_flags;

    alt_release_fd (old);
  }
} 
 4001f68:	dfc00117 	ldw	ra,4(sp)
 4001f6c:	dc000017 	ldw	r16,0(sp)
 4001f70:	dec00204 	addi	sp,sp,8
  {
    fd->dev      = alt_fd_list[old].dev;
    fd->priv     = alt_fd_list[old].priv;
    fd->fd_flags = alt_fd_list[old].fd_flags;

    alt_release_fd (old);
 4001f74:	40021741 	jmpi	4002174 <alt_release_fd>
  }
} 
 4001f78:	dfc00117 	ldw	ra,4(sp)
 4001f7c:	dc000017 	ldw	r16,0(sp)
 4001f80:	dec00204 	addi	sp,sp,8
 4001f84:	f800283a 	ret

04001f88 <alt_io_redirect>:
 */
 
void alt_io_redirect(const char* stdout_dev, 
                     const char* stdin_dev, 
                     const char* stderr_dev)
{
 4001f88:	defffb04 	addi	sp,sp,-20
 4001f8c:	dc000015 	stw	r16,0(sp)
  /* Redirect the channels */

  alt_open_fd (&alt_fd_list[STDOUT_FILENO], stdout_dev, O_WRONLY, 0777);
 4001f90:	04010034 	movhi	r16,1024
 4001f94:	8414ab04 	addi	r16,r16,21164
 */
 
void alt_io_redirect(const char* stdout_dev, 
                     const char* stdin_dev, 
                     const char* stderr_dev)
{
 4001f98:	dc400115 	stw	r17,4(sp)
  /* Redirect the channels */

  alt_open_fd (&alt_fd_list[STDOUT_FILENO], stdout_dev, O_WRONLY, 0777);
 4001f9c:	04400044 	movi	r17,1
 */
 
void alt_io_redirect(const char* stdout_dev, 
                     const char* stdin_dev, 
                     const char* stderr_dev)
{
 4001fa0:	dcc00315 	stw	r19,12(sp)
 4001fa4:	dc800215 	stw	r18,8(sp)
 4001fa8:	2827883a 	mov	r19,r5
 4001fac:	3025883a 	mov	r18,r6
  /* Redirect the channels */

  alt_open_fd (&alt_fd_list[STDOUT_FILENO], stdout_dev, O_WRONLY, 0777);
 4001fb0:	200b883a 	mov	r5,r4
 4001fb4:	880d883a 	mov	r6,r17
 4001fb8:	8009883a 	mov	r4,r16
 */
 
void alt_io_redirect(const char* stdout_dev, 
                     const char* stdin_dev, 
                     const char* stderr_dev)
{
 4001fbc:	dfc00415 	stw	ra,16(sp)
  /* Redirect the channels */

  alt_open_fd (&alt_fd_list[STDOUT_FILENO], stdout_dev, O_WRONLY, 0777);
 4001fc0:	4001f140 	call	4001f14 <alt_open_fd.constprop.0>
  alt_open_fd (&alt_fd_list[STDIN_FILENO], stdin_dev, O_RDONLY, 0777);
 4001fc4:	813ffd04 	addi	r4,r16,-12
 4001fc8:	980b883a 	mov	r5,r19
 4001fcc:	000d883a 	mov	r6,zero
 4001fd0:	4001f140 	call	4001f14 <alt_open_fd.constprop.0>
  alt_open_fd (&alt_fd_list[STDERR_FILENO], stderr_dev, O_WRONLY, 0777);
 4001fd4:	880d883a 	mov	r6,r17
 4001fd8:	900b883a 	mov	r5,r18
 4001fdc:	81000304 	addi	r4,r16,12
}  
 4001fe0:	dfc00417 	ldw	ra,16(sp)
 4001fe4:	dcc00317 	ldw	r19,12(sp)
 4001fe8:	dc800217 	ldw	r18,8(sp)
 4001fec:	dc400117 	ldw	r17,4(sp)
 4001ff0:	dc000017 	ldw	r16,0(sp)
 4001ff4:	dec00504 	addi	sp,sp,20
{
  /* Redirect the channels */

  alt_open_fd (&alt_fd_list[STDOUT_FILENO], stdout_dev, O_WRONLY, 0777);
  alt_open_fd (&alt_fd_list[STDIN_FILENO], stdin_dev, O_RDONLY, 0777);
  alt_open_fd (&alt_fd_list[STDERR_FILENO], stderr_dev, O_WRONLY, 0777);
 4001ff8:	4001f141 	jmpi	4001f14 <alt_open_fd.constprop.0>

04001ffc <open>:
 *
 * ALT_OPEN is mapped onto the open() system call in alt_syscall.h
 */
 
int ALT_OPEN (const char* file, int flags, int mode)
{ 
 4001ffc:	defffa04 	addi	sp,sp,-24
 4002000:	dc000015 	stw	r16,0(sp)
 4002004:	2821883a 	mov	r16,r5
  /* 
   * Check the device list, to see if a device with a matching name is 
   * registered.
   */
  
  if (!(dev = alt_find_dev (file, &alt_dev_list)))
 4002008:	d1600804 	addi	r5,gp,-32736
 *
 * ALT_OPEN is mapped onto the open() system call in alt_syscall.h
 */
 
int ALT_OPEN (const char* file, int flags, int mode)
{ 
 400200c:	dc800215 	stw	r18,8(sp)
 4002010:	dc400115 	stw	r17,4(sp)
 4002014:	dfc00515 	stw	ra,20(sp)
 4002018:	dd000415 	stw	r20,16(sp)
 400201c:	dcc00315 	stw	r19,12(sp)
 4002020:	2023883a 	mov	r17,r4
 4002024:	3025883a 	mov	r18,r6
  /* 
   * Check the device list, to see if a device with a matching name is 
   * registered.
   */
  
  if (!(dev = alt_find_dev (file, &alt_dev_list)))
 4002028:	4001d380 	call	4001d38 <alt_find_dev>
 400202c:	10004626 	beq	r2,zero,4002148 <open+0x14c>
   * If a matching device or filesystem is found, allocate a file descriptor. 
   */

  if (dev)
  {
    if ((index = alt_get_fd (dev)) < 0)
 4002030:	1009883a 	mov	r4,r2
 4002034:	1029883a 	mov	r20,r2
 4002038:	400224c0 	call	400224c <alt_get_fd>
 400203c:	1027883a 	mov	r19,r2
 4002040:	1000090e 	bge	r2,zero,4002068 <open+0x6c>
 4002044:	04e1c83a 	sub	r16,zero,r19

  /* Allocation failed, so clean up and return an error */ 

  if (status < 0)
  {
    alt_release_fd (index);  
 4002048:	9809883a 	mov	r4,r19
 400204c:	40021740 	call	4002174 <alt_release_fd>
 4002050:	d0a00c17 	ldw	r2,-32720(gp)
 4002054:	10004326 	beq	r2,zero,4002164 <open+0x168>
 4002058:	103ee83a 	callr	r2
    ALT_ERRNO = -status;
 400205c:	14000015 	stw	r16,0(r2)
    return -1;
 4002060:	00bfffc4 	movi	r2,-1
 4002064:	00002e06 	br	4002120 <open+0x124>
    {
      status = index;
    }
    else
    {
      fd = &alt_fd_list[index];
 4002068:	99000324 	muli	r4,r19,12

  /*
   * Mark the file descriptor as belonging to a device.
   */

  fd->fd_flags |= ALT_FD_DEV;
 400206c:	00d00034 	movhi	r3,16384
    {
      status = index;
    }
    else
    {
      fd = &alt_fd_list[index];
 4002070:	00810034 	movhi	r2,1024

  /*
   * Mark the file descriptor as belonging to a device.
   */

  fd->fd_flags |= ALT_FD_DEV;
 4002074:	18ffffc4 	addi	r3,r3,-1
    {
      status = index;
    }
    else
    {
      fd = &alt_fd_list[index];
 4002078:	1094a804 	addi	r2,r2,21152

  /*
   * Mark the file descriptor as belonging to a device.
   */

  fd->fd_flags |= ALT_FD_DEV;
 400207c:	80c6703a 	and	r3,r16,r3
 4002080:	18d00034 	orhi	r3,r3,16384
    {
      status = index;
    }
    else
    {
      fd = &alt_fd_list[index];
 4002084:	2089883a 	add	r4,r4,r2

  /*
   * Mark the file descriptor as belonging to a device.
   */

  fd->fd_flags |= ALT_FD_DEV;
 4002088:	20c00215 	stw	r3,8(r4)
  /*
   * Loop through all current file descriptors searching for one that's locked
   * for exclusive access. If a match is found, generate an error.
   */

  for (i = 0; i <= alt_max_fd; i++)
 400208c:	d2200717 	ldw	r8,-32740(gp)
 4002090:	21c00017 	ldw	r7,0(r4)
 4002094:	11400204 	addi	r5,r2,8
 4002098:	0007883a 	mov	r3,zero
 400209c:	00000306 	br	40020ac <open+0xb0>
 40020a0:	10800304 	addi	r2,r2,12
 40020a4:	29400304 	addi	r5,r5,12
 40020a8:	40c01436 	bltu	r8,r3,40020fc <open+0x100>
  {
    if ((alt_fd_list[i].dev == fd->dev) &&
 40020ac:	11800017 	ldw	r6,0(r2)
  /*
   * Loop through all current file descriptors searching for one that's locked
   * for exclusive access. If a match is found, generate an error.
   */

  for (i = 0; i <= alt_max_fd; i++)
 40020b0:	18c00044 	addi	r3,r3,1
  {
    if ((alt_fd_list[i].dev == fd->dev) &&
 40020b4:	31fffa1e 	bne	r6,r7,40020a0 <__ram_exceptions_end+0xfabfdf14>
 40020b8:	29800017 	ldw	r6,0(r5)
 40020bc:	303ff80e 	bge	r6,zero,40020a0 <__ram_exceptions_end+0xfabfdf14>
        (alt_fd_list[i].fd_flags & ALT_FD_EXCL) &&
 40020c0:	20bff726 	beq	r4,r2,40020a0 <__ram_exceptions_end+0xfabfdf14>
 40020c4:	04000344 	movi	r16,13
 40020c8:	003fdf06 	br	4002048 <__ram_exceptions_end+0xfabfdebc>
   * If a matching device or filesystem is found, allocate a file descriptor. 
   */

  if (dev)
  {
    if ((index = alt_get_fd (dev)) < 0)
 40020cc:	1009883a 	mov	r4,r2
 40020d0:	400224c0 	call	400224c <alt_get_fd>
 40020d4:	1027883a 	mov	r19,r2
 40020d8:	103fda16 	blt	r2,zero,4002044 <__ram_exceptions_end+0xfabfdeb8>
    {
      status = index;
    }
    else
    {
      fd = &alt_fd_list[index];
 40020dc:	99000324 	muli	r4,r19,12
 40020e0:	00810034 	movhi	r2,1024
 40020e4:	1094a804 	addi	r2,r2,21152
 40020e8:	2089883a 	add	r4,r4,r2
      fd->fd_flags = (flags & ~ALT_FD_FLAGS_MASK);
 40020ec:	00900034 	movhi	r2,16384
 40020f0:	10bfffc4 	addi	r2,r2,-1
 40020f4:	8084703a 	and	r2,r16,r2
 40020f8:	20800215 	stw	r2,8(r4)
        /* 
         * If the device or filesystem provides an open() callback function,
         * call it now to perform any device/filesystem specific operations.
         */
    
        status = (dev->open) ? dev->open(fd, file, flags, mode): 0;
 40020fc:	a0800317 	ldw	r2,12(r20)
 4002100:	10000f26 	beq	r2,zero,4002140 <open+0x144>
 4002104:	900f883a 	mov	r7,r18
 4002108:	800d883a 	mov	r6,r16
 400210c:	880b883a 	mov	r5,r17
 4002110:	103ee83a 	callr	r2
 4002114:	1007883a 	mov	r3,r2
 4002118:	9805883a 	mov	r2,r19
    status = -ENODEV;
  }

  /* Allocation failed, so clean up and return an error */ 

  if (status < 0)
 400211c:	18001316 	blt	r3,zero,400216c <open+0x170>
  }
  
  /* return the reference upon success */

  return index;
}
 4002120:	dfc00517 	ldw	ra,20(sp)
 4002124:	dd000417 	ldw	r20,16(sp)
 4002128:	dcc00317 	ldw	r19,12(sp)
 400212c:	dc800217 	ldw	r18,8(sp)
 4002130:	dc400117 	ldw	r17,4(sp)
 4002134:	dc000017 	ldw	r16,0(sp)
 4002138:	dec00604 	addi	sp,sp,24
 400213c:	f800283a 	ret
 4002140:	9805883a 	mov	r2,r19
 4002144:	003ff606 	br	4002120 <__ram_exceptions_end+0xfabfdf94>
  
  if (!(dev = alt_find_dev (file, &alt_dev_list)))
  {
    /* No matching device, so try the filesystem list */

    dev   = alt_find_file (file);
 4002148:	8809883a 	mov	r4,r17
 400214c:	40021a00 	call	40021a0 <alt_find_file>
 4002150:	1029883a 	mov	r20,r2

  /* 
   * If a matching device or filesystem is found, allocate a file descriptor. 
   */

  if (dev)
 4002154:	103fdd1e 	bne	r2,zero,40020cc <__ram_exceptions_end+0xfabfdf40>
 4002158:	040004c4 	movi	r16,19
 
int ALT_OPEN (const char* file, int flags, int mode)
{ 
  alt_dev* dev;
  alt_fd*  fd;
  int index  = -1;
 400215c:	04ffffc4 	movi	r19,-1
 4002160:	003fb906 	br	4002048 <__ram_exceptions_end+0xfabfdebc>
 4002164:	d0a30c04 	addi	r2,gp,-29648
 4002168:	003fbc06 	br	400205c <__ram_exceptions_end+0xfabfded0>
 400216c:	00e1c83a 	sub	r16,zero,r3
 4002170:	003fb506 	br	4002048 <__ram_exceptions_end+0xfabfdebc>

04002174 <alt_release_fd>:
 * error cannont be released backed to the pool. They are always reserved.
 */

void alt_release_fd (int fd)
{
  if (fd > 2)
 4002174:	00800084 	movi	r2,2
 4002178:	1100060e 	bge	r2,r4,4002194 <alt_release_fd+0x20>
  {
    alt_fd_list[fd].fd_flags = 0;
 400217c:	21000324 	muli	r4,r4,12
 4002180:	00810034 	movhi	r2,1024
 4002184:	1094a804 	addi	r2,r2,21152
 4002188:	1109883a 	add	r4,r2,r4
 400218c:	20000215 	stw	zero,8(r4)
    alt_fd_list[fd].dev      = 0;
 4002190:	20000015 	stw	zero,0(r4)
 4002194:	f800283a 	ret

04002198 <altera_nios2_gen2_irq_init>:
 * To initialize the internal interrupt controller, just clear the IENABLE
 * register so that all possible IRQs are disabled.
 */
void altera_nios2_gen2_irq_init(void) 
{
    NIOS2_WRITE_IENABLE(0);
 4002198:	000170fa 	wrctl	ienable,zero
 400219c:	f800283a 	ret

040021a0 <alt_find_file>:
 * either '/' or '\0' is the prefix of the filename. For example the filename:
 * "/myfilesystem/junk.txt" would match: "/myfilesystem", but not: "/myfile". 
 */
 
alt_dev* alt_find_file (const char* name)
{
 40021a0:	defffa04 	addi	sp,sp,-24
 40021a4:	dc000015 	stw	r16,0(sp)
  alt_dev* next = (alt_dev*) alt_fs_list.next;   
 40021a8:	d4200a17 	ldw	r16,-32728(gp)
 * either '/' or '\0' is the prefix of the filename. For example the filename:
 * "/myfilesystem/junk.txt" would match: "/myfilesystem", but not: "/myfile". 
 */
 
alt_dev* alt_find_file (const char* name)
{
 40021ac:	dd000415 	stw	r20,16(sp)
 40021b0:	dfc00515 	stw	ra,20(sp)
 40021b4:	dcc00315 	stw	r19,12(sp)
 40021b8:	dc800215 	stw	r18,8(sp)
 40021bc:	dc400115 	stw	r17,4(sp)
  alt_dev* next = (alt_dev*) alt_fs_list.next;   
 40021c0:	d5200a04 	addi	r20,gp,-32728
  /*
   * Check each list entry in turn, until a match is found, or we reach the
   * end of the list (i.e. next winds up pointing back to the list head).
   */ 
 
  while (next != (alt_dev*) &alt_fs_list)
 40021c4:	85001626 	beq	r16,r20,4002220 <alt_find_file+0x80>
 40021c8:	2025883a 	mov	r18,r4
  {
    len = strlen(next->name);
    
    if (next->name[len-1] == '/')
 40021cc:	04c00bc4 	movi	r19,47
 40021d0:	00000806 	br	40021f4 <alt_find_file+0x54>
    {
      len -= 1;
    }

    if (((name[len] == '/') || (name[len] == '\0')) && 
 40021d4:	9185883a 	add	r2,r18,r6
 40021d8:	10800007 	ldb	r2,0(r2)
 40021dc:	14c00126 	beq	r2,r19,40021e4 <alt_find_file+0x44>
 40021e0:	1000021e 	bne	r2,zero,40021ec <alt_find_file+0x4c>
        !memcmp (next->name, name, len))
 40021e4:	40024900 	call	4002490 <memcmp>
    if (next->name[len-1] == '/')
    {
      len -= 1;
    }

    if (((name[len] == '/') || (name[len] == '\0')) && 
 40021e8:	10001626 	beq	r2,zero,4002244 <alt_find_file+0xa4>
    {
      /* match found */

      return next;
    }
    next = (alt_dev*) next->llist.next;
 40021ec:	84000017 	ldw	r16,0(r16)
  /*
   * Check each list entry in turn, until a match is found, or we reach the
   * end of the list (i.e. next winds up pointing back to the list head).
   */ 
 
  while (next != (alt_dev*) &alt_fs_list)
 40021f0:	85000b26 	beq	r16,r20,4002220 <alt_find_file+0x80>
  {
    len = strlen(next->name);
 40021f4:	84400217 	ldw	r17,8(r16)
 40021f8:	8809883a 	mov	r4,r17
 40021fc:	40028440 	call	4002844 <strlen>
 4002200:	100d883a 	mov	r6,r2
    
    if (next->name[len-1] == '/')
 4002204:	8885883a 	add	r2,r17,r2
 4002208:	10bfffc7 	ldb	r2,-1(r2)
    {
      len -= 1;
    }

    if (((name[len] == '/') || (name[len] == '\0')) && 
        !memcmp (next->name, name, len))
 400220c:	900b883a 	mov	r5,r18
 4002210:	8809883a 	mov	r4,r17
 
  while (next != (alt_dev*) &alt_fs_list)
  {
    len = strlen(next->name);
    
    if (next->name[len-1] == '/')
 4002214:	14ffef1e 	bne	r2,r19,40021d4 <__ram_exceptions_end+0xfabfe048>
    {
      len -= 1;
 4002218:	31bfffc4 	addi	r6,r6,-1
 400221c:	003fed06 	br	40021d4 <__ram_exceptions_end+0xfabfe048>
    next = (alt_dev*) next->llist.next;
  }
  
  /* No match found */
  
  return NULL;     
 4002220:	0005883a 	mov	r2,zero
}
 4002224:	dfc00517 	ldw	ra,20(sp)
 4002228:	dd000417 	ldw	r20,16(sp)
 400222c:	dcc00317 	ldw	r19,12(sp)
 4002230:	dc800217 	ldw	r18,8(sp)
 4002234:	dc400117 	ldw	r17,4(sp)
 4002238:	dc000017 	ldw	r16,0(sp)
 400223c:	dec00604 	addi	sp,sp,24
 4002240:	f800283a 	ret
 4002244:	8005883a 	mov	r2,r16
 4002248:	003ff606 	br	4002224 <__ram_exceptions_end+0xfabfe098>

0400224c <alt_get_fd>:
 * the offset of the file descriptor within the file descriptor array). A
 * negative value indicates failure.
 */

int alt_get_fd (alt_dev* dev)
{
 400224c:	01c10034 	movhi	r7,1024
 4002250:	39d4a804 	addi	r7,r7,21152
   * indicates the highest file descriptor ever allocated. This is used to
   * improve efficency when searching the file descriptor list, and 
   * therefore reduce contention on the alt_fd_list_lock semaphore. 
   */

  for (i = 0; i < ALT_MAX_FD; i++)
 4002254:	0005883a 	mov	r2,zero
 4002258:	3807883a 	mov	r3,r7
 400225c:	01800804 	movi	r6,32
 4002260:	00000206 	br	400226c <alt_get_fd+0x20>
 4002264:	10800044 	addi	r2,r2,1
 4002268:	11800a26 	beq	r2,r6,4002294 <alt_get_fd+0x48>
  {
    if (!alt_fd_list[i].dev)
 400226c:	19400017 	ldw	r5,0(r3)
 4002270:	18c00304 	addi	r3,r3,12
 4002274:	283ffb1e 	bne	r5,zero,4002264 <__ram_exceptions_end+0xfabfe0d8>
    {
      alt_fd_list[i].dev = dev;
 4002278:	10c00324 	muli	r3,r2,12
 400227c:	38cf883a 	add	r7,r7,r3
      if (i > alt_max_fd)
 4002280:	d0e00717 	ldw	r3,-32740(gp)

  for (i = 0; i < ALT_MAX_FD; i++)
  {
    if (!alt_fd_list[i].dev)
    {
      alt_fd_list[i].dev = dev;
 4002284:	39000015 	stw	r4,0(r7)
      if (i > alt_max_fd)
 4002288:	1880030e 	bge	r3,r2,4002298 <alt_get_fd+0x4c>
      {
        alt_max_fd = i;
 400228c:	d0a00715 	stw	r2,-32740(gp)
 4002290:	f800283a 	ret
 */

int alt_get_fd (alt_dev* dev)
{
  alt_32 i;
  int rc = -EMFILE;
 4002294:	00bffa04 	movi	r2,-24
   */

  ALT_SEM_POST(alt_fd_list_lock);

  return rc;
}
 4002298:	f800283a 	ret

0400229c <alt_icache_flush>:
  if (len > NIOS2_ICACHE_SIZE)
  {
    len = NIOS2_ICACHE_SIZE;
  }

  end = ((char*) start) + len;
 400229c:	00820004 	movi	r2,2048
 40022a0:	1140012e 	bgeu	r2,r5,40022a8 <alt_icache_flush+0xc>
 40022a4:	100b883a 	mov	r5,r2
 40022a8:	214b883a 	add	r5,r4,r5

  for (i = start; i < end; i+= NIOS2_ICACHE_LINE_SIZE)
 40022ac:	2005883a 	mov	r2,r4
 40022b0:	2140092e 	bgeu	r4,r5,40022d8 <alt_icache_flush+0x3c>
  { 
    __asm__ volatile ("flushi %0" :: "r" (i)); 
 40022b4:	1000603a 	flushi	r2
    len = NIOS2_ICACHE_SIZE;
  }

  end = ((char*) start) + len;

  for (i = start; i < end; i+= NIOS2_ICACHE_LINE_SIZE)
 40022b8:	10800804 	addi	r2,r2,32
 40022bc:	117ffd36 	bltu	r2,r5,40022b4 <__ram_exceptions_end+0xfabfe128>
 40022c0:	0104303a 	nor	r2,zero,r4
 40022c4:	2885883a 	add	r2,r5,r2
 40022c8:	1004d17a 	srli	r2,r2,5
 40022cc:	10800044 	addi	r2,r2,1
 40022d0:	1004917a 	slli	r2,r2,5
 40022d4:	2085883a 	add	r2,r4,r2
   * For an unaligned flush request, we've got one more line left.
   * Note that this is dependent on NIOS2_ICACHE_LINE_SIZE to be a 
   * multiple of 2 (which it always is).
   */

  if (((alt_u32) start) & (NIOS2_ICACHE_LINE_SIZE - 1))
 40022d8:	210007cc 	andi	r4,r4,31
 40022dc:	20000126 	beq	r4,zero,40022e4 <alt_icache_flush+0x48>
  {
    __asm__ volatile ("flushi %0" :: "r" (i));
 40022e0:	1000603a 	flushi	r2
  /* 
   * Having flushed the cache, flush any stale instructions in the 
   * pipeline 
   */

  __asm__ volatile ("flushp");
 40022e4:	0000203a 	flushp
 40022e8:	f800283a 	ret

040022ec <alt_exception_cause_generated_bad_addr>:
 *         0: BADADDR is not valid
 */
int 
alt_exception_cause_generated_bad_addr(alt_exception_cause cause)
{
  switch (cause) {
 40022ec:	213ffe84 	addi	r4,r4,-6
 40022f0:	008003c4 	movi	r2,15
 40022f4:	11001636 	bltu	r2,r4,4002350 <alt_exception_cause_generated_bad_addr+0x64>
 40022f8:	200890ba 	slli	r4,r4,2
 40022fc:	00810034 	movhi	r2,1024
 4002300:	1088c404 	addi	r2,r2,8976
 4002304:	2089883a 	add	r4,r4,r2
 4002308:	20800017 	ldw	r2,0(r4)
 400230c:	1000683a 	jmp	r2
 4002310:	04002358 	cmpnei	r16,zero,141
 4002314:	04002358 	cmpnei	r16,zero,141
 4002318:	04002350 	cmplti	r16,zero,141
 400231c:	04002350 	cmplti	r16,zero,141
 4002320:	04002350 	cmplti	r16,zero,141
 4002324:	04002358 	cmpnei	r16,zero,141
 4002328:	04002350 	cmplti	r16,zero,141
 400232c:	04002350 	cmplti	r16,zero,141
 4002330:	04002358 	cmpnei	r16,zero,141
 4002334:	04002358 	cmpnei	r16,zero,141
 4002338:	04002350 	cmplti	r16,zero,141
 400233c:	04002358 	cmpnei	r16,zero,141
 4002340:	04002350 	cmplti	r16,zero,141
 4002344:	04002350 	cmplti	r16,zero,141
 4002348:	04002350 	cmplti	r16,zero,141
 400234c:	04002358 	cmpnei	r16,zero,141
  case NIOS2_EXCEPTION_ECC_DATA_ERR:
    return 1;

  case NIOS2_EXCEPTION_TLB_MISS:
  case NIOS2_EXCEPTION_ECC_TLB_ERR:
    return 0;
 4002350:	0005883a 	mov	r2,zero
 4002354:	f800283a 	ret
  case NIOS2_EXCEPTION_MISALIGNED_TARGET_PC:
  case NIOS2_EXCEPTION_TLB_READ_PERM_VIOLATION:
  case NIOS2_EXCEPTION_TLB_WRITE_PERM_VIOLATION:
  case NIOS2_EXCEPTION_MPU_DATA_REGION_VIOLATION:
  case NIOS2_EXCEPTION_ECC_DATA_ERR:
    return 1;
 4002358:	00800044 	movi	r2,1
    return 0;

  default:
    return 0;
  }
}
 400235c:	f800283a 	ret

04002360 <exit>:
 4002360:	defffe04 	addi	sp,sp,-8
 4002364:	000b883a 	mov	r5,zero
 4002368:	dc000015 	stw	r16,0(sp)
 400236c:	dfc00115 	stw	ra,4(sp)
 4002370:	2021883a 	mov	r16,r4
 4002374:	4002b880 	call	4002b88 <__call_exitprocs>
 4002378:	00810034 	movhi	r2,1024
 400237c:	10972d04 	addi	r2,r2,23732
 4002380:	11000017 	ldw	r4,0(r2)
 4002384:	20800f17 	ldw	r2,60(r4)
 4002388:	10000126 	beq	r2,zero,4002390 <exit+0x30>
 400238c:	103ee83a 	callr	r2
 4002390:	8009883a 	mov	r4,r16
 4002394:	4004aa40 	call	4004aa4 <_exit>

04002398 <_getc_r>:
 4002398:	defffd04 	addi	sp,sp,-12
 400239c:	dc000115 	stw	r16,4(sp)
 40023a0:	dfc00215 	stw	ra,8(sp)
 40023a4:	2021883a 	mov	r16,r4
 40023a8:	20000226 	beq	r4,zero,40023b4 <_getc_r+0x1c>
 40023ac:	20800e17 	ldw	r2,56(r4)
 40023b0:	10000c26 	beq	r2,zero,40023e4 <_getc_r+0x4c>
 40023b4:	28800117 	ldw	r2,4(r5)
 40023b8:	10bfffc4 	addi	r2,r2,-1
 40023bc:	28800115 	stw	r2,4(r5)
 40023c0:	10000c16 	blt	r2,zero,40023f4 <_getc_r+0x5c>
 40023c4:	28800017 	ldw	r2,0(r5)
 40023c8:	10c00044 	addi	r3,r2,1
 40023cc:	28c00015 	stw	r3,0(r5)
 40023d0:	10800003 	ldbu	r2,0(r2)
 40023d4:	dfc00217 	ldw	ra,8(sp)
 40023d8:	dc000117 	ldw	r16,4(sp)
 40023dc:	dec00304 	addi	sp,sp,12
 40023e0:	f800283a 	ret
 40023e4:	d9400015 	stw	r5,0(sp)
 40023e8:	40033000 	call	4003300 <__sinit>
 40023ec:	d9400017 	ldw	r5,0(sp)
 40023f0:	003ff006 	br	40023b4 <__ram_exceptions_end+0xfabfe228>
 40023f4:	8009883a 	mov	r4,r16
 40023f8:	dfc00217 	ldw	ra,8(sp)
 40023fc:	dc000117 	ldw	r16,4(sp)
 4002400:	dec00304 	addi	sp,sp,12
 4002404:	40027bc1 	jmpi	40027bc <__srget_r>

04002408 <getc>:
 4002408:	00810034 	movhi	r2,1024
 400240c:	defffd04 	addi	sp,sp,-12
 4002410:	10972e04 	addi	r2,r2,23736
 4002414:	dc400115 	stw	r17,4(sp)
 4002418:	14400017 	ldw	r17,0(r2)
 400241c:	dc000015 	stw	r16,0(sp)
 4002420:	dfc00215 	stw	ra,8(sp)
 4002424:	2021883a 	mov	r16,r4
 4002428:	88000226 	beq	r17,zero,4002434 <getc+0x2c>
 400242c:	88800e17 	ldw	r2,56(r17)
 4002430:	10000d26 	beq	r2,zero,4002468 <getc+0x60>
 4002434:	80800117 	ldw	r2,4(r16)
 4002438:	10bfffc4 	addi	r2,r2,-1
 400243c:	80800115 	stw	r2,4(r16)
 4002440:	10000c16 	blt	r2,zero,4002474 <getc+0x6c>
 4002444:	80800017 	ldw	r2,0(r16)
 4002448:	10c00044 	addi	r3,r2,1
 400244c:	80c00015 	stw	r3,0(r16)
 4002450:	10800003 	ldbu	r2,0(r2)
 4002454:	dfc00217 	ldw	ra,8(sp)
 4002458:	dc400117 	ldw	r17,4(sp)
 400245c:	dc000017 	ldw	r16,0(sp)
 4002460:	dec00304 	addi	sp,sp,12
 4002464:	f800283a 	ret
 4002468:	8809883a 	mov	r4,r17
 400246c:	40033000 	call	4003300 <__sinit>
 4002470:	003ff006 	br	4002434 <__ram_exceptions_end+0xfabfe2a8>
 4002474:	800b883a 	mov	r5,r16
 4002478:	8809883a 	mov	r4,r17
 400247c:	dfc00217 	ldw	ra,8(sp)
 4002480:	dc400117 	ldw	r17,4(sp)
 4002484:	dc000017 	ldw	r16,0(sp)
 4002488:	dec00304 	addi	sp,sp,12
 400248c:	40027bc1 	jmpi	40027bc <__srget_r>

04002490 <memcmp>:
 4002490:	01c000c4 	movi	r7,3
 4002494:	3980192e 	bgeu	r7,r6,40024fc <memcmp+0x6c>
 4002498:	2144b03a 	or	r2,r4,r5
 400249c:	11c4703a 	and	r2,r2,r7
 40024a0:	10000f26 	beq	r2,zero,40024e0 <memcmp+0x50>
 40024a4:	20800003 	ldbu	r2,0(r4)
 40024a8:	28c00003 	ldbu	r3,0(r5)
 40024ac:	10c0151e 	bne	r2,r3,4002504 <memcmp+0x74>
 40024b0:	31bfff84 	addi	r6,r6,-2
 40024b4:	01ffffc4 	movi	r7,-1
 40024b8:	00000406 	br	40024cc <memcmp+0x3c>
 40024bc:	20800003 	ldbu	r2,0(r4)
 40024c0:	28c00003 	ldbu	r3,0(r5)
 40024c4:	31bfffc4 	addi	r6,r6,-1
 40024c8:	10c00e1e 	bne	r2,r3,4002504 <memcmp+0x74>
 40024cc:	21000044 	addi	r4,r4,1
 40024d0:	29400044 	addi	r5,r5,1
 40024d4:	31fff91e 	bne	r6,r7,40024bc <__ram_exceptions_end+0xfabfe330>
 40024d8:	0005883a 	mov	r2,zero
 40024dc:	f800283a 	ret
 40024e0:	20c00017 	ldw	r3,0(r4)
 40024e4:	28800017 	ldw	r2,0(r5)
 40024e8:	18bfee1e 	bne	r3,r2,40024a4 <__ram_exceptions_end+0xfabfe318>
 40024ec:	31bfff04 	addi	r6,r6,-4
 40024f0:	21000104 	addi	r4,r4,4
 40024f4:	29400104 	addi	r5,r5,4
 40024f8:	39bff936 	bltu	r7,r6,40024e0 <__ram_exceptions_end+0xfabfe354>
 40024fc:	303fe91e 	bne	r6,zero,40024a4 <__ram_exceptions_end+0xfabfe318>
 4002500:	003ff506 	br	40024d8 <__ram_exceptions_end+0xfabfe34c>
 4002504:	10c5c83a 	sub	r2,r2,r3
 4002508:	f800283a 	ret

0400250c <memcpy>:
 400250c:	defffd04 	addi	sp,sp,-12
 4002510:	dfc00215 	stw	ra,8(sp)
 4002514:	dc400115 	stw	r17,4(sp)
 4002518:	dc000015 	stw	r16,0(sp)
 400251c:	00c003c4 	movi	r3,15
 4002520:	2005883a 	mov	r2,r4
 4002524:	1980452e 	bgeu	r3,r6,400263c <memcpy+0x130>
 4002528:	2906b03a 	or	r3,r5,r4
 400252c:	18c000cc 	andi	r3,r3,3
 4002530:	1800441e 	bne	r3,zero,4002644 <memcpy+0x138>
 4002534:	347ffc04 	addi	r17,r6,-16
 4002538:	8822d13a 	srli	r17,r17,4
 400253c:	28c00104 	addi	r3,r5,4
 4002540:	23400104 	addi	r13,r4,4
 4002544:	8820913a 	slli	r16,r17,4
 4002548:	2b000204 	addi	r12,r5,8
 400254c:	22c00204 	addi	r11,r4,8
 4002550:	84000504 	addi	r16,r16,20
 4002554:	2a800304 	addi	r10,r5,12
 4002558:	22400304 	addi	r9,r4,12
 400255c:	2c21883a 	add	r16,r5,r16
 4002560:	2811883a 	mov	r8,r5
 4002564:	200f883a 	mov	r7,r4
 4002568:	41000017 	ldw	r4,0(r8)
 400256c:	1fc00017 	ldw	ra,0(r3)
 4002570:	63c00017 	ldw	r15,0(r12)
 4002574:	39000015 	stw	r4,0(r7)
 4002578:	53800017 	ldw	r14,0(r10)
 400257c:	6fc00015 	stw	ra,0(r13)
 4002580:	5bc00015 	stw	r15,0(r11)
 4002584:	4b800015 	stw	r14,0(r9)
 4002588:	18c00404 	addi	r3,r3,16
 400258c:	39c00404 	addi	r7,r7,16
 4002590:	42000404 	addi	r8,r8,16
 4002594:	6b400404 	addi	r13,r13,16
 4002598:	63000404 	addi	r12,r12,16
 400259c:	5ac00404 	addi	r11,r11,16
 40025a0:	52800404 	addi	r10,r10,16
 40025a4:	4a400404 	addi	r9,r9,16
 40025a8:	1c3fef1e 	bne	r3,r16,4002568 <__ram_exceptions_end+0xfabfe3dc>
 40025ac:	89c00044 	addi	r7,r17,1
 40025b0:	380e913a 	slli	r7,r7,4
 40025b4:	310003cc 	andi	r4,r6,15
 40025b8:	02c000c4 	movi	r11,3
 40025bc:	11c7883a 	add	r3,r2,r7
 40025c0:	29cb883a 	add	r5,r5,r7
 40025c4:	5900212e 	bgeu	r11,r4,400264c <memcpy+0x140>
 40025c8:	1813883a 	mov	r9,r3
 40025cc:	2811883a 	mov	r8,r5
 40025d0:	200f883a 	mov	r7,r4
 40025d4:	42800017 	ldw	r10,0(r8)
 40025d8:	4a400104 	addi	r9,r9,4
 40025dc:	39ffff04 	addi	r7,r7,-4
 40025e0:	4abfff15 	stw	r10,-4(r9)
 40025e4:	42000104 	addi	r8,r8,4
 40025e8:	59fffa36 	bltu	r11,r7,40025d4 <__ram_exceptions_end+0xfabfe448>
 40025ec:	213fff04 	addi	r4,r4,-4
 40025f0:	2008d0ba 	srli	r4,r4,2
 40025f4:	318000cc 	andi	r6,r6,3
 40025f8:	21000044 	addi	r4,r4,1
 40025fc:	2109883a 	add	r4,r4,r4
 4002600:	2109883a 	add	r4,r4,r4
 4002604:	1907883a 	add	r3,r3,r4
 4002608:	290b883a 	add	r5,r5,r4
 400260c:	30000626 	beq	r6,zero,4002628 <memcpy+0x11c>
 4002610:	198d883a 	add	r6,r3,r6
 4002614:	29c00003 	ldbu	r7,0(r5)
 4002618:	18c00044 	addi	r3,r3,1
 400261c:	29400044 	addi	r5,r5,1
 4002620:	19ffffc5 	stb	r7,-1(r3)
 4002624:	19bffb1e 	bne	r3,r6,4002614 <__ram_exceptions_end+0xfabfe488>
 4002628:	dfc00217 	ldw	ra,8(sp)
 400262c:	dc400117 	ldw	r17,4(sp)
 4002630:	dc000017 	ldw	r16,0(sp)
 4002634:	dec00304 	addi	sp,sp,12
 4002638:	f800283a 	ret
 400263c:	2007883a 	mov	r3,r4
 4002640:	003ff206 	br	400260c <__ram_exceptions_end+0xfabfe480>
 4002644:	2007883a 	mov	r3,r4
 4002648:	003ff106 	br	4002610 <__ram_exceptions_end+0xfabfe484>
 400264c:	200d883a 	mov	r6,r4
 4002650:	003fee06 	br	400260c <__ram_exceptions_end+0xfabfe480>

04002654 <_putc_r>:
 4002654:	defffc04 	addi	sp,sp,-16
 4002658:	dc000215 	stw	r16,8(sp)
 400265c:	dfc00315 	stw	ra,12(sp)
 4002660:	2021883a 	mov	r16,r4
 4002664:	20000226 	beq	r4,zero,4002670 <_putc_r+0x1c>
 4002668:	20800e17 	ldw	r2,56(r4)
 400266c:	10001b26 	beq	r2,zero,40026dc <_putc_r+0x88>
 4002670:	30800217 	ldw	r2,8(r6)
 4002674:	10bfffc4 	addi	r2,r2,-1
 4002678:	30800215 	stw	r2,8(r6)
 400267c:	10000a16 	blt	r2,zero,40026a8 <_putc_r+0x54>
 4002680:	30800017 	ldw	r2,0(r6)
 4002684:	11400005 	stb	r5,0(r2)
 4002688:	30800017 	ldw	r2,0(r6)
 400268c:	10c00044 	addi	r3,r2,1
 4002690:	30c00015 	stw	r3,0(r6)
 4002694:	10800003 	ldbu	r2,0(r2)
 4002698:	dfc00317 	ldw	ra,12(sp)
 400269c:	dc000217 	ldw	r16,8(sp)
 40026a0:	dec00404 	addi	sp,sp,16
 40026a4:	f800283a 	ret
 40026a8:	30c00617 	ldw	r3,24(r6)
 40026ac:	10c00616 	blt	r2,r3,40026c8 <_putc_r+0x74>
 40026b0:	30800017 	ldw	r2,0(r6)
 40026b4:	00c00284 	movi	r3,10
 40026b8:	11400005 	stb	r5,0(r2)
 40026bc:	30800017 	ldw	r2,0(r6)
 40026c0:	11400003 	ldbu	r5,0(r2)
 40026c4:	28fff11e 	bne	r5,r3,400268c <__ram_exceptions_end+0xfabfe500>
 40026c8:	8009883a 	mov	r4,r16
 40026cc:	dfc00317 	ldw	ra,12(sp)
 40026d0:	dc000217 	ldw	r16,8(sp)
 40026d4:	dec00404 	addi	sp,sp,16
 40026d8:	40028dc1 	jmpi	40028dc <__swbuf_r>
 40026dc:	d9400015 	stw	r5,0(sp)
 40026e0:	d9800115 	stw	r6,4(sp)
 40026e4:	40033000 	call	4003300 <__sinit>
 40026e8:	d9800117 	ldw	r6,4(sp)
 40026ec:	d9400017 	ldw	r5,0(sp)
 40026f0:	003fdf06 	br	4002670 <__ram_exceptions_end+0xfabfe4e4>

040026f4 <putc>:
 40026f4:	00810034 	movhi	r2,1024
 40026f8:	defffc04 	addi	sp,sp,-16
 40026fc:	10972e04 	addi	r2,r2,23736
 4002700:	dc000115 	stw	r16,4(sp)
 4002704:	14000017 	ldw	r16,0(r2)
 4002708:	dc400215 	stw	r17,8(sp)
 400270c:	dfc00315 	stw	ra,12(sp)
 4002710:	2023883a 	mov	r17,r4
 4002714:	80000226 	beq	r16,zero,4002720 <putc+0x2c>
 4002718:	80800e17 	ldw	r2,56(r16)
 400271c:	10001a26 	beq	r2,zero,4002788 <putc+0x94>
 4002720:	28800217 	ldw	r2,8(r5)
 4002724:	10bfffc4 	addi	r2,r2,-1
 4002728:	28800215 	stw	r2,8(r5)
 400272c:	10000b16 	blt	r2,zero,400275c <putc+0x68>
 4002730:	28800017 	ldw	r2,0(r5)
 4002734:	14400005 	stb	r17,0(r2)
 4002738:	28800017 	ldw	r2,0(r5)
 400273c:	10c00044 	addi	r3,r2,1
 4002740:	28c00015 	stw	r3,0(r5)
 4002744:	10800003 	ldbu	r2,0(r2)
 4002748:	dfc00317 	ldw	ra,12(sp)
 400274c:	dc400217 	ldw	r17,8(sp)
 4002750:	dc000117 	ldw	r16,4(sp)
 4002754:	dec00404 	addi	sp,sp,16
 4002758:	f800283a 	ret
 400275c:	28c00617 	ldw	r3,24(r5)
 4002760:	10c00e16 	blt	r2,r3,400279c <putc+0xa8>
 4002764:	28800017 	ldw	r2,0(r5)
 4002768:	01000284 	movi	r4,10
 400276c:	14400005 	stb	r17,0(r2)
 4002770:	28800017 	ldw	r2,0(r5)
 4002774:	10c00003 	ldbu	r3,0(r2)
 4002778:	193ff01e 	bne	r3,r4,400273c <__ram_exceptions_end+0xfabfe5b0>
 400277c:	280d883a 	mov	r6,r5
 4002780:	180b883a 	mov	r5,r3
 4002784:	00000706 	br	40027a4 <putc+0xb0>
 4002788:	8009883a 	mov	r4,r16
 400278c:	d9400015 	stw	r5,0(sp)
 4002790:	40033000 	call	4003300 <__sinit>
 4002794:	d9400017 	ldw	r5,0(sp)
 4002798:	003fe106 	br	4002720 <__ram_exceptions_end+0xfabfe594>
 400279c:	280d883a 	mov	r6,r5
 40027a0:	880b883a 	mov	r5,r17
 40027a4:	8009883a 	mov	r4,r16
 40027a8:	dfc00317 	ldw	ra,12(sp)
 40027ac:	dc400217 	ldw	r17,8(sp)
 40027b0:	dc000117 	ldw	r16,4(sp)
 40027b4:	dec00404 	addi	sp,sp,16
 40027b8:	40028dc1 	jmpi	40028dc <__swbuf_r>

040027bc <__srget_r>:
 40027bc:	defffd04 	addi	sp,sp,-12
 40027c0:	dc400115 	stw	r17,4(sp)
 40027c4:	dc000015 	stw	r16,0(sp)
 40027c8:	dfc00215 	stw	ra,8(sp)
 40027cc:	2023883a 	mov	r17,r4
 40027d0:	2821883a 	mov	r16,r5
 40027d4:	20000226 	beq	r4,zero,40027e0 <__srget_r+0x24>
 40027d8:	20800e17 	ldw	r2,56(r4)
 40027dc:	10001026 	beq	r2,zero,4002820 <__srget_r+0x64>
 40027e0:	800b883a 	mov	r5,r16
 40027e4:	8809883a 	mov	r4,r17
 40027e8:	40044180 	call	4004418 <__srefill_r>
 40027ec:	10000e1e 	bne	r2,zero,4002828 <__srget_r+0x6c>
 40027f0:	80c00017 	ldw	r3,0(r16)
 40027f4:	80800117 	ldw	r2,4(r16)
 40027f8:	19000044 	addi	r4,r3,1
 40027fc:	10bfffc4 	addi	r2,r2,-1
 4002800:	80800115 	stw	r2,4(r16)
