
ControlPanel.elf:     file format elf32-littlenios2
ControlPanel.elf
architecture: nios2, flags 0x00000112:
EXEC_P, HAS_SYMS, D_PAGED
start address 0x000801b8

Program Header:
    LOAD off    0x00001000 vaddr 0x00080000 paddr 0x00080000 align 2**12
         filesz 0x00000020 memsz 0x00000020 flags r-x
    LOAD off    0x00001020 vaddr 0x00080020 paddr 0x00080020 align 2**12
         filesz 0x0000e48c memsz 0x0000e48c flags r-x
    LOAD off    0x0000f4ac vaddr 0x0008e4ac paddr 0x0008fff4 align 2**12
         filesz 0x00001b48 memsz 0x00001b48 flags rw-
    LOAD off    0x00011b3c vaddr 0x00091b3c paddr 0x00091b3c align 2**12
         filesz 0x00000000 memsz 0x000002f4 flags rw-

Sections:
Idx Name          Size      VMA       LMA       File off  Algn
  0 .entry        00000020  00080000  00080000  00001000  2**5
                  CONTENTS, ALLOC, LOAD, READONLY, CODE
  1 .exceptions   00000198  00080020  00080020  00001020  2**2
                  CONTENTS, ALLOC, LOAD, READONLY, CODE
  2 .text         0000ded8  000801b8  000801b8  000011b8  2**2
                  CONTENTS, ALLOC, LOAD, READONLY, CODE
  3 .rodata       0000041c  0008e090  0008e090  0000f090  2**2
                  CONTENTS, ALLOC, LOAD, READONLY, DATA
  4 .rwdata       00001b48  0008e4ac  0008fff4  0000f4ac  2**2
                  CONTENTS, ALLOC, LOAD, DATA, SMALL_DATA
  5 .bss          000002f4  00091b3c  00091b3c  00011b3c  2**2
                  ALLOC, SMALL_DATA
  6 .comment      00000023  00000000  00000000  00010ff4  2**0
                  CONTENTS, READONLY
  7 .debug_aranges 00000ef8  00000000  00000000  00011018  2**3
                  CONTENTS, READONLY, DEBUGGING
  8 .debug_info   00026d35  00000000  00000000  00011f10  2**0
                  CONTENTS, READONLY, DEBUGGING
  9 .debug_abbrev 0000a01b  00000000  00000000  00038c45  2**0
                  CONTENTS, READONLY, DEBUGGING
 10 .debug_line   0000b66f  00000000  00000000  00042c60  2**0
                  CONTENTS, READONLY, DEBUGGING
 11 .debug_frame  00001c68  00000000  00000000  0004e2d0  2**2
                  CONTENTS, READONLY, DEBUGGING
 12 .debug_str    000032f1  00000000  00000000  0004ff38  2**0
                  CONTENTS, READONLY, DEBUGGING
 13 .debug_loc    00010e77  00000000  00000000  00053229  2**0
                  CONTENTS, READONLY, DEBUGGING
 14 .debug_alt_sim_info 00000060  00000000  00000000  000640a0  2**2
                  CONTENTS, READONLY, DEBUGGING
 15 .debug_ranges 00000a58  00000000  00000000  00064100  2**3
                  CONTENTS, READONLY, DEBUGGING
 16 .thread_model 00000003  00000000  00000000  00068120  2**0
                  CONTENTS, READONLY
 17 .cpu          00000003  00000000  00000000  00068123  2**0
                  CONTENTS, READONLY
 18 .qsys         00000001  00000000  00000000  00068126  2**0
                  CONTENTS, READONLY
 19 .simulation_enabled 00000001  00000000  00000000  00068127  2**0
                  CONTENTS, READONLY
 20 .sysid_hash   00000004  00000000  00000000  00068128  2**0
                  CONTENTS, READONLY
 21 .sysid_base   00000004  00000000  00000000  0006812c  2**0
                  CONTENTS, READONLY
 22 .sysid_time   00000004  00000000  00000000  00068130  2**0
                  CONTENTS, READONLY
 23 .stderr_dev   00000009  00000000  00000000  00068134  2**0
                  CONTENTS, READONLY
 24 .stdin_dev    00000009  00000000  00000000  0006813d  2**0
                  CONTENTS, READONLY
 25 .stdout_dev   00000009  00000000  00000000  00068146  2**0
                  CONTENTS, READONLY
 26 .sopc_system_name 0000000c  00000000  00000000  0006814f  2**0
                  CONTENTS, READONLY
 27 .quartus_project_dir 0000003d  00000000  00000000  0006815b  2**0
                  CONTENTS, READONLY
 28 .jdi          00004a1a  00000000  00000000  00068198  2**0
                  CONTENTS, READONLY
 29 .sopcinfo     0031a3ae  00000000  00000000  0006cbb2  2**0
                  CONTENTS, READONLY
SYMBOL TABLE:
00080000 l    d  .entry	00000000 .entry
00080020 l    d  .exceptions	00000000 .exceptions
000801b8 l    d  .text	00000000 .text
0008e090 l    d  .rodata	00000000 .rodata
0008e4ac l    d  .rwdata	00000000 .rwdata
00091b3c l    d  .bss	00000000 .bss
00000000 l    d  .comment	00000000 .comment
00000000 l    d  .debug_aranges	00000000 .debug_aranges
00000000 l    d  .debug_info	00000000 .debug_info
00000000 l    d  .debug_abbrev	00000000 .debug_abbrev
00000000 l    d  .debug_line	00000000 .debug_line
00000000 l    d  .debug_frame	00000000 .debug_frame
00000000 l    d  .debug_str	00000000 .debug_str
00000000 l    d  .debug_loc	00000000 .debug_loc
00000000 l    d  .debug_alt_sim_info	00000000 .debug_alt_sim_info
00000000 l    d  .debug_ranges	00000000 .debug_ranges
00000000 l    df *ABS*	00000000 ../ControlPanel_bsp//obj/HAL/src/crt0.o
00080200 l       .text	00000000 alt_after_alt_main
00000000 l    df *ABS*	00000000 alt_exception_entry.o
00080094 l       .exceptions	00000000 alt_exception_unknown
00000000 l    df *ABS*	00000000 alt_irq_handler.c
00000000 l    df *ABS*	00000000 I2C.c
00000000 l    df *ABS*	00000000 main.c
00000000 l    df *ABS*	00000000 mem_verify.c
00000000 l    df *ABS*	00000000 video_control.c
00000000 l    df *ABS*	00000000 lib2-divmod.c
00081768 l     F .text	00000074 udivmodsi4
00000000 l    df *ABS*	00000000 memcpy.c
00000000 l    df *ABS*	00000000 printf.c
00000000 l    df *ABS*	00000000 putchar.c
00000000 l    df *ABS*	00000000 puts.c
00000000 l    df *ABS*	00000000 rand.c
00000000 l    df *ABS*	00000000 strlen.c
00000000 l    df *ABS*	00000000 vfprintf.c
00081bbc l     F .text	00000034 __sprint_r
0008e1c6 l     O .rodata	00000010 blanks.3515
0008e1d6 l     O .rodata	00000010 zeroes.3516
00000000 l    df *ABS*	00000000 wsetup.c
00000000 l    df *ABS*	00000000 dtoa.c
00083b80 l     F .text	00000208 quorem
00000000 l    df *ABS*	00000000 fflush.c
00000000 l    df *ABS*	00000000 findfp.c
000855bc l     F .text	00000008 __fp_lock
000855c4 l     F .text	00000008 __fp_unlock
00000000 l    df *ABS*	00000000 mallocr.c
00000000 l    df *ABS*	00000000 fvwrite.c
00000000 l    df *ABS*	00000000 fwalk.c
00000000 l    df *ABS*	00000000 impure.c
0008e4d8 l     O .rwdata	00000400 impure_data
00000000 l    df *ABS*	00000000 locale.c
0008e20c l     O .rodata	00000030 lconv
00000000 l    df *ABS*	00000000 makebuf.c
00000000 l    df *ABS*	00000000 mallocr.c
00000000 l    df *ABS*	00000000 memchr.c
00000000 l    df *ABS*	00000000 memmove.c
00000000 l    df *ABS*	00000000 memset.c
00000000 l    df *ABS*	00000000 mprec.c
0008e354 l     O .rodata	0000000c p05.2435
00000000 l    df *ABS*	00000000 putc.c
00000000 l    df *ABS*	00000000 mallocr.c
00000000 l    df *ABS*	00000000 s_isinfd.c
00000000 l    df *ABS*	00000000 s_isnand.c
00000000 l    df *ABS*	00000000 sbrkr.c
00000000 l    df *ABS*	00000000 stdio.c
00000000 l    df *ABS*	00000000 strcmp.c
00000000 l    df *ABS*	00000000 wbuf.c
00000000 l    df *ABS*	00000000 writer.c
00000000 l    df *ABS*	00000000 mallocr.c
00000000 l    df *ABS*	00000000 closer.c
00000000 l    df *ABS*	00000000 fclose.c
00000000 l    df *ABS*	00000000 fstatr.c
00000000 l    df *ABS*	00000000 int_errno.c
00000000 l    df *ABS*	00000000 isattyr.c
00000000 l    df *ABS*	00000000 lseekr.c
00000000 l    df *ABS*	00000000 readr.c
00000000 l    df *ABS*	00000000 libgcc2.c
00000000 l    df *ABS*	00000000 libgcc2.c
00000000 l    df *ABS*	00000000 libgcc2.c
00000000 l    df *ABS*	00000000 fp-bit.c
00089b70 l     F .text	00000354 _fpadd_parts
00000000 l    df *ABS*	00000000 fp-bit.c
00000000 l    df *ABS*	00000000 fp-bit.c
00000000 l    df *ABS*	00000000 fp-bit.c
00000000 l    df *ABS*	00000000 fp-bit.c
00000000 l    df *ABS*	00000000 fp-bit.c
00000000 l    df *ABS*	00000000 fp-bit.c
00000000 l    df *ABS*	00000000 fp-bit.c
00000000 l    df *ABS*	00000000 fp-bit.c
00000000 l    df *ABS*	00000000 fp-bit.c
00000000 l    df *ABS*	00000000 fp-bit.c
00000000 l    df *ABS*	00000000 fp-bit.c
00000000 l    df *ABS*	00000000 libgcc2.c
00000000 l    df *ABS*	00000000 libgcc2.c
00000000 l    df *ABS*	00000000 fp-bit.c
00000000 l    df *ABS*	00000000 fp-bit.c
00000000 l    df *ABS*	00000000 fp-bit.c
00000000 l    df *ABS*	00000000 libgcc2.c
00000000 l    df *ABS*	00000000 libgcc2.c
00000000 l    df *ABS*	00000000 alt_close.c
0008addc l     F .text	00000050 alt_get_errno
00000000 l    df *ABS*	00000000 alt_dcache_flush_all.c
00000000 l    df *ABS*	00000000 alt_dev.c
0008af38 l     F .text	0000002c alt_dev_null_write
00000000 l    df *ABS*	00000000 alt_errno.c
00000000 l    df *ABS*	00000000 alt_fstat.c
0008af64 l     F .text	00000050 alt_get_errno
00000000 l    df *ABS*	00000000 alt_isatty.c
0008b060 l     F .text	00000050 alt_get_errno
00000000 l    df *ABS*	00000000 alt_load.c
0008b150 l     F .text	0000006c alt_load_section
00000000 l    df *ABS*	00000000 alt_lseek.c
0008b23c l     F .text	00000050 alt_get_errno
00000000 l    df *ABS*	00000000 alt_main.c
00000000 l    df *ABS*	00000000 alt_malloc_lock.c
00000000 l    df *ABS*	00000000 alt_read.c
0008b414 l     F .text	00000050 alt_get_errno
00000000 l    df *ABS*	00000000 alt_release_fd.c
00000000 l    df *ABS*	00000000 alt_sbrk.c
0008ffe4 l     O .rwdata	00000004 heap_end
00000000 l    df *ABS*	00000000 alt_tick.c
00000000 l    df *ABS*	00000000 alt_usleep.c
00000000 l    df *ABS*	00000000 alt_write.c
0008b830 l     F .text	00000050 alt_get_errno
00000000 l    df *ABS*	00000000 alt_sys_init.c
0008b96c l     F .text	00000038 alt_dev_reg
0008ee94 l     O .rwdata	00001060 jtag_uart
0008fef4 l     O .rwdata	000000c4 uart
00000000 l    df *ABS*	00000000 altera_avalon_jtag_uart_fd.c
00000000 l    df *ABS*	00000000 altera_avalon_jtag_uart_init.c
0008bc9c l     F .text	00000204 altera_avalon_jtag_uart_irq
0008bea0 l     F .text	000000a4 altera_avalon_jtag_uart_timeout
00000000 l    df *ABS*	00000000 altera_avalon_jtag_uart_ioctl.c
00000000 l    df *ABS*	00000000 altera_avalon_jtag_uart_read.c
00000000 l    df *ABS*	00000000 altera_avalon_jtag_uart_write.c
00000000 l    df *ABS*	00000000 altera_avalon_timer_sc.c
0008c4dc l     F .text	00000074 alt_avalon_timer_sc_irq
00000000 l    df *ABS*	00000000 altera_avalon_timer_vars.c
00000000 l    df *ABS*	00000000 altera_avalon_uart_fd.c
00000000 l    df *ABS*	00000000 altera_avalon_uart_init.c
0008c790 l     F .text	00000098 altera_avalon_uart_irq
0008c828 l     F .text	000000d8 altera_avalon_uart_rxirq
0008c900 l     F .text	0000013c altera_avalon_uart_txirq
00000000 l    df *ABS*	00000000 altera_avalon_uart_read.c
0008ca90 l     F .text	00000050 alt_get_errno
00000000 l    df *ABS*	00000000 altera_avalon_uart_write.c
0008cce4 l     F .text	00000050 alt_get_errno
00000000 l    df *ABS*	00000000 alt_alarm_start.c
00000000 l    df *ABS*	00000000 alt_busy_sleep.c
00000000 l    df *ABS*	00000000 alt_dev_llist_insert.c
0008d170 l     F .text	00000050 alt_get_errno
00000000 l    df *ABS*	00000000 alt_do_ctors.c
00000000 l    df *ABS*	00000000 alt_do_dtors.c
00000000 l    df *ABS*	00000000 alt_icache_flush_all.c
00000000 l    df *ABS*	00000000 alt_iic.c
00000000 l    df *ABS*	00000000 alt_iic_isr_register.c
00000000 l    df *ABS*	00000000 alt_io_redirect.c
0008d610 l     F .text	000000c0 alt_open_fd
00000000 l    df *ABS*	00000000 alt_irq_vars.c
00000000 l    df *ABS*	00000000 alt_open.c
0008d748 l     F .text	00000050 alt_get_errno
0008d798 l     F .text	000000cc alt_file_locked
00000000 l    df *ABS*	00000000 altera_nios2_qsys_irq.c
00000000 l    df *ABS*	00000000 alt_find_dev.c
00000000 l    df *ABS*	00000000 alt_find_file.c
00000000 l    df *ABS*	00000000 alt_get_fd.c
00000000 l    df *ABS*	00000000 alt_icache_flush.c
00000000 l    df *ABS*	00000000 atexit.c
00000000 l    df *ABS*	00000000 exit.c
00000000 l    df *ABS*	00000000 memcmp.c
00000000 l    df *ABS*	00000000 __atexit.c
00000000 l    df *ABS*	00000000 __call_atexit.c
00000000 l    df *ABS*	00000000 alt_exit.c
00000000 l    df *ABS*	00000000 
00081a00 g     F .text	0000001c putchar
00087e1c g     F .text	00000074 _mprec_log10
000802dc g     F .text	00000100 I2C_Read
00087f0c g     F .text	00000084 __any_on
00088e80 g     F .text	00000064 _isatty_r
0008e23c g     O .rodata	00000028 __mprec_tinytens
0008b35c g     F .text	00000078 alt_main
0008ad98 g     F .text	00000044 __ashldi3
00081a1c g     F .text	00000084 _puts_r
00091ba0 g     O .bss	00000100 alt_irq
00088ee4 g     F .text	0000006c _lseek_r
0008fff4 g       *ABS*	00000000 __flash_rwdata_start
0008a410 g     F .text	0000005c __eqdf2
00091e30 g       *ABS*	00000000 __alt_heap_start
000819bc g     F .text	0000003c printf
000888dc g     F .text	0000005c __sseek
0008564c g     F .text	0000010c __sinit
000889e4 g     F .text	0000013c __swbuf_r
000862e4 g     F .text	0000009c _setlocale_r
000855d8 g     F .text	00000064 __sfmoreglue
0008b3f4 g     F .text	00000020 __malloc_unlock
00091b70 g     O .bss	00000004 altera_avalon_timer_ts_freq
00086de4 g     F .text	00000128 memmove
0008563c g     F .text	00000010 _cleanup
00086fe8 g     F .text	000000a8 _Balloc
0008a4c8 g     F .text	00000064 __gtdf2
00000000  w      *UND*	00000000 __errno
00080628 g     F .text	0000012c i2c_write
00080000 g     F .entry	0000001c __reset
00080020 g       *ABS*	00000000 __flash_exceptions_start
00088e18 g     F .text	00000068 _fstat_r
00091b54 g     O .bss	00000004 errno
00091b5c g     O .bss	00000004 alt_argv
00097fb8 g       *ABS*	00000000 _gp
0008b800 g     F .text	00000030 usleep
000814c4 g     F .text	0000018c VIDEO_Enable
0008ed14 g     O .rwdata	00000180 alt_fd_list
000819f8 g     F .text	00000008 _putchar_r
0008d9d8 g     F .text	00000090 alt_find_dev
00081898 g     F .text	000000f8 memcpy
00080da0 g     F .text	000004ec TMEM_Verify
000855cc g     F .text	0000000c _cleanup_r
0008a5ec g     F .text	000000d4 __floatsidf
0008d6d0 g     F .text	00000078 alt_io_redirect
0008a590 g     F .text	0000005c __ltdf2
0008e090 g       *ABS*	00000000 __DTOR_END__
00081650 g     F .text	00000070 MIX_LayerEnable
00081aa0 g     F .text	00000014 puts
00087d78 g     F .text	000000a4 __ratio
0008c0a0 g     F .text	00000218 altera_avalon_jtag_uart_read
00000000  w      *UND*	00000000 malloc
00081990 g     F .text	0000002c _printf_r
00081888 g     F .text	00000008 __udivsi3
0008b0b0 g     F .text	000000a0 isatty
0008e28c g     O .rodata	000000c8 __mprec_tens
00086380 g     F .text	0000000c __locale_charset
0008dc30 g     F .text	0000008c alt_icache_flush
000803dc g     F .text	00000158 I2C_MultipleRead
00091b50 g     O .bss	00000004 __malloc_top_pad
0008ffc0 g     O .rwdata	00000004 __mb_cur_max
0008638c g     F .text	0000000c _localeconv_r
000873e8 g     F .text	0000003c __i2b
00085ca0 g     F .text	000004e4 __sfvwrite_r
0008879c g     F .text	00000064 _sbrk_r
00088f50 g     F .text	0000006c _read_r
0008e8d8 g     O .rwdata	0000000c __lc_ctype
0008ffdc g     O .rwdata	00000004 alt_max_fd
0008ab80 g     F .text	00000104 __unpack_d
00088cc8 g     F .text	0000013c _fclose_r
0008558c g     F .text	00000030 fflush
00091b4c g     O .bss	00000004 __malloc_max_sbrked_mem
000809b4 g     F .text	00000138 I2CL_Read
00089ec4 g     F .text	00000054 __adddf3
00087aec g     F .text	00000148 __b2d
000895e4 g     F .text	0000058c __umoddi3
0008b28c g     F .text	000000d0 lseek
0008ffb8 g     O .rwdata	00000004 _global_impure_ptr
0008813c g     F .text	000005fc _realloc_r
00091e30 g       *ABS*	00000000 __bss_end
0008d520 g     F .text	000000f0 alt_iic_isr_register
0008b6fc g     F .text	00000104 alt_tick
0008901c g     F .text	000005c8 __udivdi3
0008e264 g     O .rodata	00000028 __mprec_bigtens
000871cc g     F .text	00000104 __s2b
0008a794 g     F .text	0000011c __floatunsidf
0008788c g     F .text	00000058 __mcmp
0008c6e8 g     F .text	000000a8 altera_avalon_uart_init
00085864 g     F .text	00000018 __fp_lock_all
0008d4d4 g     F .text	0000004c alt_ic_irq_enabled
00080204 g     F .text	000000d8 I2C_Write
0008b664 g     F .text	00000098 alt_alarm_stop
00091b74 g     O .bss	00000004 alt_irq_active
000800ec g     F .exceptions	000000cc alt_irq_handler
0008ecec g     O .rwdata	00000028 alt_dev_null
00080534 g     F .text	00000084 i2c_start
0008aef4 g     F .text	00000044 alt_dcache_flush_all
000872d0 g     F .text	00000068 __hi0bits
0008a6c0 g     F .text	000000d4 __fixdfsi
0008fff4 g       *ABS*	00000000 __ram_rwdata_end
0008ffd4 g     O .rwdata	00000008 alt_dev_list
0008b880 g     F .text	000000ec write
00087f90 g     F .text	000000bc _putc_r
0008e4ac g       *ABS*	00000000 __ram_rodata_end
0008afb4 g     F .text	000000ac fstat
0008ad54 g     F .text	00000044 __lshrdi3
00087604 g     F .text	0000012c __pow5mult
00091b44 g     O .bss	00000004 __nlocale_changed
00081890 g     F .text	00000008 __umodsi3
000816c0 g     F .text	0000006c MIX_LayerMove
00091e30 g       *ABS*	00000000 end
0008cd34 g     F .text	000001a8 altera_avalon_uart_write
0008bbdc g     F .text	000000c0 altera_avalon_jtag_uart_init
0008e090 g       *ABS*	00000000 __CTOR_LIST__
000a7100 g       *ABS*	00000000 __alt_stack_pointer
0008c550 g     F .text	00000088 alt_avalon_timer_sc_init
0008c638 g     F .text	00000060 altera_avalon_uart_write_fd
0008a8b0 g     F .text	000000ac __clzsi2
0008c698 g     F .text	00000050 altera_avalon_uart_close_fd
0008c2b8 g     F .text	00000224 altera_avalon_jtag_uart_write
00085854 g     F .text	00000004 __sfp_lock_acquire
00086cec g     F .text	000000f8 memchr
00081bf0 g     F .text	00001df8 ___vfprintf_internal_r
000859d0 g     F .text	000002d0 _free_r
0008deb4 g     F .text	000001a0 __call_exitprocs
00091b40 g     O .bss	00000004 __mlocale_changed
0008ffc4 g     O .rwdata	00000004 __malloc_sbrk_base
000801b8 g     F .text	0000004c _start
00091b64 g     O .bss	00000004 _alt_tick_rate
00081acc g     F .text	00000064 rand
0008172c g     F .text	0000003c MIX_Init
00087730 g     F .text	0000015c __lshift
00091b68 g     O .bss	00000004 _alt_nticks
0008b464 g     F .text	000000f0 read
0008b9d8 g     F .text	000000a0 alt_sys_init
0008dd84 g     F .text	00000130 __register_exitproc
00087424 g     F .text	000001e0 __multiply
0008bf44 g     F .text	00000068 altera_avalon_jtag_uart_close
0008e4ac g       *ABS*	00000000 __ram_rwdata_start
0008e090 g       *ABS*	00000000 __ram_rodata_start
00091b78 g     O .bss	00000028 __malloc_current_mallinfo
00087c34 g     F .text	00000144 __d2b
0008ba78 g     F .text	00000060 altera_avalon_jtag_uart_read_fd
0008db7c g     F .text	000000b4 alt_get_fd
0008d01c g     F .text	00000154 alt_busy_sleep
0008ac84 g     F .text	000000d0 __fpcmp_parts_d
00088c64 g     F .text	00000064 _close_r
0008dd08 g     F .text	0000007c memcmp
0008bb38 g     F .text	00000050 altera_avalon_jtag_uart_close_fd
00091e30 g       *ABS*	00000000 __alt_stack_base
0008bb88 g     F .text	00000054 altera_avalon_jtag_uart_ioctl_fd
00083a0c g     F .text	00000174 __swsetup_r
0008a25c g     F .text	000001b4 __divdf3
00085758 g     F .text	000000fc __sfp
00087e90 g     F .text	0000007c __copybits
0008e8e4 g     O .rwdata	00000408 __malloc_av_
00085860 g     F .text	00000004 __sinit_lock_release
000805b8 g     F .text	00000070 i2c_stop
00089f78 g     F .text	000002e4 __muldf3
00088800 g     F .text	00000054 __sread
0008da68 g     F .text	00000114 alt_find_file
0008d1c0 g     F .text	000000a0 alt_dev_llist_insert
0008b3d4 g     F .text	00000020 __malloc_lock
0008b5b4 g     F .text	000000b0 sbrk
000853a4 g     F .text	000001e8 _fflush_r
00088ba8 g     F .text	000000bc _calloc_r
00091b3c g       *ABS*	00000000 __bss_start
00086f0c g     F .text	000000dc memset
00080d40 g     F .text	00000060 main
00091b60 g     O .bss	00000004 alt_envp
00091b48 g     O .bss	00000004 __malloc_max_total_mem
0008bad8 g     F .text	00000060 altera_avalon_jtag_uart_write_fd
00080754 g     F .text	00000150 i2c_read
00080c74 g     F .text	000000cc I2C_AUDIO_Write
00088b20 g     F .text	0000001c __swbuf
00081ab4 g     F .text	00000018 srand
00088938 g     F .text	00000008 __sclose
000a7100 g       *ABS*	00000000 __alt_heap_limit
00088e04 g     F .text	00000014 fclose
00091ca0 g     O .bss	00000190 _atexit0
00083d88 g     F .text	0000161c _dtoa_r
00086568 g     F .text	00000784 _malloc_r
0008ffe0 g     O .rwdata	00000004 alt_errno
00086184 g     F .text	000000a8 _fwalk
0008804c g     F .text	000000f0 putc
000817dc g     F .text	00000050 __divsi3
0008e360 g     O .rodata	00000014 __thenan_df
00085894 g     F .text	0000013c _malloc_trim_r
0008e090 g       *ABS*	00000000 __CTOR_END__
00088940 g     F .text	000000a4 strcmp
0008e090 g       *ABS*	00000000 __flash_rodata_start
0008e090 g       *ABS*	00000000 __DTOR_LIST__
0008a46c g     F .text	0000005c __nedf2
0008b9a4 g     F .text	00000034 alt_irq_init
0008b554 g     F .text	00000060 alt_release_fd
0008e374 g     O .rodata	00000100 __clz_tab
00091b3c g     O .bss	00000004 _PathLocale
0008dcbc g     F .text	00000014 atexit
00088b3c g     F .text	0000006c _write_r
00086398 g     F .text	0000001c setlocale
0008ffbc g     O .rwdata	00000004 _impure_ptr
00091b58 g     O .bss	00000004 alt_argc
00091b6c g     O .bss	00000004 altera_avalon_timer_ts_base
0008d2bc g     F .text	0000005c _do_dtors
00080aec g     F .text	00000188 I2CL_MultipleRead
0008e4ac g     O .rwdata	0000002a szTvConfig
00080020 g       .exceptions	00000000 alt_irq_entry
00087a8c g     F .text	00000060 __ulp
00088738 g     F .text	00000038 __isinfd
0008587c g     F .text	00000018 __fp_unlock_all
0008ffcc g     O .rwdata	00000008 alt_fs_list
00080020 g       *ABS*	00000000 __ram_exceptions_start
000863b4 g     F .text	0000000c localeconv
00080000 g       *ABS*	00000000 __alt_mem_onchip_memory2
0008d348 g     F .text	00000050 alt_ic_isr_register
0008fff4 g       *ABS*	00000000 _edata
0008c5d8 g     F .text	00000060 altera_avalon_uart_read_fd
00091e30 g       *ABS*	00000000 _end
000801b8 g       *ABS*	00000000 __ram_exceptions_end
0008bfac g     F .text	000000f4 altera_avalon_jtag_uart_ioctl
0008d434 g     F .text	000000a0 alt_ic_irq_disable
00088854 g     F .text	00000088 __swrite
0008ffc8 g     O .rwdata	00000004 __malloc_trim_threshold
0008d9b8 g     F .text	00000020 altera_nios2_qsys_irq_init
0008dcd0 g     F .text	00000038 exit
0008622c g     F .text	000000b8 _fwalk_reent
000878e4 g     F .text	000001a8 __mdiff
0008182c g     F .text	0000005c __modsi3
0008128c g     F .text	00000238 TMEM_QuickVerify
000a7100 g       *ABS*	00000000 __alt_data_end
00080020 g     F .exceptions	00000000 alt_exception
00085858 g     F .text	00000004 __sfp_lock_release
0008ca3c g     F .text	00000054 altera_avalon_uart_close
0008e054 g     F .text	0000003c _exit
00088770 g     F .text	0000002c __isnand
0008cedc g     F .text	00000140 alt_alarm_start
00088fbc g     F .text	00000060 __muldi3
000863c0 g     F .text	000001a8 __smakebuf_r
00081b30 g     F .text	0000008c strlen
0008d864 g     F .text	00000154 open
0008a52c g     F .text	00000064 __gedf2
0008d318 g     F .text	00000030 alt_icache_flush_all
0008fff0 g     O .rwdata	00000004 alt_priority_mask
0008d398 g     F .text	0000009c alt_ic_irq_enable
000839e8 g     F .text	00000024 __vfprintf_internal
0008cae0 g     F .text	00000204 altera_avalon_uart_read
00089f18 g     F .text	00000060 __subdf3
00087338 g     F .text	000000b0 __lo0bits
0008ffe8 g     O .rwdata	00000008 alt_alarm_list
0008d260 g     F .text	0000005c _do_ctors
000808a4 g     F .text	00000110 I2CL_Write
0008ae2c g     F .text	000000c8 close
0008b1bc g     F .text	00000080 alt_load
0008a95c g     F .text	00000224 __pack_d
00000000  w      *UND*	00000000 free
0008585c g     F .text	00000004 __sinit_lock_acquire
000870b8 g     F .text	00000114 __multadd
00087090 g     F .text	00000028 _Bfree



Disassembly of section .entry:

00080000 <__reset>:
#if NIOS2_ICACHE_SIZE > 0 && defined(ALT_ALLOW_CODE_AT_RESET) && !defined(ALT_SIM_OPTIMIZE)
    /* Assume the instruction cache size is always a power of two. */
#if NIOS2_ICACHE_SIZE > 0x8000
    movhi r2, %hi(NIOS2_ICACHE_SIZE)
#else
    movui r2, NIOS2_ICACHE_SIZE
   80000:	00840014 	movui	r2,4096
#endif

0:
    initi r2
   80004:	1001483a 	initi	r2
    addi r2, r2, -NIOS2_ICACHE_LINE_SIZE
   80008:	10bff804 	addi	r2,r2,-32
    bgt r2, zero, 0b
   8000c:	00bffd16 	blt	zero,r2,80004 <__reset+0x4>
 * Jump to the _start entry point in the .text section if reset code
 * is allowed or if optimizing for RTL simulation.
 */
#if defined(ALT_ALLOW_CODE_AT_RESET) || defined(ALT_SIM_OPTIMIZE)
    /* Jump to the _start entry point in the .text section. */
    movhi r1, %hi(_start)
   80010:	00400234 	movhi	at,8
    ori r1, r1, %lo(_start)
   80014:	08406e14 	ori	at,at,440
    jmp r1
   80018:	0800683a 	jmp	at
   8001c:	00000000 	call	0 <__reset-0x80000>

Disassembly of section .exceptions:

00080020 <alt_exception>:

#else /* ALT_EXCEPTION_STACK disabled */
        /* 
         * Reserve space on normal stack for registers about to be pushed.
         */
        addi  sp, sp, -76
   80020:	deffed04 	addi	sp,sp,-76
         * documentation for details).
         *
         * Leave a gap in the stack frame at 4(sp) for the muldiv handler to
         * store zero into.
         */
        stw   ra,  0(sp)
   80024:	dfc00015 	stw	ra,0(sp)
        stw   r1,   8(sp)
   80028:	d8400215 	stw	at,8(sp)
        stw   r2,  12(sp)
   8002c:	d8800315 	stw	r2,12(sp)
        stw   r3,  16(sp)
   80030:	d8c00415 	stw	r3,16(sp)
        stw   r4,  20(sp)
   80034:	d9000515 	stw	r4,20(sp)
        stw   r5,  24(sp)
   80038:	d9400615 	stw	r5,24(sp)
        stw   r6,  28(sp)
   8003c:	d9800715 	stw	r6,28(sp)
        stw   r7,  32(sp)
   80040:	d9c00815 	stw	r7,32(sp)
        rdctl r5, estatus   /* Read early to avoid usage stall */
   80044:	000b307a 	rdctl	r5,estatus
        stw   r8,  36(sp)
   80048:	da000915 	stw	r8,36(sp)
        stw   r9,  40(sp)
   8004c:	da400a15 	stw	r9,40(sp)
        stw   r10, 44(sp)
   80050:	da800b15 	stw	r10,44(sp)
        stw   r11, 48(sp)
   80054:	dac00c15 	stw	r11,48(sp)
        stw   r12, 52(sp)
   80058:	db000d15 	stw	r12,52(sp)
        stw   r13, 56(sp)
   8005c:	db400e15 	stw	r13,56(sp)
        stw   r14, 60(sp)
   80060:	db800f15 	stw	r14,60(sp)
        stw   r15, 64(sp)
   80064:	dbc01015 	stw	r15,64(sp)
        /*
         * ea-4 contains the address of the instruction being executed
         * when the exception occured. For interrupt exceptions, we will
         * will be re-issue the isntruction. Store it in 72(sp)
         */
        stw   r5,  68(sp)  /* estatus */
   80068:	d9401115 	stw	r5,68(sp)
        addi  r15, ea, -4  /* instruction that caused exception */
   8006c:	ebffff04 	addi	r15,ea,-4
        stw   r15,  72(sp)
   80070:	dbc01215 	stw	r15,72(sp)
#else
        /*
         * Test to see if the exception was a software exception or caused 
         * by an external interrupt, and vector accordingly.
         */
        rdctl r4, ipending
   80074:	0009313a 	rdctl	r4,ipending
        andi  r2, r5, 1
   80078:	2880004c 	andi	r2,r5,1
        beq   r2, zero, .Lnot_irq
   8007c:	10000326 	beq	r2,zero,8008c <alt_exception+0x6c>
        beq   r4, zero, .Lnot_irq
   80080:	20000226 	beq	r4,zero,8008c <alt_exception+0x6c>
        /*
         * Now that all necessary registers have been preserved, call 
         * alt_irq_handler() to process the interrupts.
         */

        call alt_irq_handler
   80084:	00800ec0 	call	800ec <alt_irq_handler>

        .section .exceptions.irqreturn, "xa"

        br    .Lexception_exit
   80088:	00000306 	br	80098 <alt_exception_unknown+0x4>
         * upon completion, so we write ea (address of instruction *after*
         * the one where the exception occured) into 72(sp). The actual
         * instruction that caused the exception is written in r2, which these
         * handlers will utilize.
         */
        stw   ea,  72(sp)  /* Don't re-issue */
   8008c:	df401215 	stw	ea,72(sp)
        ldw   r2, -4(ea)   /* Instruction that caused exception */
   80090:	e8bfff17 	ldw	r2,-4(ea)

00080094 <alt_exception_unknown>:
#ifdef NIOS2_HAS_DEBUG_STUB
       /*
        *  Either tell the user now (if there is a debugger attached) or go into
        *  the debug monitor which will loop until a debugger is attached.
        */
        break
   80094:	003da03a 	break	0
        /* 
         * Restore the saved registers, so that all general purpose registers 
         * have been restored to their state at the time the interrupt occured.
         */

        ldw   r5,  68(sp)
   80098:	d9401117 	ldw	r5,68(sp)
        ldw   ea,  72(sp)  /* This becomes the PC once eret is executed */
   8009c:	df401217 	ldw	ea,72(sp)
        ldw   ra,   0(sp)
   800a0:	dfc00017 	ldw	ra,0(sp)

        wrctl estatus, r5
   800a4:	2801707a 	wrctl	estatus,r5

        ldw   r1,   8(sp)
   800a8:	d8400217 	ldw	at,8(sp)
        ldw   r2,  12(sp)
   800ac:	d8800317 	ldw	r2,12(sp)
        ldw   r3,  16(sp)
   800b0:	d8c00417 	ldw	r3,16(sp)
        ldw   r4,  20(sp)
   800b4:	d9000517 	ldw	r4,20(sp)
        ldw   r5,  24(sp)
   800b8:	d9400617 	ldw	r5,24(sp)
        ldw   r6,  28(sp)
   800bc:	d9800717 	ldw	r6,28(sp)
        ldw   r7,  32(sp)
   800c0:	d9c00817 	ldw	r7,32(sp)

#if defined(ALT_EXCEPTION_STACK) && defined(ALT_STACK_CHECK)
        ldw   et, %gprel(alt_exception_old_stack_limit)(gp)
#endif

        ldw   r8,  36(sp)
   800c4:	da000917 	ldw	r8,36(sp)
        ldw   r9,  40(sp)
   800c8:	da400a17 	ldw	r9,40(sp)
        ldw   r10, 44(sp)
   800cc:	da800b17 	ldw	r10,44(sp)
        ldw   r11, 48(sp)
   800d0:	dac00c17 	ldw	r11,48(sp)
        ldw   r12, 52(sp)
   800d4:	db000d17 	ldw	r12,52(sp)
        ldw   r13, 56(sp)
   800d8:	db400e17 	ldw	r13,56(sp)
        ldw   r14, 60(sp)
   800dc:	db800f17 	ldw	r14,60(sp)
        ldw   r15, 64(sp)
   800e0:	dbc01017 	ldw	r15,64(sp)
        stw   et, %gprel(alt_stack_limit_value)(gp)
        stw   zero, %gprel(alt_exception_old_stack_limit)(gp)
#endif /* ALT_STACK_CHECK */
        ldw   sp,  76(sp)
#else /* ALT_EXCEPTION_STACK disabled */
        addi  sp, sp, 76
   800e4:	dec01304 	addi	sp,sp,76

        /*
         * Return to the interrupted instruction.
         */

        eret
   800e8:	ef80083a 	eret

000800ec <alt_irq_handler>:
 * instruction is present if the macro ALT_CI_INTERRUPT_VECTOR defined.
 */

void alt_irq_handler (void) __attribute__ ((section (".exceptions")));
void alt_irq_handler (void)
{
   800ec:	defff904 	addi	sp,sp,-28
   800f0:	dfc00615 	stw	ra,24(sp)
   800f4:	df000515 	stw	fp,20(sp)
   800f8:	df000504 	addi	fp,sp,20
  
  /*
   * Notify the operating system that we are at interrupt level.
   */ 
  
  ALT_OS_INT_ENTER();
   800fc:	0001883a 	nop
#ifndef NIOS2_EIC_PRESENT
static ALT_INLINE alt_u32 ALT_ALWAYS_INLINE alt_irq_pending (void)
{
  alt_u32 active;

  NIOS2_READ_IPENDING (active);
   80100:	0005313a 	rdctl	r2,ipending
   80104:	e0bffe15 	stw	r2,-8(fp)

  return active;
   80108:	e0bffe17 	ldw	r2,-8(fp)
   * Consider the case where the high priority interupt is asserted during
   * the interrupt entry sequence for a lower priority interrupt to see why
   * this is the case.
   */

  active = alt_irq_pending ();
   8010c:	e0bffb15 	stw	r2,-20(fp)

  do
  {
    i = 0;
   80110:	e03ffd15 	stw	zero,-12(fp)
    mask = 1;
   80114:	00800044 	movi	r2,1
   80118:	e0bffc15 	stw	r2,-16(fp)
     * called to clear the interrupt condition.
     */

    do
    {
      if (active & mask)
   8011c:	e0fffb17 	ldw	r3,-20(fp)
   80120:	e0bffc17 	ldw	r2,-16(fp)
   80124:	1884703a 	and	r2,r3,r2
   80128:	10001726 	beq	r2,zero,80188 <alt_irq_handler+0x9c>
      { 
#ifdef ALT_ENHANCED_INTERRUPT_API_PRESENT
        alt_irq[i].handler(alt_irq[i].context); 
   8012c:	00c00274 	movhi	r3,9
   80130:	18c6e804 	addi	r3,r3,7072
   80134:	e0bffd17 	ldw	r2,-12(fp)
   80138:	100490fa 	slli	r2,r2,3
   8013c:	1885883a 	add	r2,r3,r2
   80140:	10c00017 	ldw	r3,0(r2)
   80144:	01000274 	movhi	r4,9
   80148:	2106e804 	addi	r4,r4,7072
   8014c:	e0bffd17 	ldw	r2,-12(fp)
   80150:	100490fa 	slli	r2,r2,3
   80154:	2085883a 	add	r2,r4,r2
   80158:	10800104 	addi	r2,r2,4
   8015c:	10800017 	ldw	r2,0(r2)
   80160:	1009883a 	mov	r4,r2
   80164:	183ee83a 	callr	r3
#else
        alt_irq[i].handler(alt_irq[i].context, i); 
#endif
        break;
   80168:	0001883a 	nop
#ifndef NIOS2_EIC_PRESENT
static ALT_INLINE alt_u32 ALT_ALWAYS_INLINE alt_irq_pending (void)
{
  alt_u32 active;

  NIOS2_READ_IPENDING (active);
   8016c:	0005313a 	rdctl	r2,ipending
   80170:	e0bfff15 	stw	r2,-4(fp)

  return active;
   80174:	e0bfff17 	ldw	r2,-4(fp)
      mask <<= 1;
      i++;

    } while (1);

    active = alt_irq_pending ();
   80178:	e0bffb15 	stw	r2,-20(fp)
    
  } while (active);
   8017c:	e0bffb17 	ldw	r2,-20(fp)
   80180:	103fe31e 	bne	r2,zero,80110 <alt_irq_handler+0x24>

  /*
   * Notify the operating system that interrupt processing is complete.
   */ 

  ALT_OS_INT_EXIT();
   80184:	00000706 	br	801a4 <alt_irq_handler+0xb8>
#else
        alt_irq[i].handler(alt_irq[i].context, i); 
#endif
        break;
      }
      mask <<= 1;
   80188:	e0bffc17 	ldw	r2,-16(fp)
   8018c:	1085883a 	add	r2,r2,r2
   80190:	e0bffc15 	stw	r2,-16(fp)
      i++;
   80194:	e0bffd17 	ldw	r2,-12(fp)
   80198:	10800044 	addi	r2,r2,1
   8019c:	e0bffd15 	stw	r2,-12(fp)

    } while (1);
   801a0:	003fde06 	br	8011c <alt_irq_handler+0x30>
  /*
   * Notify the operating system that interrupt processing is complete.
   */ 

  ALT_OS_INT_EXIT();
}
   801a4:	e037883a 	mov	sp,fp
   801a8:	dfc00117 	ldw	ra,4(sp)
   801ac:	df000017 	ldw	fp,0(sp)
   801b0:	dec00204 	addi	sp,sp,8
   801b4:	f800283a 	ret

Disassembly of section .text:

000801b8 <_start>:

    /* Assume the data cache size is always a power of two. */
#if NIOS2_DCACHE_SIZE > 0x8000
    movhi r2, %hi(NIOS2_DCACHE_SIZE)
#else
    movui r2, NIOS2_DCACHE_SIZE
   801b8:	00820014 	movui	r2,2048
#endif

0:
    initd 0(r2)
   801bc:	10000033 	initd	0(r2)
#ifdef NIOS2_ECC_PRESENT
    addi r2, r2, -4
#else
    addi r2, r2, -NIOS2_DCACHE_LINE_SIZE
   801c0:	10bff804 	addi	r2,r2,-32
#endif
    bgt r2, zero, 0b
   801c4:	00bffd16 	blt	zero,r2,801bc <_start+0x4>

    /*
     * Now that the caches are initialized, set up the stack pointer and global pointer.
     * The values provided by the linker are assumed to be correctly aligned.
     */
    movhi sp, %hi(__alt_stack_pointer)
   801c8:	06c002b4 	movhi	sp,10
    ori sp, sp, %lo(__alt_stack_pointer)
   801cc:	dedc4014 	ori	sp,sp,28928
    movhi gp, %hi(_gp)
   801d0:	06800274 	movhi	gp,9
    ori gp, gp, %lo(_gp)
   801d4:	d69fee14 	ori	gp,gp,32696
 */
#ifndef ALT_SIM_OPTIMIZE
    /* Log that the BSS is about to be cleared. */
    ALT_LOG_PUTS(alt_log_msg_bss)

    movhi r2, %hi(__bss_start)
   801d8:	00800274 	movhi	r2,9
    ori r2, r2, %lo(__bss_start)
   801dc:	1086cf14 	ori	r2,r2,6972

    movhi r3, %hi(__bss_end)
   801e0:	00c00274 	movhi	r3,9
    ori r3, r3, %lo(__bss_end)
   801e4:	18c78c14 	ori	r3,r3,7728

    beq r2, r3, 1f
   801e8:	10c00326 	beq	r2,r3,801f8 <_start+0x40>

0:
    stw zero, (r2)
   801ec:	10000015 	stw	zero,0(r2)
    addi r2, r2, 4
   801f0:	10800104 	addi	r2,r2,4
    bltu r2, r3, 0b
   801f4:	10fffd36 	bltu	r2,r3,801ec <_start+0x34>
     * section aren't defined until alt_load() has been called).
     */
    mov   et, zero
#endif

    call alt_load
   801f8:	008b1bc0 	call	8b1bc <alt_load>

    /* Log that alt_main is about to be called. */
    ALT_LOG_PUTS(alt_log_msg_alt_main)

    /* Call the C entry point. It should never return. */
    call alt_main
   801fc:	008b35c0 	call	8b35c <alt_main>

00080200 <alt_after_alt_main>:

    /* Wait in infinite loop in case alt_main does return. */
alt_after_alt_main:
    br alt_after_alt_main
   80200:	003fff06 	br	80200 <alt_after_alt_main>

00080204 <I2C_Write>:
bool i2c_write(alt_u32 clk_base, alt_u32 data_base, alt_u8 Data);
void i2c_read(alt_u32 clk_base, alt_u32 data_base, alt_u8 *pData, bool bAck);



bool I2C_Write(alt_u32 clk_base, alt_u32 data_base, alt_8 DeviceAddr, alt_u8 ControlAddr, alt_u8 ControlData){
   80204:	defff804 	addi	sp,sp,-32
   80208:	dfc00715 	stw	ra,28(sp)
   8020c:	df000615 	stw	fp,24(sp)
   80210:	df000604 	addi	fp,sp,24
   80214:	e13ffb15 	stw	r4,-20(fp)
   80218:	e17ffc15 	stw	r5,-16(fp)
   8021c:	3007883a 	mov	r3,r6
   80220:	3805883a 	mov	r2,r7
   80224:	e1000217 	ldw	r4,8(fp)
   80228:	e0fffd05 	stb	r3,-12(fp)
   8022c:	e0bffe05 	stb	r2,-8(fp)
   80230:	e13fff05 	stb	r4,-4(fp)
    bool bSuccess = TRUE;
   80234:	00800044 	movi	r2,1
   80238:	e0bffa15 	stw	r2,-24(fp)
    //alt_u8 DeviceAddr;
    
    // device id
    //DeviceAddr = HMB_E2_I2C_ID;

    i2c_start(clk_base, data_base);
   8023c:	e13ffb17 	ldw	r4,-20(fp)
   80240:	e17ffc17 	ldw	r5,-16(fp)
   80244:	00805340 	call	80534 <i2c_start>
    if (!i2c_write(clk_base, data_base, DeviceAddr)){  // send ID
   80248:	e0bffd03 	ldbu	r2,-12(fp)
   8024c:	10803fcc 	andi	r2,r2,255
   80250:	e13ffb17 	ldw	r4,-20(fp)
   80254:	e17ffc17 	ldw	r5,-16(fp)
   80258:	100d883a 	mov	r6,r2
   8025c:	00806280 	call	80628 <i2c_write>
   80260:	1000011e 	bne	r2,zero,80268 <I2C_Write+0x64>
        bSuccess = FALSE;
   80264:	e03ffa15 	stw	zero,-24(fp)
        I2C_DEBUG(("I2C HMB_E2 Fail: Address NACK!\n"));
    }
    if (bSuccess && !i2c_write(clk_base, data_base, ControlAddr)){ // send sub-address
   80268:	e0bffa17 	ldw	r2,-24(fp)
   8026c:	10000726 	beq	r2,zero,8028c <I2C_Write+0x88>
   80270:	e0bffe03 	ldbu	r2,-8(fp)
   80274:	e13ffb17 	ldw	r4,-20(fp)
   80278:	e17ffc17 	ldw	r5,-16(fp)
   8027c:	100d883a 	mov	r6,r2
   80280:	00806280 	call	80628 <i2c_write>
   80284:	1000011e 	bne	r2,zero,8028c <I2C_Write+0x88>
        bSuccess = FALSE;
   80288:	e03ffa15 	stw	zero,-24(fp)
        I2C_DEBUG(("I2C HMB_E2 Fail: SubAddress NACK!\n"));
    }            
    if (bSuccess && !i2c_write(clk_base, data_base, ControlData)){  
   8028c:	e0bffa17 	ldw	r2,-24(fp)
   80290:	10000726 	beq	r2,zero,802b0 <I2C_Write+0xac>
   80294:	e0bfff03 	ldbu	r2,-4(fp)
   80298:	e13ffb17 	ldw	r4,-20(fp)
   8029c:	e17ffc17 	ldw	r5,-16(fp)
   802a0:	100d883a 	mov	r6,r2
   802a4:	00806280 	call	80628 <i2c_write>
   802a8:	1000011e 	bne	r2,zero,802b0 <I2C_Write+0xac>
        bSuccess = FALSE;
   802ac:	e03ffa15 	stw	zero,-24(fp)
        I2C_DEBUG(("I2C HMB_E2 Fail: write NACK!\n"));
    }
    i2c_stop(clk_base, data_base);
   802b0:	e13ffb17 	ldw	r4,-20(fp)
   802b4:	e17ffc17 	ldw	r5,-16(fp)
   802b8:	00805b80 	call	805b8 <i2c_stop>
    
    usleep(7*1000); // delay to wait EE2 ready (at least 5 ms delay is required)
   802bc:	0106d604 	movi	r4,7000
   802c0:	008b8000 	call	8b800 <usleep>
    
    return bSuccess;
   802c4:	e0bffa17 	ldw	r2,-24(fp)

    
}
   802c8:	e037883a 	mov	sp,fp
   802cc:	dfc00117 	ldw	ra,4(sp)
   802d0:	df000017 	ldw	fp,0(sp)
   802d4:	dec00204 	addi	sp,sp,8
   802d8:	f800283a 	ret

000802dc <I2C_Read>:

bool I2C_Read(alt_u32 clk_base, alt_u32 data_base, alt_8 DeviceAddr, alt_u8 ControlAddr, alt_u8 *pControlData){
   802dc:	defff904 	addi	sp,sp,-28
   802e0:	dfc00615 	stw	ra,24(sp)
   802e4:	df000515 	stw	fp,20(sp)
   802e8:	df000504 	addi	fp,sp,20
   802ec:	e13ffc15 	stw	r4,-16(fp)
   802f0:	e17ffd15 	stw	r5,-12(fp)
   802f4:	3007883a 	mov	r3,r6
   802f8:	3805883a 	mov	r2,r7
   802fc:	e0fffe05 	stb	r3,-8(fp)
   80300:	e0bfff05 	stb	r2,-4(fp)
    bool bSuccess = TRUE;
   80304:	00800044 	movi	r2,1
   80308:	e0bffb15 	stw	r2,-20(fp)
    //alt_u8 DeviceAddr;
   
    // device id
    //DeviceAddr = HMB_E2_I2C_ID;

    i2c_start(clk_base, data_base);
   8030c:	e13ffc17 	ldw	r4,-16(fp)
   80310:	e17ffd17 	ldw	r5,-12(fp)
   80314:	00805340 	call	80534 <i2c_start>
    if (!i2c_write(clk_base, data_base, DeviceAddr)){  // send ID
   80318:	e0bffe03 	ldbu	r2,-8(fp)
   8031c:	10803fcc 	andi	r2,r2,255
   80320:	e13ffc17 	ldw	r4,-16(fp)
   80324:	e17ffd17 	ldw	r5,-12(fp)
   80328:	100d883a 	mov	r6,r2
   8032c:	00806280 	call	80628 <i2c_write>
   80330:	1000011e 	bne	r2,zero,80338 <I2C_Read+0x5c>
        bSuccess = FALSE;
   80334:	e03ffb15 	stw	zero,-20(fp)
        I2C_DEBUG(("I2C HMB_E2 Fail: Address NACK!\n"));
    }
    if (bSuccess && !i2c_write(clk_base, data_base, ControlAddr)){ // send sub-address
   80338:	e0bffb17 	ldw	r2,-20(fp)
   8033c:	10000726 	beq	r2,zero,8035c <I2C_Read+0x80>
   80340:	e0bfff03 	ldbu	r2,-4(fp)
   80344:	e13ffc17 	ldw	r4,-16(fp)
   80348:	e17ffd17 	ldw	r5,-12(fp)
   8034c:	100d883a 	mov	r6,r2
   80350:	00806280 	call	80628 <i2c_write>
   80354:	1000011e 	bne	r2,zero,8035c <I2C_Read+0x80>
        bSuccess = FALSE;
   80358:	e03ffb15 	stw	zero,-20(fp)
        I2C_DEBUG(("I2C HMB_E2 Fail: SubAddress NACK!\n"));
    }            
    i2c_start(clk_base, data_base);  // restart
   8035c:	e13ffc17 	ldw	r4,-16(fp)
   80360:	e17ffd17 	ldw	r5,-12(fp)
   80364:	00805340 	call	80534 <i2c_start>
    DeviceAddr |= 1; // Read
   80368:	e0bffe03 	ldbu	r2,-8(fp)
   8036c:	10800054 	ori	r2,r2,1
   80370:	e0bffe05 	stb	r2,-8(fp)
    if (bSuccess && !i2c_write(clk_base, data_base, DeviceAddr)){  // send id
   80374:	e0bffb17 	ldw	r2,-20(fp)
   80378:	10000826 	beq	r2,zero,8039c <I2C_Read+0xc0>
   8037c:	e0bffe03 	ldbu	r2,-8(fp)
   80380:	10803fcc 	andi	r2,r2,255
   80384:	e13ffc17 	ldw	r4,-16(fp)
   80388:	e17ffd17 	ldw	r5,-12(fp)
   8038c:	100d883a 	mov	r6,r2
   80390:	00806280 	call	80628 <i2c_write>
   80394:	1000011e 	bne	r2,zero,8039c <I2C_Read+0xc0>
        bSuccess = FALSE;
   80398:	e03ffb15 	stw	zero,-20(fp)
        I2C_DEBUG(("I2C HMB_E2 Fail: Address+1 NACK!\n"));
    }
    
    if (bSuccess){
   8039c:	e0bffb17 	ldw	r2,-20(fp)
   803a0:	10000526 	beq	r2,zero,803b8 <I2C_Read+0xdc>
        i2c_read(clk_base, data_base, pControlData, FALSE);  // read
   803a4:	e13ffc17 	ldw	r4,-16(fp)
   803a8:	e17ffd17 	ldw	r5,-12(fp)
   803ac:	e1800217 	ldw	r6,8(fp)
   803b0:	000f883a 	mov	r7,zero
   803b4:	00807540 	call	80754 <i2c_read>
    }        
    i2c_stop(clk_base, data_base);
   803b8:	e13ffc17 	ldw	r4,-16(fp)
   803bc:	e17ffd17 	ldw	r5,-12(fp)
   803c0:	00805b80 	call	805b8 <i2c_stop>
    
    return bSuccess;
   803c4:	e0bffb17 	ldw	r2,-20(fp)
}
   803c8:	e037883a 	mov	sp,fp
   803cc:	dfc00117 	ldw	ra,4(sp)
   803d0:	df000017 	ldw	fp,0(sp)
   803d4:	dec00204 	addi	sp,sp,8
   803d8:	f800283a 	ret

000803dc <I2C_MultipleRead>:

bool I2C_MultipleRead(alt_u32 clk_base, alt_u32 data_base, alt_8 DeviceAddr, alt_u8 ControlAddr, alt_u8 szData[], alt_u16 len){
   803dc:	defff704 	addi	sp,sp,-36
   803e0:	dfc00815 	stw	ra,32(sp)
   803e4:	df000715 	stw	fp,28(sp)
   803e8:	df000704 	addi	fp,sp,28
   803ec:	e13ffb15 	stw	r4,-20(fp)
   803f0:	e17ffc15 	stw	r5,-16(fp)
   803f4:	3007883a 	mov	r3,r6
   803f8:	3805883a 	mov	r2,r7
   803fc:	e1000317 	ldw	r4,12(fp)
   80400:	e0fffd05 	stb	r3,-12(fp)
   80404:	e0bffe05 	stb	r2,-8(fp)
   80408:	e13fff0d 	sth	r4,-4(fp)
    int i;
    bool bSuccess = TRUE;
   8040c:	00800044 	movi	r2,1
   80410:	e0bffa15 	stw	r2,-24(fp)
    
   
    // device id
    //DeviceAddr = HMB_E2_I2C_ID;

    i2c_start(clk_base, data_base);
   80414:	e13ffb17 	ldw	r4,-20(fp)
   80418:	e17ffc17 	ldw	r5,-16(fp)
   8041c:	00805340 	call	80534 <i2c_start>
    if (!i2c_write(clk_base, data_base, DeviceAddr)){  // send ID
   80420:	e0bffd03 	ldbu	r2,-12(fp)
   80424:	10803fcc 	andi	r2,r2,255
   80428:	e13ffb17 	ldw	r4,-20(fp)
   8042c:	e17ffc17 	ldw	r5,-16(fp)
   80430:	100d883a 	mov	r6,r2
   80434:	00806280 	call	80628 <i2c_write>
   80438:	1000011e 	bne	r2,zero,80440 <I2C_MultipleRead+0x64>
        bSuccess = FALSE;
   8043c:	e03ffa15 	stw	zero,-24(fp)
        I2C_DEBUG(("I2C HMB_E2 Fail: Address NACK!\n"));
    }
    if (bSuccess && !i2c_write(clk_base, data_base, ControlAddr)){ // send sub-address
   80440:	e0bffa17 	ldw	r2,-24(fp)
   80444:	10000726 	beq	r2,zero,80464 <I2C_MultipleRead+0x88>
   80448:	e0bffe03 	ldbu	r2,-8(fp)
   8044c:	e13ffb17 	ldw	r4,-20(fp)
   80450:	e17ffc17 	ldw	r5,-16(fp)
   80454:	100d883a 	mov	r6,r2
   80458:	00806280 	call	80628 <i2c_write>
   8045c:	1000011e 	bne	r2,zero,80464 <I2C_MultipleRead+0x88>
        bSuccess = FALSE;
   80460:	e03ffa15 	stw	zero,-24(fp)
        I2C_DEBUG(("I2C HMB_E2 Fail: SubAddress NACK!\n"));
    }    
    if (bSuccess)        
   80464:	e0bffa17 	ldw	r2,-24(fp)
   80468:	10000326 	beq	r2,zero,80478 <I2C_MultipleRead+0x9c>
        i2c_start(clk_base, data_base);  // restart
   8046c:	e13ffb17 	ldw	r4,-20(fp)
   80470:	e17ffc17 	ldw	r5,-16(fp)
   80474:	00805340 	call	80534 <i2c_start>
    DeviceAddr |= 1; // Read
   80478:	e0bffd03 	ldbu	r2,-12(fp)
   8047c:	10800054 	ori	r2,r2,1
   80480:	e0bffd05 	stb	r2,-12(fp)
    if (bSuccess && !i2c_write(clk_base, data_base, DeviceAddr)){  // send id
   80484:	e0bffa17 	ldw	r2,-24(fp)
   80488:	10000826 	beq	r2,zero,804ac <I2C_MultipleRead+0xd0>
   8048c:	e0bffd03 	ldbu	r2,-12(fp)
   80490:	10803fcc 	andi	r2,r2,255
   80494:	e13ffb17 	ldw	r4,-20(fp)
   80498:	e17ffc17 	ldw	r5,-16(fp)
   8049c:	100d883a 	mov	r6,r2
   804a0:	00806280 	call	80628 <i2c_write>
   804a4:	1000011e 	bne	r2,zero,804ac <I2C_MultipleRead+0xd0>
        bSuccess = FALSE;
   804a8:	e03ffa15 	stw	zero,-24(fp)
        I2C_DEBUG(("I2C HMB_E2 Fail: Address+1 NACK!\n"));
    }
    
    if (bSuccess){
   804ac:	e0bffa17 	ldw	r2,-24(fp)
   804b0:	10001726 	beq	r2,zero,80510 <I2C_MultipleRead+0x134>
        for(i=0;i<len && bSuccess;i++){
   804b4:	e03ff915 	stw	zero,-28(fp)
   804b8:	00001006 	br	804fc <I2C_MultipleRead+0x120>
            i2c_read(clk_base, data_base, &szData[i], (i==(len-1))?FALSE:TRUE);  // read
   804bc:	e0bff917 	ldw	r2,-28(fp)
   804c0:	e0c00217 	ldw	r3,8(fp)
   804c4:	1887883a 	add	r3,r3,r2
   804c8:	e0bfff0b 	ldhu	r2,-4(fp)
   804cc:	113fffc4 	addi	r4,r2,-1
   804d0:	e0bff917 	ldw	r2,-28(fp)
   804d4:	2084c03a 	cmpne	r2,r4,r2
   804d8:	10803fcc 	andi	r2,r2,255
   804dc:	e13ffb17 	ldw	r4,-20(fp)
   804e0:	e17ffc17 	ldw	r5,-16(fp)
   804e4:	180d883a 	mov	r6,r3
   804e8:	100f883a 	mov	r7,r2
   804ec:	00807540 	call	80754 <i2c_read>
        bSuccess = FALSE;
        I2C_DEBUG(("I2C HMB_E2 Fail: Address+1 NACK!\n"));
    }
    
    if (bSuccess){
        for(i=0;i<len && bSuccess;i++){
   804f0:	e0bff917 	ldw	r2,-28(fp)
   804f4:	10800044 	addi	r2,r2,1
   804f8:	e0bff915 	stw	r2,-28(fp)
   804fc:	e0bfff0b 	ldhu	r2,-4(fp)
   80500:	e0fff917 	ldw	r3,-28(fp)
   80504:	1880020e 	bge	r3,r2,80510 <I2C_MultipleRead+0x134>
   80508:	e0bffa17 	ldw	r2,-24(fp)
   8050c:	103feb1e 	bne	r2,zero,804bc <I2C_MultipleRead+0xe0>
            i2c_read(clk_base, data_base, &szData[i], (i==(len-1))?FALSE:TRUE);  // read
        }            
    }        
    i2c_stop(clk_base, data_base);
   80510:	e13ffb17 	ldw	r4,-20(fp)
   80514:	e17ffc17 	ldw	r5,-16(fp)
   80518:	00805b80 	call	805b8 <i2c_stop>
    
    return bSuccess;    
   8051c:	e0bffa17 	ldw	r2,-24(fp)
    
}
   80520:	e037883a 	mov	sp,fp
   80524:	dfc00117 	ldw	ra,4(sp)
   80528:	df000017 	ldw	fp,0(sp)
   8052c:	dec00204 	addi	sp,sp,8
   80530:	f800283a 	ret

00080534 <i2c_start>:
///////////// Interncal function (i2cXXX) body //////////////////////////////////////////////
/////////////////////////////////////////////////////////////////////////////////////////////


//SDA 1->0 while SCL=1
void i2c_start(alt_u32 clk_base, alt_u32 data_base){
   80534:	defffc04 	addi	sp,sp,-16
   80538:	dfc00315 	stw	ra,12(sp)
   8053c:	df000215 	stw	fp,8(sp)
   80540:	df000204 	addi	fp,sp,8
   80544:	e13ffe15 	stw	r4,-8(fp)
   80548:	e17fff15 	stw	r5,-4(fp)
    
    // make sure it is in normal state
    SDA_DIR_OUT(data_base);  // data output enabled
   8054c:	e0bfff17 	ldw	r2,-4(fp)
   80550:	10800104 	addi	r2,r2,4
   80554:	00c00044 	movi	r3,1
   80558:	10c00035 	stwio	r3,0(r2)
    
    
    
    // start condition
    SDA_HIGH(data_base); // data high
   8055c:	e0bfff17 	ldw	r2,-4(fp)
   80560:	00c00044 	movi	r3,1
   80564:	10c00035 	stwio	r3,0(r2)
    SCL_HIGH(clk_base);
   80568:	e0bffe17 	ldw	r2,-8(fp)
   8056c:	00c00044 	movi	r3,1
   80570:	10c00035 	stwio	r3,0(r2)
    SCL_DELAY;
   80574:	01000044 	movi	r4,1
   80578:	008b8000 	call	8b800 <usleep>
     
    SDA_LOW(data_base); // data low
   8057c:	e0bfff17 	ldw	r2,-4(fp)
   80580:	0007883a 	mov	r3,zero
   80584:	10c00035 	stwio	r3,0(r2)
    SCL_DELAY; 
   80588:	01000044 	movi	r4,1
   8058c:	008b8000 	call	8b800 <usleep>
    SCL_LOW(clk_base); // clock low
   80590:	e0bffe17 	ldw	r2,-8(fp)
   80594:	0007883a 	mov	r3,zero
   80598:	10c00035 	stwio	r3,0(r2)
    SCL_DELAY;
   8059c:	01000044 	movi	r4,1
   805a0:	008b8000 	call	8b800 <usleep>
}
   805a4:	e037883a 	mov	sp,fp
   805a8:	dfc00117 	ldw	ra,4(sp)
   805ac:	df000017 	ldw	fp,0(sp)
   805b0:	dec00204 	addi	sp,sp,8
   805b4:	f800283a 	ret

000805b8 <i2c_stop>:

// SDA 0->1 while SCL=1
void i2c_stop(alt_u32 clk_base, alt_u32 data_base){
   805b8:	defffc04 	addi	sp,sp,-16
   805bc:	dfc00315 	stw	ra,12(sp)
   805c0:	df000215 	stw	fp,8(sp)
   805c4:	df000204 	addi	fp,sp,8
   805c8:	e13ffe15 	stw	r4,-8(fp)
   805cc:	e17fff15 	stw	r5,-4(fp)
    // assume SCL = 0
    
    SDA_DIR_OUT(data_base);  // data output enabled
   805d0:	e0bfff17 	ldw	r2,-4(fp)
   805d4:	10800104 	addi	r2,r2,4
   805d8:	00c00044 	movi	r3,1
   805dc:	10c00035 	stwio	r3,0(r2)
    SDA_LOW(data_base); // Data Low
   805e0:	e0bfff17 	ldw	r2,-4(fp)
   805e4:	0007883a 	mov	r3,zero
   805e8:	10c00035 	stwio	r3,0(r2)
    //SCL_DELAY; 
    SCL_HIGH(clk_base);  // clock high
   805ec:	e0bffe17 	ldw	r2,-8(fp)
   805f0:	00c00044 	movi	r3,1
   805f4:	10c00035 	stwio	r3,0(r2)
    SCL_DELAY; // clock high long delay
   805f8:	01000044 	movi	r4,1
   805fc:	008b8000 	call	8b800 <usleep>
    SDA_HIGH(data_base); // data high
   80600:	e0bfff17 	ldw	r2,-4(fp)
   80604:	00c00044 	movi	r3,1
   80608:	10c00035 	stwio	r3,0(r2)
    SCL_DELAY; // data high delay
   8060c:	01000044 	movi	r4,1
   80610:	008b8000 	call	8b800 <usleep>
    

    
}
   80614:	e037883a 	mov	sp,fp
   80618:	dfc00117 	ldw	ra,4(sp)
   8061c:	df000017 	ldw	fp,0(sp)
   80620:	dec00204 	addi	sp,sp,8
   80624:	f800283a 	ret

00080628 <i2c_write>:

bool i2c_write(alt_u32 clk_base, alt_u32 data_base, alt_u8 Data){ // return true if device response ack
   80628:	defff804 	addi	sp,sp,-32
   8062c:	dfc00715 	stw	ra,28(sp)
   80630:	df000615 	stw	fp,24(sp)
   80634:	df000604 	addi	fp,sp,24
   80638:	e13ffd15 	stw	r4,-12(fp)
   8063c:	e17ffe15 	stw	r5,-8(fp)
   80640:	3005883a 	mov	r2,r6
   80644:	e0bfff05 	stb	r2,-4(fp)
    alt_u8 Mask = 0x80;
   80648:	00bfe004 	movi	r2,-128
   8064c:	e0bffa05 	stb	r2,-24(fp)
    bool bAck;
    int i;
    
    // assume, SCL = 0
    
    SDA_DIR_OUT(data_base);  // data write mode
   80650:	e0bffe17 	ldw	r2,-8(fp)
   80654:	10800104 	addi	r2,r2,4
   80658:	00c00044 	movi	r3,1
   8065c:	10c00035 	stwio	r3,0(r2)
    
    for(i=0;i<8;i++){
   80660:	e03ffb15 	stw	zero,-20(fp)
   80664:	00001f06 	br	806e4 <i2c_write+0xbc>
        SCL_LOW(clk_base);  // new, make sure data change at clk low
   80668:	e0bffd17 	ldw	r2,-12(fp)
   8066c:	0007883a 	mov	r3,zero
   80670:	10c00035 	stwio	r3,0(r2)
        // output data on bus
        if (Data & Mask){ // there is a delay in this command
   80674:	e0ffff03 	ldbu	r3,-4(fp)
   80678:	e0bffa03 	ldbu	r2,-24(fp)
   8067c:	1884703a 	and	r2,r3,r2
   80680:	10803fcc 	andi	r2,r2,255
   80684:	10000426 	beq	r2,zero,80698 <i2c_write+0x70>
            SDA_HIGH(data_base);
   80688:	e0bffe17 	ldw	r2,-8(fp)
   8068c:	00c00044 	movi	r3,1
   80690:	10c00035 	stwio	r3,0(r2)
   80694:	00000306 	br	806a4 <i2c_write+0x7c>
        }else{    
            SDA_LOW(data_base);
   80698:	e0bffe17 	ldw	r2,-8(fp)
   8069c:	0007883a 	mov	r3,zero
   806a0:	10c00035 	stwio	r3,0(r2)
        }
        Mask >>= 1; // there is a delay in this command
   806a4:	e0bffa03 	ldbu	r2,-24(fp)
   806a8:	1004d07a 	srli	r2,r2,1
   806ac:	e0bffa05 	stb	r2,-24(fp)
        // clock high
        SCL_HIGH(clk_base);
   806b0:	e0bffd17 	ldw	r2,-12(fp)
   806b4:	00c00044 	movi	r3,1
   806b8:	10c00035 	stwio	r3,0(r2)
        SCL_DELAY;
   806bc:	01000044 	movi	r4,1
   806c0:	008b8000 	call	8b800 <usleep>
        SCL_LOW(clk_base);
   806c4:	e0bffd17 	ldw	r2,-12(fp)
   806c8:	0007883a 	mov	r3,zero
   806cc:	10c00035 	stwio	r3,0(r2)
        SCL_DELAY;
   806d0:	01000044 	movi	r4,1
   806d4:	008b8000 	call	8b800 <usleep>
    
    // assume, SCL = 0
    
    SDA_DIR_OUT(data_base);  // data write mode
    
    for(i=0;i<8;i++){
   806d8:	e0bffb17 	ldw	r2,-20(fp)
   806dc:	10800044 	addi	r2,r2,1
   806e0:	e0bffb15 	stw	r2,-20(fp)
   806e4:	e0bffb17 	ldw	r2,-20(fp)
   806e8:	10800210 	cmplti	r2,r2,8
   806ec:	103fde1e 	bne	r2,zero,80668 <i2c_write+0x40>
        SCL_LOW(clk_base);
        SCL_DELAY;
    }
    
    //===== get ack
    SDA_DIR_IN(data_base);  // data read mode
   806f0:	e0bffe17 	ldw	r2,-8(fp)
   806f4:	10800104 	addi	r2,r2,4
   806f8:	0007883a 	mov	r3,zero
   806fc:	10c00035 	stwio	r3,0(r2)
    //SCL_DELAY;
    // clock high
    SCL_HIGH(clk_base);  // clock high
   80700:	e0bffd17 	ldw	r2,-12(fp)
   80704:	00c00044 	movi	r3,1
   80708:	10c00035 	stwio	r3,0(r2)
    SCL_DELAY;  // clock high delay
   8070c:	01000044 	movi	r4,1
   80710:	008b8000 	call	8b800 <usleep>
    bAck = SDA_READ(data_base)?FALSE:TRUE;  // get ack
   80714:	e0bffe17 	ldw	r2,-8(fp)
   80718:	10800037 	ldwio	r2,0(r2)
   8071c:	1005003a 	cmpeq	r2,r2,zero
   80720:	10803fcc 	andi	r2,r2,255
   80724:	e0bffc15 	stw	r2,-16(fp)
    //SCL_DELAY;
    //SDA_DIR_OUT;
    SCL_LOW(clk_base); // clock low         
   80728:	e0bffd17 	ldw	r2,-12(fp)
   8072c:	0007883a 	mov	r3,zero
   80730:	10c00035 	stwio	r3,0(r2)
    SCL_DELAY; // clock low delay
   80734:	01000044 	movi	r4,1
   80738:	008b8000 	call	8b800 <usleep>
    return bAck;
   8073c:	e0bffc17 	ldw	r2,-16(fp)
}    
   80740:	e037883a 	mov	sp,fp
   80744:	dfc00117 	ldw	ra,4(sp)
   80748:	df000017 	ldw	fp,0(sp)
   8074c:	dec00204 	addi	sp,sp,8
   80750:	f800283a 	ret

00080754 <i2c_read>:

void i2c_read(alt_u32 clk_base, alt_u32 data_base, alt_u8 *pData, bool bAck){ // return true if device response ack
   80754:	defff804 	addi	sp,sp,-32
   80758:	dfc00715 	stw	ra,28(sp)
   8075c:	df000615 	stw	fp,24(sp)
   80760:	df000604 	addi	fp,sp,24
   80764:	e13ffc15 	stw	r4,-16(fp)
   80768:	e17ffd15 	stw	r5,-12(fp)
   8076c:	e1bffe15 	stw	r6,-8(fp)
   80770:	e1ffff15 	stw	r7,-4(fp)
    alt_u8 Data=0;
   80774:	e03ffa05 	stb	zero,-24(fp)
    int i;
    
    // assume SCL = low
    
    SDA_DIR_IN(data_base);  // set data read mode
   80778:	e0bffd17 	ldw	r2,-12(fp)
   8077c:	10800104 	addi	r2,r2,4
   80780:	0007883a 	mov	r3,zero
   80784:	10c00035 	stwio	r3,0(r2)
    SCL_LOW(clk_base); // clock low
   80788:	e0bffc17 	ldw	r2,-16(fp)
   8078c:	0007883a 	mov	r3,zero
   80790:	10c00035 	stwio	r3,0(r2)
    SCL_DELAY; // clock low delay
   80794:	01000044 	movi	r4,1
   80798:	008b8000 	call	8b800 <usleep>

    for(i=0;i<8;i++){
   8079c:	e03ffb15 	stw	zero,-20(fp)
   807a0:	00001606 	br	807fc <i2c_read+0xa8>
        Data <<= 1;
   807a4:	e0bffa03 	ldbu	r2,-24(fp)
   807a8:	1085883a 	add	r2,r2,r2
   807ac:	e0bffa05 	stb	r2,-24(fp)
        SCL_HIGH(clk_base);  // clock high
   807b0:	e0bffc17 	ldw	r2,-16(fp)
   807b4:	00c00044 	movi	r3,1
   807b8:	10c00035 	stwio	r3,0(r2)
        SCL_DELAY;
   807bc:	01000044 	movi	r4,1
   807c0:	008b8000 	call	8b800 <usleep>
        if (SDA_READ(data_base))  // read data   
   807c4:	e0bffd17 	ldw	r2,-12(fp)
   807c8:	10800037 	ldwio	r2,0(r2)
   807cc:	10000326 	beq	r2,zero,807dc <i2c_read+0x88>
            Data |= 0x01;
   807d0:	e0bffa03 	ldbu	r2,-24(fp)
   807d4:	10800054 	ori	r2,r2,1
   807d8:	e0bffa05 	stb	r2,-24(fp)
        SCL_LOW(clk_base);  // clock log  
   807dc:	e0bffc17 	ldw	r2,-16(fp)
   807e0:	0007883a 	mov	r3,zero
   807e4:	10c00035 	stwio	r3,0(r2)
        SCL_DELAY;
   807e8:	01000044 	movi	r4,1
   807ec:	008b8000 	call	8b800 <usleep>
    
    SDA_DIR_IN(data_base);  // set data read mode
    SCL_LOW(clk_base); // clock low
    SCL_DELAY; // clock low delay

    for(i=0;i<8;i++){
   807f0:	e0bffb17 	ldw	r2,-20(fp)
   807f4:	10800044 	addi	r2,r2,1
   807f8:	e0bffb15 	stw	r2,-20(fp)
   807fc:	e0bffb17 	ldw	r2,-20(fp)
   80800:	10800210 	cmplti	r2,r2,8
   80804:	103fe71e 	bne	r2,zero,807a4 <i2c_read+0x50>
        SCL_LOW(clk_base);  // clock log  
        SCL_DELAY;
    }
    
    // send ACK
    SCL_LOW(clk_base);  // new, make sure data change at clk low
   80808:	e0bffc17 	ldw	r2,-16(fp)
   8080c:	0007883a 	mov	r3,zero
   80810:	10c00035 	stwio	r3,0(r2)
    SDA_DIR_OUT(data_base);  // set data write mode
   80814:	e0bffd17 	ldw	r2,-12(fp)
   80818:	10800104 	addi	r2,r2,4
   8081c:	00c00044 	movi	r3,1
   80820:	10c00035 	stwio	r3,0(r2)
    if (bAck)
   80824:	e0bfff17 	ldw	r2,-4(fp)
   80828:	10000426 	beq	r2,zero,8083c <i2c_read+0xe8>
        SDA_LOW(data_base);
   8082c:	e0bffd17 	ldw	r2,-12(fp)
   80830:	0007883a 	mov	r3,zero
   80834:	10c00035 	stwio	r3,0(r2)
   80838:	00000306 	br	80848 <i2c_read+0xf4>
    else
        SDA_HIGH(data_base);
   8083c:	e0bffd17 	ldw	r2,-12(fp)
   80840:	00c00044 	movi	r3,1
   80844:	10c00035 	stwio	r3,0(r2)
    SCL_HIGH(clk_base); // clock high
   80848:	e0bffc17 	ldw	r2,-16(fp)
   8084c:	00c00044 	movi	r3,1
   80850:	10c00035 	stwio	r3,0(r2)
    SCL_DELAY; // clock high  delay
   80854:	01000044 	movi	r4,1
   80858:	008b8000 	call	8b800 <usleep>
    SCL_LOW(clk_base); // clock low
   8085c:	e0bffc17 	ldw	r2,-16(fp)
   80860:	0007883a 	mov	r3,zero
   80864:	10c00035 	stwio	r3,0(r2)
    SCL_DELAY; // clock low delay
   80868:	01000044 	movi	r4,1
   8086c:	008b8000 	call	8b800 <usleep>
    SDA_LOW(data_base);  // data low
   80870:	e0bffd17 	ldw	r2,-12(fp)
   80874:	0007883a 	mov	r3,zero
   80878:	10c00035 	stwio	r3,0(r2)
    SCL_DELAY; // data low delay
   8087c:	01000044 	movi	r4,1
   80880:	008b8000 	call	8b800 <usleep>
//    SDA_DIR_IN;  // set data read mode
    
    *pData = Data;
   80884:	e0bffe17 	ldw	r2,-8(fp)
   80888:	e0fffa03 	ldbu	r3,-24(fp)
   8088c:	10c00005 	stb	r3,0(r2)
}
   80890:	e037883a 	mov	sp,fp
   80894:	dfc00117 	ldw	ra,4(sp)
   80898:	df000017 	ldw	fp,0(sp)
   8089c:	dec00204 	addi	sp,sp,8
   808a0:	f800283a 	ret

000808a4 <I2CL_Write>:

////////////////////////////////////////////////////////////////
////////////////////////////////////////////////////////////////
////////////////////////////////////////////////////////////////
// size > 2Kbits
bool I2CL_Write(alt_u32 clk_base, alt_u32 data_base, alt_8 DeviceAddr, alt_u16 ControlAddr, alt_u8 ControlData){
   808a4:	defff704 	addi	sp,sp,-36
   808a8:	dfc00815 	stw	ra,32(sp)
   808ac:	df000715 	stw	fp,28(sp)
   808b0:	df000704 	addi	fp,sp,28
   808b4:	e13ffb15 	stw	r4,-20(fp)
   808b8:	e17ffc15 	stw	r5,-16(fp)
   808bc:	3007883a 	mov	r3,r6
   808c0:	3805883a 	mov	r2,r7
   808c4:	e1000217 	ldw	r4,8(fp)
   808c8:	e0fffd05 	stb	r3,-12(fp)
   808cc:	e0bffe0d 	sth	r2,-8(fp)
   808d0:	e13fff05 	stb	r4,-4(fp)
    bool bSuccess = TRUE;
   808d4:	00800044 	movi	r2,1
   808d8:	e0bff915 	stw	r2,-28(fp)
    alt_u8 AddrHigh, AddrLow;
    
    AddrHigh = (ControlAddr >> 8) & 0xFF; 
   808dc:	e0bffe0b 	ldhu	r2,-8(fp)
   808e0:	1004d23a 	srli	r2,r2,8
   808e4:	e0bffa05 	stb	r2,-24(fp)
    AddrLow  = ControlAddr & 0xFF; 
   808e8:	e0bffe0b 	ldhu	r2,-8(fp)
   808ec:	e0bffa45 	stb	r2,-23(fp)
    
    // device id
    //DeviceAddr = HMB_E2_I2C_ID;

    i2c_start(clk_base, data_base);
   808f0:	e13ffb17 	ldw	r4,-20(fp)
   808f4:	e17ffc17 	ldw	r5,-16(fp)
   808f8:	00805340 	call	80534 <i2c_start>
    if (!i2c_write(clk_base, data_base, DeviceAddr)){  // send ID
   808fc:	e0bffd03 	ldbu	r2,-12(fp)
   80900:	10803fcc 	andi	r2,r2,255
   80904:	e13ffb17 	ldw	r4,-20(fp)
   80908:	e17ffc17 	ldw	r5,-16(fp)
   8090c:	100d883a 	mov	r6,r2
   80910:	00806280 	call	80628 <i2c_write>
   80914:	1000011e 	bne	r2,zero,8091c <I2CL_Write+0x78>
        bSuccess = FALSE;
   80918:	e03ff915 	stw	zero,-28(fp)
        I2C_DEBUG(("I2C HMB_E2 Fail: Address NACK!\n"));
    }
    if (bSuccess && !i2c_write(clk_base, data_base, AddrHigh)){ // send sub-address
   8091c:	e0bff917 	ldw	r2,-28(fp)
   80920:	10000726 	beq	r2,zero,80940 <I2CL_Write+0x9c>
   80924:	e0bffa03 	ldbu	r2,-24(fp)
   80928:	e13ffb17 	ldw	r4,-20(fp)
   8092c:	e17ffc17 	ldw	r5,-16(fp)
   80930:	100d883a 	mov	r6,r2
   80934:	00806280 	call	80628 <i2c_write>
   80938:	1000011e 	bne	r2,zero,80940 <I2CL_Write+0x9c>
        bSuccess = FALSE;
   8093c:	e03ff915 	stw	zero,-28(fp)
        I2C_DEBUG(("I2C HMB_E2 Fail: SubAddress-high NACK!\n"));
    }            
    if (bSuccess && !i2c_write(clk_base, data_base, AddrLow)){ // send sub-address
   80940:	e0bff917 	ldw	r2,-28(fp)
   80944:	10000726 	beq	r2,zero,80964 <I2CL_Write+0xc0>
   80948:	e0bffa43 	ldbu	r2,-23(fp)
   8094c:	e13ffb17 	ldw	r4,-20(fp)
   80950:	e17ffc17 	ldw	r5,-16(fp)
   80954:	100d883a 	mov	r6,r2
   80958:	00806280 	call	80628 <i2c_write>
   8095c:	1000011e 	bne	r2,zero,80964 <I2CL_Write+0xc0>
        bSuccess = FALSE;
   80960:	e03ff915 	stw	zero,-28(fp)
        I2C_DEBUG(("I2C HMB_E2 Fail: SubAddress-low NACK!\n"));
    }            
    if (bSuccess && !i2c_write(clk_base, data_base, ControlData)){  
   80964:	e0bff917 	ldw	r2,-28(fp)
   80968:	10000726 	beq	r2,zero,80988 <I2CL_Write+0xe4>
   8096c:	e0bfff03 	ldbu	r2,-4(fp)
   80970:	e13ffb17 	ldw	r4,-20(fp)
   80974:	e17ffc17 	ldw	r5,-16(fp)
   80978:	100d883a 	mov	r6,r2
   8097c:	00806280 	call	80628 <i2c_write>
   80980:	1000011e 	bne	r2,zero,80988 <I2CL_Write+0xe4>
        bSuccess = FALSE;
   80984:	e03ff915 	stw	zero,-28(fp)
        I2C_DEBUG(("I2C HMB_E2 Fail: write NACK!\n"));
    }
    i2c_stop(clk_base, data_base);
   80988:	e13ffb17 	ldw	r4,-20(fp)
   8098c:	e17ffc17 	ldw	r5,-16(fp)
   80990:	00805b80 	call	805b8 <i2c_stop>
    
    usleep(7*1000); // delay to wait EE2 ready (at least 5 ms delay is required)
   80994:	0106d604 	movi	r4,7000
   80998:	008b8000 	call	8b800 <usleep>
    
    return bSuccess;
   8099c:	e0bff917 	ldw	r2,-28(fp)
    
}
   809a0:	e037883a 	mov	sp,fp
   809a4:	dfc00117 	ldw	ra,4(sp)
   809a8:	df000017 	ldw	fp,0(sp)
   809ac:	dec00204 	addi	sp,sp,8
   809b0:	f800283a 	ret

000809b4 <I2CL_Read>:

bool I2CL_Read(alt_u32 clk_base, alt_u32 data_base, alt_8 DeviceAddr, alt_u16 ControlAddr, alt_u8 *pControlData){
   809b4:	defff804 	addi	sp,sp,-32
   809b8:	dfc00715 	stw	ra,28(sp)
   809bc:	df000615 	stw	fp,24(sp)
   809c0:	df000604 	addi	fp,sp,24
   809c4:	e13ffc15 	stw	r4,-16(fp)
   809c8:	e17ffd15 	stw	r5,-12(fp)
   809cc:	3007883a 	mov	r3,r6
   809d0:	3805883a 	mov	r2,r7
   809d4:	e0fffe05 	stb	r3,-8(fp)
   809d8:	e0bfff0d 	sth	r2,-4(fp)
    bool bSuccess = TRUE;
   809dc:	00800044 	movi	r2,1
   809e0:	e0bffa15 	stw	r2,-24(fp)
    alt_u8 AddrHigh, AddrLow;
    
    AddrHigh = (ControlAddr >> 8) & 0xFF; 
   809e4:	e0bfff0b 	ldhu	r2,-4(fp)
   809e8:	1004d23a 	srli	r2,r2,8
   809ec:	e0bffb05 	stb	r2,-20(fp)
    AddrLow  = ControlAddr & 0xFF; 
   809f0:	e0bfff0b 	ldhu	r2,-4(fp)
   809f4:	e0bffb45 	stb	r2,-19(fp)

    i2c_start(clk_base, data_base);
   809f8:	e13ffc17 	ldw	r4,-16(fp)
   809fc:	e17ffd17 	ldw	r5,-12(fp)
   80a00:	00805340 	call	80534 <i2c_start>
    if (!i2c_write(clk_base, data_base, DeviceAddr)){  // send ID
   80a04:	e0bffe03 	ldbu	r2,-8(fp)
   80a08:	10803fcc 	andi	r2,r2,255
   80a0c:	e13ffc17 	ldw	r4,-16(fp)
   80a10:	e17ffd17 	ldw	r5,-12(fp)
   80a14:	100d883a 	mov	r6,r2
   80a18:	00806280 	call	80628 <i2c_write>
   80a1c:	1000011e 	bne	r2,zero,80a24 <I2CL_Read+0x70>
        bSuccess = FALSE;
   80a20:	e03ffa15 	stw	zero,-24(fp)
        I2C_DEBUG(("I2C HMB_E2 Fail: Address NACK!\n"));
    }
    if (bSuccess && !i2c_write(clk_base, data_base, AddrHigh)){ // send sub-address
   80a24:	e0bffa17 	ldw	r2,-24(fp)
   80a28:	10000726 	beq	r2,zero,80a48 <I2CL_Read+0x94>
   80a2c:	e0bffb03 	ldbu	r2,-20(fp)
   80a30:	e13ffc17 	ldw	r4,-16(fp)
   80a34:	e17ffd17 	ldw	r5,-12(fp)
   80a38:	100d883a 	mov	r6,r2
   80a3c:	00806280 	call	80628 <i2c_write>
   80a40:	1000011e 	bne	r2,zero,80a48 <I2CL_Read+0x94>
        bSuccess = FALSE;
   80a44:	e03ffa15 	stw	zero,-24(fp)
        I2C_DEBUG(("I2C HMB_E2 Fail: SubAddress-high NACK!\n"));
    }            
    if (bSuccess && !i2c_write(clk_base, data_base, AddrLow)){ // send sub-address
   80a48:	e0bffa17 	ldw	r2,-24(fp)
   80a4c:	10000726 	beq	r2,zero,80a6c <I2CL_Read+0xb8>
   80a50:	e0bffb43 	ldbu	r2,-19(fp)
   80a54:	e13ffc17 	ldw	r4,-16(fp)
   80a58:	e17ffd17 	ldw	r5,-12(fp)
   80a5c:	100d883a 	mov	r6,r2
   80a60:	00806280 	call	80628 <i2c_write>
   80a64:	1000011e 	bne	r2,zero,80a6c <I2CL_Read+0xb8>
        bSuccess = FALSE;
   80a68:	e03ffa15 	stw	zero,-24(fp)
        I2C_DEBUG(("I2C HMB_E2 Fail: SubAddress-low NACK!\n"));
    }            
    i2c_start(clk_base, data_base);  // restart
   80a6c:	e13ffc17 	ldw	r4,-16(fp)
   80a70:	e17ffd17 	ldw	r5,-12(fp)
   80a74:	00805340 	call	80534 <i2c_start>
    DeviceAddr |= 1; // Read
   80a78:	e0bffe03 	ldbu	r2,-8(fp)
   80a7c:	10800054 	ori	r2,r2,1
   80a80:	e0bffe05 	stb	r2,-8(fp)
    if (bSuccess && !i2c_write(clk_base, data_base, DeviceAddr)){  // send id
   80a84:	e0bffa17 	ldw	r2,-24(fp)
   80a88:	10000826 	beq	r2,zero,80aac <I2CL_Read+0xf8>
   80a8c:	e0bffe03 	ldbu	r2,-8(fp)
   80a90:	10803fcc 	andi	r2,r2,255
   80a94:	e13ffc17 	ldw	r4,-16(fp)
   80a98:	e17ffd17 	ldw	r5,-12(fp)
   80a9c:	100d883a 	mov	r6,r2
   80aa0:	00806280 	call	80628 <i2c_write>
   80aa4:	1000011e 	bne	r2,zero,80aac <I2CL_Read+0xf8>
        bSuccess = FALSE;
   80aa8:	e03ffa15 	stw	zero,-24(fp)
        I2C_DEBUG(("I2C HMB_E2 Fail: Address+1 NACK!\n"));
    }
    
    if (bSuccess){
   80aac:	e0bffa17 	ldw	r2,-24(fp)
   80ab0:	10000526 	beq	r2,zero,80ac8 <I2CL_Read+0x114>
        i2c_read(clk_base, data_base, pControlData, FALSE);  // read
   80ab4:	e13ffc17 	ldw	r4,-16(fp)
   80ab8:	e17ffd17 	ldw	r5,-12(fp)
   80abc:	e1800217 	ldw	r6,8(fp)
   80ac0:	000f883a 	mov	r7,zero
   80ac4:	00807540 	call	80754 <i2c_read>
    }        
    i2c_stop(clk_base, data_base);
   80ac8:	e13ffc17 	ldw	r4,-16(fp)
   80acc:	e17ffd17 	ldw	r5,-12(fp)
   80ad0:	00805b80 	call	805b8 <i2c_stop>
    
    return bSuccess;    
   80ad4:	e0bffa17 	ldw	r2,-24(fp)
}
   80ad8:	e037883a 	mov	sp,fp
   80adc:	dfc00117 	ldw	ra,4(sp)
   80ae0:	df000017 	ldw	fp,0(sp)
   80ae4:	dec00204 	addi	sp,sp,8
   80ae8:	f800283a 	ret

00080aec <I2CL_MultipleRead>:

// read from address 0
bool I2CL_MultipleRead(alt_u32 clk_base, alt_u32 data_base, alt_8 DeviceAddr, alt_u8 szData[], alt_u16 len){
   80aec:	defff604 	addi	sp,sp,-40
   80af0:	dfc00915 	stw	ra,36(sp)
   80af4:	df000815 	stw	fp,32(sp)
   80af8:	df000804 	addi	fp,sp,32
   80afc:	e13ffb15 	stw	r4,-20(fp)
   80b00:	e17ffc15 	stw	r5,-16(fp)
   80b04:	3005883a 	mov	r2,r6
   80b08:	e1fffe15 	stw	r7,-8(fp)
   80b0c:	e0c00217 	ldw	r3,8(fp)
   80b10:	e0bffd05 	stb	r2,-12(fp)
   80b14:	e0ffff0d 	sth	r3,-4(fp)
    int i;
    bool bSuccess = TRUE;
   80b18:	00800044 	movi	r2,1
   80b1c:	e0bff915 	stw	r2,-28(fp)
    alt_u8 ControlAddr = 0;
   80b20:	e03ffa05 	stb	zero,-24(fp)
    alt_u8 AddrHigh, AddrLow;
    
    AddrHigh = (ControlAddr >> 8) & 0xFF; 
   80b24:	e03ffa45 	stb	zero,-23(fp)
    AddrLow  = ControlAddr & 0xFF;     
   80b28:	e0bffa03 	ldbu	r2,-24(fp)
   80b2c:	e0bffa85 	stb	r2,-22(fp)
    
   
    // device id
    //DeviceAddr = HMB_E2_I2C_ID;

    i2c_start(clk_base, data_base);
   80b30:	e13ffb17 	ldw	r4,-20(fp)
   80b34:	e17ffc17 	ldw	r5,-16(fp)
   80b38:	00805340 	call	80534 <i2c_start>
    if (!i2c_write(clk_base, data_base, DeviceAddr)){  // send ID
   80b3c:	e0bffd03 	ldbu	r2,-12(fp)
   80b40:	10803fcc 	andi	r2,r2,255
   80b44:	e13ffb17 	ldw	r4,-20(fp)
   80b48:	e17ffc17 	ldw	r5,-16(fp)
   80b4c:	100d883a 	mov	r6,r2
   80b50:	00806280 	call	80628 <i2c_write>
   80b54:	1000011e 	bne	r2,zero,80b5c <I2CL_MultipleRead+0x70>
        bSuccess = FALSE;
   80b58:	e03ff915 	stw	zero,-28(fp)
        I2C_DEBUG(("I2C HMB_E2 Fail: Address NACK!\n"));
    }
    if (bSuccess && !i2c_write(clk_base, data_base, AddrHigh)){ // send sub-address
   80b5c:	e0bff917 	ldw	r2,-28(fp)
   80b60:	10000726 	beq	r2,zero,80b80 <I2CL_MultipleRead+0x94>
   80b64:	e0bffa43 	ldbu	r2,-23(fp)
   80b68:	e13ffb17 	ldw	r4,-20(fp)
   80b6c:	e17ffc17 	ldw	r5,-16(fp)
   80b70:	100d883a 	mov	r6,r2
   80b74:	00806280 	call	80628 <i2c_write>
   80b78:	1000011e 	bne	r2,zero,80b80 <I2CL_MultipleRead+0x94>
        bSuccess = FALSE;
   80b7c:	e03ff915 	stw	zero,-28(fp)
        I2C_DEBUG(("I2C HMB_E2 Fail: SubAddress-high NACK!\n"));
    }    
    if (bSuccess && !i2c_write(clk_base, data_base, AddrLow)){ // send sub-address
   80b80:	e0bff917 	ldw	r2,-28(fp)
   80b84:	10000726 	beq	r2,zero,80ba4 <I2CL_MultipleRead+0xb8>
   80b88:	e0bffa83 	ldbu	r2,-22(fp)
   80b8c:	e13ffb17 	ldw	r4,-20(fp)
   80b90:	e17ffc17 	ldw	r5,-16(fp)
   80b94:	100d883a 	mov	r6,r2
   80b98:	00806280 	call	80628 <i2c_write>
   80b9c:	1000011e 	bne	r2,zero,80ba4 <I2CL_MultipleRead+0xb8>
        bSuccess = FALSE;
   80ba0:	e03ff915 	stw	zero,-28(fp)
        I2C_DEBUG(("I2C HMB_E2 Fail: SubAddress-low NACK!\n"));
    }    
    if (bSuccess)        
   80ba4:	e0bff917 	ldw	r2,-28(fp)
   80ba8:	10000326 	beq	r2,zero,80bb8 <I2CL_MultipleRead+0xcc>
        i2c_start(clk_base, data_base);  // restart
   80bac:	e13ffb17 	ldw	r4,-20(fp)
   80bb0:	e17ffc17 	ldw	r5,-16(fp)
   80bb4:	00805340 	call	80534 <i2c_start>
    DeviceAddr |= 1; // Read
   80bb8:	e0bffd03 	ldbu	r2,-12(fp)
   80bbc:	10800054 	ori	r2,r2,1
   80bc0:	e0bffd05 	stb	r2,-12(fp)
    if (bSuccess && !i2c_write(clk_base, data_base, DeviceAddr)){  // send id
   80bc4:	e0bff917 	ldw	r2,-28(fp)
   80bc8:	10000826 	beq	r2,zero,80bec <I2CL_MultipleRead+0x100>
   80bcc:	e0bffd03 	ldbu	r2,-12(fp)
   80bd0:	10803fcc 	andi	r2,r2,255
   80bd4:	e13ffb17 	ldw	r4,-20(fp)
   80bd8:	e17ffc17 	ldw	r5,-16(fp)
   80bdc:	100d883a 	mov	r6,r2
   80be0:	00806280 	call	80628 <i2c_write>
   80be4:	1000011e 	bne	r2,zero,80bec <I2CL_MultipleRead+0x100>
        bSuccess = FALSE;
   80be8:	e03ff915 	stw	zero,-28(fp)
        I2C_DEBUG(("I2C HMB_E2 Fail: Address+1 NACK!\n"));
    }
    
    if (bSuccess){
   80bec:	e0bff917 	ldw	r2,-28(fp)
   80bf0:	10001726 	beq	r2,zero,80c50 <I2CL_MultipleRead+0x164>
        for(i=0;i<len && bSuccess;i++){
   80bf4:	e03ff815 	stw	zero,-32(fp)
   80bf8:	00001006 	br	80c3c <I2CL_MultipleRead+0x150>
            i2c_read(clk_base, data_base, &szData[i], (i==(len-1))?FALSE:TRUE);  // read
   80bfc:	e0bff817 	ldw	r2,-32(fp)
   80c00:	e0fffe17 	ldw	r3,-8(fp)
   80c04:	1887883a 	add	r3,r3,r2
   80c08:	e0bfff0b 	ldhu	r2,-4(fp)
   80c0c:	113fffc4 	addi	r4,r2,-1
   80c10:	e0bff817 	ldw	r2,-32(fp)
   80c14:	2084c03a 	cmpne	r2,r4,r2
   80c18:	10803fcc 	andi	r2,r2,255
   80c1c:	e13ffb17 	ldw	r4,-20(fp)
   80c20:	e17ffc17 	ldw	r5,-16(fp)
   80c24:	180d883a 	mov	r6,r3
   80c28:	100f883a 	mov	r7,r2
   80c2c:	00807540 	call	80754 <i2c_read>
        bSuccess = FALSE;
        I2C_DEBUG(("I2C HMB_E2 Fail: Address+1 NACK!\n"));
    }
    
    if (bSuccess){
        for(i=0;i<len && bSuccess;i++){
   80c30:	e0bff817 	ldw	r2,-32(fp)
   80c34:	10800044 	addi	r2,r2,1
   80c38:	e0bff815 	stw	r2,-32(fp)
   80c3c:	e0bfff0b 	ldhu	r2,-4(fp)
   80c40:	e0fff817 	ldw	r3,-32(fp)
   80c44:	1880020e 	bge	r3,r2,80c50 <I2CL_MultipleRead+0x164>
   80c48:	e0bff917 	ldw	r2,-28(fp)
   80c4c:	103feb1e 	bne	r2,zero,80bfc <I2CL_MultipleRead+0x110>
            i2c_read(clk_base, data_base, &szData[i], (i==(len-1))?FALSE:TRUE);  // read
        }            
    }        
    i2c_stop(clk_base, data_base);
   80c50:	e13ffb17 	ldw	r4,-20(fp)
   80c54:	e17ffc17 	ldw	r5,-16(fp)
   80c58:	00805b80 	call	805b8 <i2c_stop>
    
    return bSuccess;    
   80c5c:	e0bff917 	ldw	r2,-28(fp)
    
} 
   80c60:	e037883a 	mov	sp,fp
   80c64:	dfc00117 	ldw	ra,4(sp)
   80c68:	df000017 	ldw	fp,0(sp)
   80c6c:	dec00204 	addi	sp,sp,8
   80c70:	f800283a 	ret

00080c74 <I2C_AUDIO_Write>:



// Note. The interface of Audio chip is not fully I2C
// the control addd contain one data bits.
bool I2C_AUDIO_Write(alt_u32 clk_base, alt_u32 data_base, alt_u8 DeviceAddr, alt_u8 ControlAddr, alt_u8 ControlData){
   80c74:	defff804 	addi	sp,sp,-32
   80c78:	dfc00715 	stw	ra,28(sp)
   80c7c:	df000615 	stw	fp,24(sp)
   80c80:	df000604 	addi	fp,sp,24
   80c84:	e13ffb15 	stw	r4,-20(fp)
   80c88:	e17ffc15 	stw	r5,-16(fp)
   80c8c:	3007883a 	mov	r3,r6
   80c90:	3805883a 	mov	r2,r7
   80c94:	e1000217 	ldw	r4,8(fp)
   80c98:	e0fffd05 	stb	r3,-12(fp)
   80c9c:	e0bffe05 	stb	r2,-8(fp)
   80ca0:	e13fff05 	stb	r4,-4(fp)
    bool bSuccess = TRUE;
   80ca4:	00800044 	movi	r2,1
   80ca8:	e0bffa15 	stw	r2,-24(fp)
    //alt_u8 DeviceAddr;
    
    // device id
    //DeviceAddr = I2C_AUDIO_ADDR;
   // WM8731/L is a write only device
    i2c_start(clk_base, data_base);
   80cac:	e13ffb17 	ldw	r4,-20(fp)
   80cb0:	e17ffc17 	ldw	r5,-16(fp)
   80cb4:	00805340 	call	80534 <i2c_start>
    if (!i2c_write(clk_base, data_base, DeviceAddr)){  // send ID
   80cb8:	e0bffd03 	ldbu	r2,-12(fp)
   80cbc:	e13ffb17 	ldw	r4,-20(fp)
   80cc0:	e17ffc17 	ldw	r5,-16(fp)
   80cc4:	100d883a 	mov	r6,r2
   80cc8:	00806280 	call	80628 <i2c_write>
   80ccc:	1000011e 	bne	r2,zero,80cd4 <I2C_AUDIO_Write+0x60>
        bSuccess = FALSE;
   80cd0:	e03ffa15 	stw	zero,-24(fp)
        I2C_DEBUG(("I2C AUDIO Fail: Address NACK!\n"));
    }
    
    if (bSuccess && !i2c_write(clk_base, data_base, ControlAddr)){ // send sub-address
   80cd4:	e0bffa17 	ldw	r2,-24(fp)
   80cd8:	10000726 	beq	r2,zero,80cf8 <I2C_AUDIO_Write+0x84>
   80cdc:	e0bffe03 	ldbu	r2,-8(fp)
   80ce0:	e13ffb17 	ldw	r4,-20(fp)
   80ce4:	e17ffc17 	ldw	r5,-16(fp)
   80ce8:	100d883a 	mov	r6,r2
   80cec:	00806280 	call	80628 <i2c_write>
   80cf0:	1000011e 	bne	r2,zero,80cf8 <I2C_AUDIO_Write+0x84>
        bSuccess = FALSE;
   80cf4:	e03ffa15 	stw	zero,-24(fp)
        I2C_DEBUG(("I2C AUDIO Fail: SubAddress NACK!\n"));
    }      
          
    if (bSuccess && !i2c_write(clk_base, data_base, ControlData)){  
   80cf8:	e0bffa17 	ldw	r2,-24(fp)
   80cfc:	10000726 	beq	r2,zero,80d1c <I2C_AUDIO_Write+0xa8>
   80d00:	e0bfff03 	ldbu	r2,-4(fp)
   80d04:	e13ffb17 	ldw	r4,-20(fp)
   80d08:	e17ffc17 	ldw	r5,-16(fp)
   80d0c:	100d883a 	mov	r6,r2
   80d10:	00806280 	call	80628 <i2c_write>
   80d14:	1000011e 	bne	r2,zero,80d1c <I2C_AUDIO_Write+0xa8>
        bSuccess = FALSE;
   80d18:	e03ffa15 	stw	zero,-24(fp)
        I2C_DEBUG(("I2C AUDIO Fail: Address+1 NACK!\n"));
    }
    
    i2c_stop(clk_base, data_base);
   80d1c:	e13ffb17 	ldw	r4,-20(fp)
   80d20:	e17ffc17 	ldw	r5,-16(fp)
   80d24:	00805b80 	call	805b8 <i2c_stop>
    return bSuccess;
   80d28:	e0bffa17 	ldw	r2,-24(fp)
}
   80d2c:	e037883a 	mov	sp,fp
   80d30:	dfc00117 	ldw	ra,4(sp)
   80d34:	df000017 	ldw	fp,0(sp)
   80d38:	dec00204 	addi	sp,sp,8
   80d3c:	f800283a 	ret

00080d40 <main>:
#include "terasic_includes.h"
#include "video_control.h"
#include "mem_verify.h"
 
int main()
{
   80d40:	defffe04 	addi	sp,sp,-8
   80d44:	dfc00115 	stw	ra,4(sp)
   80d48:	df000015 	stw	fp,0(sp)
   80d4c:	d839883a 	mov	fp,sp
	printf("sdram test:%s\r\n", bPass?"PASS":"NG");
	return 0;

#else

	if (!VIDEO_Enable(TRUE))
   80d50:	01000044 	movi	r4,1
   80d54:	00814c40 	call	814c4 <VIDEO_Enable>
   80d58:	1000041e 	bne	r2,zero,80d6c <main+0x2c>
		printf("failed to enabled video decoder!\r\n");
   80d5c:	01000274 	movhi	r4,9
   80d60:	21382404 	addi	r4,r4,-8048
   80d64:	0081aa00 	call	81aa0 <puts>
   80d68:	00000306 	br	80d78 <main+0x38>
	else
		printf("video decoder is enabled successfully!\r\n");
   80d6c:	01000274 	movhi	r4,9
   80d70:	21382d04 	addi	r4,r4,-8012
   80d74:	0081aa00 	call	81aa0 <puts>


	printf("init MIX, layer 1 is disableD\r\n");
   80d78:	01000274 	movhi	r4,9
   80d7c:	21383704 	addi	r4,r4,-7972
   80d80:	0081aa00 	call	81aa0 <puts>
	MIX_Init();
   80d84:	008172c0 	call	8172c <MIX_Init>

	//MIX_LayerEnable(1, FALSE);

	return 0;
   80d88:	0005883a 	mov	r2,zero


#endif

}
   80d8c:	e037883a 	mov	sp,fp
   80d90:	dfc00117 	ldw	ra,4(sp)
   80d94:	df000017 	ldw	fp,0(sp)
   80d98:	dec00204 	addi	sp,sp,8
   80d9c:	f800283a 	ret

00080da0 <TMEM_Verify>:
#include "terasic_includes.h"
#include "mem_verify.h"



bool TMEM_Verify(alt_u32 BaseAddr, alt_u32 ByteLen, alt_u32 InitValue, bool bShowMessage){
   80da0:	def7e504 	addi	sp,sp,-8300
   80da4:	dfc81a15 	stw	ra,8296(sp)
   80da8:	df081915 	stw	fp,8292(sp)
   80dac:	df081904 	addi	fp,sp,8292
   80db0:	e13ffc15 	stw	r4,-16(fp)
   80db4:	e17ffd15 	stw	r5,-12(fp)
   80db8:	e1bffe15 	stw	r6,-8(fp)
   80dbc:	e1ffff15 	stw	r7,-4(fp)
    bool bPass = TRUE;
   80dc0:	00800044 	movi	r2,1
   80dc4:	e0b7e715 	stw	r2,-8292(fp)
    alt_u32 szData[1025];
    alt_u32 szRead[1025];
    int i, nRemainedLen, nAccessLen;
    alt_u32 *pDes, *pSrc, nItemNum, nPos;

    int nProgressIndex=0;
   80dc8:	e037ed15 	stw	zero,-8268(fp)
    alt_u32 szProgress[10];
    
    for(i=0;i<10;i++){
   80dcc:	e037e815 	stw	zero,-8288(fp)
   80dd0:	00001206 	br	80e1c <TMEM_Verify+0x7c>
        szProgress[i] = ByteLen/10*(i+1);     
   80dd4:	e0bffd17 	ldw	r2,-12(fp)
   80dd8:	1009883a 	mov	r4,r2
   80ddc:	01400284 	movi	r5,10
   80de0:	00818880 	call	81888 <__udivsi3>
   80de4:	1007883a 	mov	r3,r2
   80de8:	e0b7e817 	ldw	r2,-8288(fp)
   80dec:	10800044 	addi	r2,r2,1
   80df0:	1887383a 	mul	r3,r3,r2
   80df4:	e0b7e817 	ldw	r2,-8288(fp)
   80df8:	1085883a 	add	r2,r2,r2
   80dfc:	1085883a 	add	r2,r2,r2
   80e00:	e137e704 	addi	r4,fp,-8292
   80e04:	2085883a 	add	r2,r4,r2
   80e08:	10880b04 	addi	r2,r2,8236
   80e0c:	10c00015 	stw	r3,0(r2)
    alt_u32 *pDes, *pSrc, nItemNum, nPos;

    int nProgressIndex=0;
    alt_u32 szProgress[10];
    
    for(i=0;i<10;i++){
   80e10:	e0b7e817 	ldw	r2,-8288(fp)
   80e14:	10800044 	addi	r2,r2,1
   80e18:	e0b7e815 	stw	r2,-8288(fp)
   80e1c:	e0b7e817 	ldw	r2,-8288(fp)
   80e20:	10800290 	cmplti	r2,r2,10
   80e24:	103feb1e 	bne	r2,zero,80dd4 <TMEM_Verify+0x34>
        szProgress[i] = ByteLen/10*(i+1);     
    }
    
    
    
    nItemNum = sizeof(szData)/sizeof(szData[0]);
   80e28:	00810044 	movi	r2,1025
   80e2c:	e0b7ee15 	stw	r2,-8264(fp)
    for(i=0;i<nItemNum;i++){
   80e30:	e037e815 	stw	zero,-8288(fp)
   80e34:	00001e06 	br	80eb0 <TMEM_Verify+0x110>
        if (i == 0)
   80e38:	e0b7e817 	ldw	r2,-8288(fp)
   80e3c:	1000091e 	bne	r2,zero,80e64 <TMEM_Verify+0xc4>
            szData[i] = InitValue;
   80e40:	e0b7e817 	ldw	r2,-8288(fp)
   80e44:	1085883a 	add	r2,r2,r2
   80e48:	1085883a 	add	r2,r2,r2
   80e4c:	e0f7e704 	addi	r3,fp,-8292
   80e50:	1885883a 	add	r2,r3,r2
   80e54:	10800904 	addi	r2,r2,36
   80e58:	e0fffe17 	ldw	r3,-8(fp)
   80e5c:	10c00015 	stw	r3,0(r2)
   80e60:	00001006 	br	80ea4 <TMEM_Verify+0x104>
        else     
            szData[i] = szData[i-1] * 13;
   80e64:	e0b7e817 	ldw	r2,-8288(fp)
   80e68:	10bfffc4 	addi	r2,r2,-1
   80e6c:	1085883a 	add	r2,r2,r2
   80e70:	1085883a 	add	r2,r2,r2
   80e74:	e137e704 	addi	r4,fp,-8292
   80e78:	2085883a 	add	r2,r4,r2
   80e7c:	10800904 	addi	r2,r2,36
   80e80:	10800017 	ldw	r2,0(r2)
   80e84:	10c00364 	muli	r3,r2,13
   80e88:	e0b7e817 	ldw	r2,-8288(fp)
   80e8c:	1085883a 	add	r2,r2,r2
   80e90:	1085883a 	add	r2,r2,r2
   80e94:	e137e704 	addi	r4,fp,-8292
   80e98:	2085883a 	add	r2,r4,r2
   80e9c:	10800904 	addi	r2,r2,36
   80ea0:	10c00015 	stw	r3,0(r2)
    }
    
    
    
    nItemNum = sizeof(szData)/sizeof(szData[0]);
    for(i=0;i<nItemNum;i++){
   80ea4:	e0b7e817 	ldw	r2,-8288(fp)
   80ea8:	10800044 	addi	r2,r2,1
   80eac:	e0b7e815 	stw	r2,-8288(fp)
   80eb0:	e0f7e817 	ldw	r3,-8288(fp)
   80eb4:	e0b7ee17 	ldw	r2,-8264(fp)
   80eb8:	18bfdf36 	bltu	r3,r2,80e38 <TMEM_Verify+0x98>
        if (i == 0)
            szData[i] = InitValue;
        else     
            szData[i] = szData[i-1] * 13;
    }
    szData[nItemNum-1] = 0xAAAAAAAA;
   80ebc:	e0b7ee17 	ldw	r2,-8264(fp)
   80ec0:	10bfffc4 	addi	r2,r2,-1
   80ec4:	1085883a 	add	r2,r2,r2
   80ec8:	1085883a 	add	r2,r2,r2
   80ecc:	e0f7e704 	addi	r3,fp,-8292
   80ed0:	1885883a 	add	r2,r3,r2
   80ed4:	10800904 	addi	r2,r2,36
   80ed8:	00eaaaf4 	movhi	r3,43691
   80edc:	18eaaa84 	addi	r3,r3,-21846
   80ee0:	10c00015 	stw	r3,0(r2)
    szData[nItemNum-2] = 0x55555555;
   80ee4:	e0b7ee17 	ldw	r2,-8264(fp)
   80ee8:	10bfff84 	addi	r2,r2,-2
   80eec:	1085883a 	add	r2,r2,r2
   80ef0:	1085883a 	add	r2,r2,r2
   80ef4:	e137e704 	addi	r4,fp,-8292
   80ef8:	2085883a 	add	r2,r4,r2
   80efc:	10800904 	addi	r2,r2,36
   80f00:	00d55574 	movhi	r3,21845
   80f04:	18d55544 	addi	r3,r3,21845
   80f08:	10c00015 	stw	r3,0(r2)
    szData[nItemNum-3] = 0x00000000;
   80f0c:	e0b7ee17 	ldw	r2,-8264(fp)
   80f10:	10bfff44 	addi	r2,r2,-3
   80f14:	1085883a 	add	r2,r2,r2
   80f18:	1085883a 	add	r2,r2,r2
   80f1c:	e0f7e704 	addi	r3,fp,-8292
   80f20:	1885883a 	add	r2,r3,r2
   80f24:	10800904 	addi	r2,r2,36
   80f28:	10000015 	stw	zero,0(r2)
    szData[nItemNum-4] = 0xFFFFFFFF;
   80f2c:	e0b7ee17 	ldw	r2,-8264(fp)
   80f30:	10bfff04 	addi	r2,r2,-4
   80f34:	1085883a 	add	r2,r2,r2
   80f38:	1085883a 	add	r2,r2,r2
   80f3c:	e137e704 	addi	r4,fp,-8292
   80f40:	2085883a 	add	r2,r4,r2
   80f44:	10800904 	addi	r2,r2,36
   80f48:	00ffffc4 	movi	r3,-1
   80f4c:	10c00015 	stw	r3,0(r2)
    
    if (bShowMessage)
   80f50:	e0bfff17 	ldw	r2,-4(fp)
   80f54:	10000326 	beq	r2,zero,80f64 <TMEM_Verify+0x1c4>
        printf("write...\n");
   80f58:	01000274 	movhi	r4,9
   80f5c:	21383f04 	addi	r4,r4,-7940
   80f60:	0081aa00 	call	81aa0 <puts>
    // write
    pDes = (alt_u32 *)BaseAddr;
   80f64:	e0bffc17 	ldw	r2,-16(fp)
   80f68:	e0b7ea15 	stw	r2,-8280(fp)
    nAccessLen = sizeof(szData);
   80f6c:	00840104 	movi	r2,4100
   80f70:	e0b7e915 	stw	r2,-8284(fp)
    nPos = 0;
   80f74:	e037ec15 	stw	zero,-8272(fp)
    while(nPos < ByteLen){
   80f78:	00003506 	br	81050 <TMEM_Verify+0x2b0>
        nRemainedLen = ByteLen - nPos;
   80f7c:	e0fffd17 	ldw	r3,-12(fp)
   80f80:	e0b7ec17 	ldw	r2,-8272(fp)
   80f84:	1885c83a 	sub	r2,r3,r2
   80f88:	e0b7ef15 	stw	r2,-8260(fp)
        if (nAccessLen > nRemainedLen)
   80f8c:	e0b7e917 	ldw	r2,-8284(fp)
   80f90:	e0f7ef17 	ldw	r3,-8260(fp)
   80f94:	1880020e 	bge	r3,r2,80fa0 <TMEM_Verify+0x200>
            nAccessLen = nRemainedLen;
   80f98:	e0b7ef17 	ldw	r2,-8260(fp)
   80f9c:	e0b7e915 	stw	r2,-8284(fp)
        memcpy(pDes, szData, nAccessLen);
   80fa0:	e0b7e917 	ldw	r2,-8284(fp)
   80fa4:	e0f7f004 	addi	r3,fp,-8256
   80fa8:	e137ea17 	ldw	r4,-8280(fp)
   80fac:	180b883a 	mov	r5,r3
   80fb0:	100d883a 	mov	r6,r2
   80fb4:	00818980 	call	81898 <memcpy>
        pDes += nAccessLen/4;
   80fb8:	e0b7e917 	ldw	r2,-8284(fp)
   80fbc:	1000010e 	bge	r2,zero,80fc4 <TMEM_Verify+0x224>
   80fc0:	108000c4 	addi	r2,r2,3
   80fc4:	1005d0ba 	srai	r2,r2,2
   80fc8:	1085883a 	add	r2,r2,r2
   80fcc:	1085883a 	add	r2,r2,r2
   80fd0:	e0f7ea17 	ldw	r3,-8280(fp)
   80fd4:	1885883a 	add	r2,r3,r2
   80fd8:	e0b7ea15 	stw	r2,-8280(fp)
        nPos += nAccessLen;
   80fdc:	e0b7e917 	ldw	r2,-8284(fp)
   80fe0:	e0f7ec17 	ldw	r3,-8272(fp)
   80fe4:	1885883a 	add	r2,r3,r2
   80fe8:	e0b7ec15 	stw	r2,-8272(fp)
        
        if (bShowMessage){
   80fec:	e0bfff17 	ldw	r2,-4(fp)
   80ff0:	10001726 	beq	r2,zero,81050 <TMEM_Verify+0x2b0>
            if (nProgressIndex <= 9 && nPos >= szProgress[nProgressIndex]){
   80ff4:	e0b7ed17 	ldw	r2,-8268(fp)
   80ff8:	10800288 	cmpgei	r2,r2,10
   80ffc:	1000141e 	bne	r2,zero,81050 <TMEM_Verify+0x2b0>
   81000:	e0b7ed17 	ldw	r2,-8268(fp)
   81004:	1085883a 	add	r2,r2,r2
   81008:	1085883a 	add	r2,r2,r2
   8100c:	e0f7e704 	addi	r3,fp,-8292
   81010:	1885883a 	add	r2,r3,r2
   81014:	10880b04 	addi	r2,r2,8236
   81018:	10800017 	ldw	r2,0(r2)
   8101c:	e0f7ec17 	ldw	r3,-8272(fp)
   81020:	18800b36 	bltu	r3,r2,81050 <TMEM_Verify+0x2b0>
                nProgressIndex++;
   81024:	e0b7ed17 	ldw	r2,-8268(fp)
   81028:	10800044 	addi	r2,r2,1
   8102c:	e0b7ed15 	stw	r2,-8268(fp)
                printf("%02d%% ", nProgressIndex*10);
   81030:	e0b7ed17 	ldw	r2,-8268(fp)
   81034:	108002a4 	muli	r2,r2,10
   81038:	01000274 	movhi	r4,9
   8103c:	21384204 	addi	r4,r4,-7928
   81040:	100b883a 	mov	r5,r2
   81044:	00819bc0 	call	819bc <printf>
                usleep(50);
   81048:	01000c84 	movi	r4,50
   8104c:	008b8000 	call	8b800 <usleep>
        printf("write...\n");
    // write
    pDes = (alt_u32 *)BaseAddr;
    nAccessLen = sizeof(szData);
    nPos = 0;
    while(nPos < ByteLen){
   81050:	e0f7ec17 	ldw	r3,-8272(fp)
   81054:	e0bffd17 	ldw	r2,-12(fp)
   81058:	18bfc836 	bltu	r3,r2,80f7c <TMEM_Verify+0x1dc>
                usleep(50);
            }
        }            
    } 
    
    alt_dcache_flush_all();
   8105c:	008aef40 	call	8aef4 <alt_dcache_flush_all>
    
    if (bShowMessage){
   81060:	e0bfff17 	ldw	r2,-4(fp)
   81064:	10000626 	beq	r2,zero,81080 <TMEM_Verify+0x2e0>
        nProgressIndex = 0;
   81068:	e037ed15 	stw	zero,-8268(fp)
        printf("\nread/verify...\n");
   8106c:	01000274 	movhi	r4,9
   81070:	21384404 	addi	r4,r4,-7920
   81074:	0081aa00 	call	81aa0 <puts>
        usleep(50);
   81078:	01000c84 	movi	r4,50
   8107c:	008b8000 	call	8b800 <usleep>
    }        
    
    // read & verify
    pSrc = (alt_u32 *)BaseAddr;
   81080:	e0bffc17 	ldw	r2,-16(fp)
   81084:	e0b7eb15 	stw	r2,-8276(fp)
    nAccessLen = sizeof(szRead);
   81088:	00840104 	movi	r2,4100
   8108c:	e0b7e915 	stw	r2,-8284(fp)
    nPos = 0;
   81090:	e037ec15 	stw	zero,-8272(fp)
    while(bPass && nPos < ByteLen){
   81094:	00006e06 	br	81250 <TMEM_Verify+0x4b0>
        nRemainedLen = ByteLen - nPos;
   81098:	e0fffd17 	ldw	r3,-12(fp)
   8109c:	e0b7ec17 	ldw	r2,-8272(fp)
   810a0:	1885c83a 	sub	r2,r3,r2
   810a4:	e0b7ef15 	stw	r2,-8260(fp)
        if (nAccessLen > nRemainedLen)
   810a8:	e0b7e917 	ldw	r2,-8284(fp)
   810ac:	e0f7ef17 	ldw	r3,-8260(fp)
   810b0:	1880020e 	bge	r3,r2,810bc <TMEM_Verify+0x31c>
            nAccessLen = nRemainedLen;
   810b4:	e0b7ef17 	ldw	r2,-8260(fp)
   810b8:	e0b7e915 	stw	r2,-8284(fp)
       // memset(szRead, 0xAA, nAccessLen); // reset content    
        memcpy(szRead, pSrc, nAccessLen);
   810bc:	e0b7e917 	ldw	r2,-8284(fp)
   810c0:	e0fbf104 	addi	r3,fp,-4156
   810c4:	1809883a 	mov	r4,r3
   810c8:	e177eb17 	ldw	r5,-8276(fp)
   810cc:	100d883a 	mov	r6,r2
   810d0:	00818980 	call	81898 <memcpy>
        // verify
        nItemNum = nAccessLen / 4;
   810d4:	e0b7e917 	ldw	r2,-8284(fp)
   810d8:	1000010e 	bge	r2,zero,810e0 <TMEM_Verify+0x340>
   810dc:	108000c4 	addi	r2,r2,3
   810e0:	1005d0ba 	srai	r2,r2,2
   810e4:	e0b7ee15 	stw	r2,-8264(fp)
        for(i=0;i<nItemNum && bPass;i++){
   810e8:	e037e815 	stw	zero,-8288(fp)
   810ec:	00003006 	br	811b0 <TMEM_Verify+0x410>
            if (szRead[i] != szData[i]){
   810f0:	e0b7e817 	ldw	r2,-8288(fp)
   810f4:	1085883a 	add	r2,r2,r2
   810f8:	1085883a 	add	r2,r2,r2
   810fc:	e137e704 	addi	r4,fp,-8292
   81100:	2085883a 	add	r2,r4,r2
   81104:	10840a04 	addi	r2,r2,4136
   81108:	10c00017 	ldw	r3,0(r2)
   8110c:	e0b7e817 	ldw	r2,-8288(fp)
   81110:	1085883a 	add	r2,r2,r2
   81114:	1085883a 	add	r2,r2,r2
   81118:	e137e704 	addi	r4,fp,-8292
   8111c:	2085883a 	add	r2,r4,r2
   81120:	10800904 	addi	r2,r2,36
   81124:	10800017 	ldw	r2,0(r2)
   81128:	18801e26 	beq	r3,r2,811a4 <TMEM_Verify+0x404>
                if (bShowMessage){
   8112c:	e0bfff17 	ldw	r2,-4(fp)
   81130:	10001b26 	beq	r2,zero,811a0 <TMEM_Verify+0x400>
                   printf("verify ng, read=%08Xh, expected=%08Xh, i=%Xh\n", (int)szRead[i], (int)szData[i], (int)(nPos/4+i));
   81134:	e0b7e817 	ldw	r2,-8288(fp)
   81138:	1085883a 	add	r2,r2,r2
   8113c:	1085883a 	add	r2,r2,r2
   81140:	e0f7e704 	addi	r3,fp,-8292
   81144:	1885883a 	add	r2,r3,r2
   81148:	10840a04 	addi	r2,r2,4136
   8114c:	10800017 	ldw	r2,0(r2)
   81150:	100b883a 	mov	r5,r2
   81154:	e0b7e817 	ldw	r2,-8288(fp)
   81158:	1085883a 	add	r2,r2,r2
   8115c:	1085883a 	add	r2,r2,r2
   81160:	e137e704 	addi	r4,fp,-8292
   81164:	2085883a 	add	r2,r4,r2
   81168:	10800904 	addi	r2,r2,36
   8116c:	10800017 	ldw	r2,0(r2)
   81170:	1007883a 	mov	r3,r2
   81174:	e0b7ec17 	ldw	r2,-8272(fp)
   81178:	1008d0ba 	srli	r4,r2,2
   8117c:	e0b7e817 	ldw	r2,-8288(fp)
   81180:	2085883a 	add	r2,r4,r2
   81184:	01000274 	movhi	r4,9
   81188:	21384804 	addi	r4,r4,-7904
   8118c:	180d883a 	mov	r6,r3
   81190:	100f883a 	mov	r7,r2
   81194:	00819bc0 	call	819bc <printf>
                   usleep(50);
   81198:	01000c84 	movi	r4,50
   8119c:	008b8000 	call	8b800 <usleep>
                }   
                bPass = FALSE;
   811a0:	e037e715 	stw	zero,-8292(fp)
            nAccessLen = nRemainedLen;
       // memset(szRead, 0xAA, nAccessLen); // reset content    
        memcpy(szRead, pSrc, nAccessLen);
        // verify
        nItemNum = nAccessLen / 4;
        for(i=0;i<nItemNum && bPass;i++){
   811a4:	e0b7e817 	ldw	r2,-8288(fp)
   811a8:	10800044 	addi	r2,r2,1
   811ac:	e0b7e815 	stw	r2,-8288(fp)
   811b0:	e0f7e817 	ldw	r3,-8288(fp)
   811b4:	e0b7ee17 	ldw	r2,-8264(fp)
   811b8:	1880022e 	bgeu	r3,r2,811c4 <TMEM_Verify+0x424>
   811bc:	e0b7e717 	ldw	r2,-8292(fp)
   811c0:	103fcb1e 	bne	r2,zero,810f0 <TMEM_Verify+0x350>
                }   
                bPass = FALSE;
            }    
        }
        //
        pSrc += nItemNum;
   811c4:	e0b7ee17 	ldw	r2,-8264(fp)
   811c8:	1085883a 	add	r2,r2,r2
   811cc:	1085883a 	add	r2,r2,r2
   811d0:	e0f7eb17 	ldw	r3,-8276(fp)
   811d4:	1885883a 	add	r2,r3,r2
   811d8:	e0b7eb15 	stw	r2,-8276(fp)
        nPos += nAccessLen;
   811dc:	e0b7e917 	ldw	r2,-8284(fp)
   811e0:	e0f7ec17 	ldw	r3,-8272(fp)
   811e4:	1885883a 	add	r2,r3,r2
   811e8:	e0b7ec15 	stw	r2,-8272(fp)

        if (bShowMessage){
   811ec:	e0bfff17 	ldw	r2,-4(fp)
   811f0:	10001726 	beq	r2,zero,81250 <TMEM_Verify+0x4b0>
            if (nProgressIndex <= 9 && nPos >= szProgress[nProgressIndex]){
   811f4:	e0b7ed17 	ldw	r2,-8268(fp)
   811f8:	10800288 	cmpgei	r2,r2,10
   811fc:	1000141e 	bne	r2,zero,81250 <TMEM_Verify+0x4b0>
   81200:	e0b7ed17 	ldw	r2,-8268(fp)
   81204:	1085883a 	add	r2,r2,r2
   81208:	1085883a 	add	r2,r2,r2
   8120c:	e0f7e704 	addi	r3,fp,-8292
   81210:	1885883a 	add	r2,r3,r2
   81214:	10880b04 	addi	r2,r2,8236
   81218:	10800017 	ldw	r2,0(r2)
   8121c:	e0f7ec17 	ldw	r3,-8272(fp)
   81220:	18800b36 	bltu	r3,r2,81250 <TMEM_Verify+0x4b0>
                nProgressIndex++;
   81224:	e0b7ed17 	ldw	r2,-8268(fp)
   81228:	10800044 	addi	r2,r2,1
   8122c:	e0b7ed15 	stw	r2,-8268(fp)
                printf("%02d%% ", nProgressIndex*10);
   81230:	e0b7ed17 	ldw	r2,-8268(fp)
   81234:	108002a4 	muli	r2,r2,10
   81238:	01000274 	movhi	r4,9
   8123c:	21384204 	addi	r4,r4,-7928
   81240:	100b883a 	mov	r5,r2
   81244:	00819bc0 	call	819bc <printf>
                usleep(50);
   81248:	01000c84 	movi	r4,50
   8124c:	008b8000 	call	8b800 <usleep>
    
    // read & verify
    pSrc = (alt_u32 *)BaseAddr;
    nAccessLen = sizeof(szRead);
    nPos = 0;
    while(bPass && nPos < ByteLen){
   81250:	e0b7e717 	ldw	r2,-8292(fp)
   81254:	10000326 	beq	r2,zero,81264 <TMEM_Verify+0x4c4>
   81258:	e0f7ec17 	ldw	r3,-8272(fp)
   8125c:	e0bffd17 	ldw	r2,-12(fp)
   81260:	18bf8d36 	bltu	r3,r2,81098 <TMEM_Verify+0x2f8>
                usleep(50);
            }
        }            
    }     
    
    if (bShowMessage)
   81264:	e0bfff17 	ldw	r2,-4(fp)
   81268:	10000226 	beq	r2,zero,81274 <TMEM_Verify+0x4d4>
        printf("\n");
   8126c:	01000284 	movi	r4,10
   81270:	0081a000 	call	81a00 <putchar>
   
    
    return bPass;
   81274:	e0b7e717 	ldw	r2,-8292(fp)
}
   81278:	e037883a 	mov	sp,fp
   8127c:	dfc00117 	ldw	ra,4(sp)
   81280:	df000017 	ldw	fp,0(sp)
   81284:	dec00204 	addi	sp,sp,8
   81288:	f800283a 	ret

0008128c <TMEM_QuickVerify>:

bool TMEM_QuickVerify(alt_u32 BaseAddr, alt_u32 DataSize, alt_u32 DataWidth, alt_u32 AddrWidth){
   8128c:	defff104 	addi	sp,sp,-60
   81290:	dfc00e15 	stw	ra,56(sp)
   81294:	df000d15 	stw	fp,52(sp)
   81298:	df000d04 	addi	fp,sp,52
   8129c:	e13ffc15 	stw	r4,-16(fp)
   812a0:	e17ffd15 	stw	r5,-12(fp)
   812a4:	e1bffe15 	stw	r6,-8(fp)
   812a8:	e1ffff15 	stw	r7,-4(fp)
    bool bPass = TRUE;
   812ac:	00800044 	movi	r2,1
   812b0:	e0bff315 	stw	r2,-52(fp)
    const alt_u32 TestNum = 1024*512;
   812b4:	00800234 	movhi	r2,8
   812b8:	e0bff615 	stw	r2,-40(fp)
    const alt_u32 TestPattern = 0xAA;
   812bc:	00802a84 	movi	r2,170
   812c0:	e0bff715 	stw	r2,-36(fp)
    alt_u32 mask, Read32, Addr32, TestData32, TestAddr32;
    int i;
    
    //alt_u32 *pMem = (alt_u32 *)BaseAddr;
    // test address line
    mask = 0x01;
   812c4:	00800044 	movi	r2,1
   812c8:	e0bff415 	stw	r2,-48(fp)
    for(i=0;i<AddrWidth && bPass;i++){
   812cc:	e03ff515 	stw	zero,-44(fp)
   812d0:	00001a06 	br	8133c <TMEM_QuickVerify+0xb0>
        //*(pMem + mask) = TestPattern;
        IOWR(BaseAddr, mask, TestPattern);
   812d4:	e0bff417 	ldw	r2,-48(fp)
   812d8:	1085883a 	add	r2,r2,r2
   812dc:	1085883a 	add	r2,r2,r2
   812e0:	1007883a 	mov	r3,r2
   812e4:	e0bffc17 	ldw	r2,-16(fp)
   812e8:	1885883a 	add	r2,r3,r2
   812ec:	e0fff717 	ldw	r3,-36(fp)
   812f0:	10c00035 	stwio	r3,0(r2)
        //if (*(pMem + mask) != TestPattern)
        Read32 = IORD(BaseAddr, mask);
   812f4:	e0bff417 	ldw	r2,-48(fp)
   812f8:	1085883a 	add	r2,r2,r2
   812fc:	1085883a 	add	r2,r2,r2
   81300:	1007883a 	mov	r3,r2
   81304:	e0bffc17 	ldw	r2,-16(fp)
   81308:	1885883a 	add	r2,r3,r2
   8130c:	10800037 	ldwio	r2,0(r2)
   81310:	e0bff815 	stw	r2,-32(fp)
        if (Read32 != TestPattern)
   81314:	e0fff817 	ldw	r3,-32(fp)
   81318:	e0bff717 	ldw	r2,-36(fp)
   8131c:	18800126 	beq	r3,r2,81324 <TMEM_QuickVerify+0x98>
            bPass = FALSE;
   81320:	e03ff315 	stw	zero,-52(fp)
        mask <<= 1;    
   81324:	e0bff417 	ldw	r2,-48(fp)
   81328:	1085883a 	add	r2,r2,r2
   8132c:	e0bff415 	stw	r2,-48(fp)
    int i;
    
    //alt_u32 *pMem = (alt_u32 *)BaseAddr;
    // test address line
    mask = 0x01;
    for(i=0;i<AddrWidth && bPass;i++){
   81330:	e0bff517 	ldw	r2,-44(fp)
   81334:	10800044 	addi	r2,r2,1
   81338:	e0bff515 	stw	r2,-44(fp)
   8133c:	e0fff517 	ldw	r3,-44(fp)
   81340:	e0bfff17 	ldw	r2,-4(fp)
   81344:	1880022e 	bgeu	r3,r2,81350 <TMEM_QuickVerify+0xc4>
   81348:	e0bff317 	ldw	r2,-52(fp)
   8134c:	103fe11e 	bne	r2,zero,812d4 <TMEM_QuickVerify+0x48>
            bPass = FALSE;
        mask <<= 1;    
    }
    
    // test data line
    mask = 0x01;
   81350:	00800044 	movi	r2,1
   81354:	e0bff415 	stw	r2,-48(fp)
    for(i=0;i<DataWidth && bPass;i++){
   81358:	e03ff515 	stw	zero,-44(fp)
   8135c:	00002106 	br	813e4 <TMEM_QuickVerify+0x158>
        //*(pMem+i/32) = mask;
        Addr32 = i*13;
   81360:	e0bff517 	ldw	r2,-44(fp)
   81364:	10800364 	muli	r2,r2,13
   81368:	e0bff915 	stw	r2,-28(fp)
        IOWR(BaseAddr, Addr32, mask);
   8136c:	e0bff917 	ldw	r2,-28(fp)
   81370:	1085883a 	add	r2,r2,r2
   81374:	1085883a 	add	r2,r2,r2
   81378:	1007883a 	mov	r3,r2
   8137c:	e0bffc17 	ldw	r2,-16(fp)
   81380:	1885883a 	add	r2,r3,r2
   81384:	e0fff417 	ldw	r3,-48(fp)
   81388:	10c00035 	stwio	r3,0(r2)
        Read32 = IORD(BaseAddr, Addr32);
   8138c:	e0bff917 	ldw	r2,-28(fp)
   81390:	1085883a 	add	r2,r2,r2
   81394:	1085883a 	add	r2,r2,r2
   81398:	1007883a 	mov	r3,r2
   8139c:	e0bffc17 	ldw	r2,-16(fp)
   813a0:	1885883a 	add	r2,r3,r2
   813a4:	10800037 	ldwio	r2,0(r2)
   813a8:	e0bff815 	stw	r2,-32(fp)
        //if (*(pMem+i/32) != mask)
        if (Read32 != mask)
   813ac:	e0fff817 	ldw	r3,-32(fp)
   813b0:	e0bff417 	ldw	r2,-48(fp)
   813b4:	18800126 	beq	r3,r2,813bc <TMEM_QuickVerify+0x130>
            bPass = FALSE;
   813b8:	e03ff315 	stw	zero,-52(fp)
        mask <<= 1;
   813bc:	e0bff417 	ldw	r2,-48(fp)
   813c0:	1085883a 	add	r2,r2,r2
   813c4:	e0bff415 	stw	r2,-48(fp)
        if (mask == 0x00)
   813c8:	e0bff417 	ldw	r2,-48(fp)
   813cc:	1000021e 	bne	r2,zero,813d8 <TMEM_QuickVerify+0x14c>
            mask = 0x01;    
   813d0:	00800044 	movi	r2,1
   813d4:	e0bff415 	stw	r2,-48(fp)
        mask <<= 1;    
    }
    
    // test data line
    mask = 0x01;
    for(i=0;i<DataWidth && bPass;i++){
   813d8:	e0bff517 	ldw	r2,-44(fp)
   813dc:	10800044 	addi	r2,r2,1
   813e0:	e0bff515 	stw	r2,-44(fp)
   813e4:	e0fff517 	ldw	r3,-44(fp)
   813e8:	e0bffe17 	ldw	r2,-8(fp)
   813ec:	1880022e 	bgeu	r3,r2,813f8 <TMEM_QuickVerify+0x16c>
   813f0:	e0bff317 	ldw	r2,-52(fp)
   813f4:	103fda1e 	bne	r2,zero,81360 <TMEM_QuickVerify+0xd4>
 * alt_nticks() returns the elapsed number of system clock ticks since reset.
 */

static ALT_INLINE alt_u32 ALT_ALWAYS_INLINE alt_nticks (void)
{
  return _alt_nticks;
   813f8:	00800274 	movhi	r2,9
   813fc:	1086da04 	addi	r2,r2,7016
   81400:	10800017 	ldw	r2,0(r2)
        if (mask == 0x00)
            mask = 0x01;    
    }
    
    // random data test
    srand(alt_nticks());
   81404:	1009883a 	mov	r4,r2
   81408:	0081ab40 	call	81ab4 <srand>
    for(i=0;i<TestNum && bPass;i++){
   8140c:	e03ff515 	stw	zero,-44(fp)
   81410:	00002106 	br	81498 <TMEM_QuickVerify+0x20c>
        TestAddr32 = rand()%(DataSize/4);
   81414:	0081acc0 	call	81acc <rand>
   81418:	1007883a 	mov	r3,r2
   8141c:	e0bffd17 	ldw	r2,-12(fp)
   81420:	1004d0ba 	srli	r2,r2,2
   81424:	1809883a 	mov	r4,r3
   81428:	100b883a 	mov	r5,r2
   8142c:	00818900 	call	81890 <__umodsi3>
   81430:	e0bffa15 	stw	r2,-24(fp)
        TestData32 = rand();
   81434:	0081acc0 	call	81acc <rand>
   81438:	e0bffb15 	stw	r2,-20(fp)
        IOWR(BaseAddr, TestAddr32, TestData32);
   8143c:	e0bffa17 	ldw	r2,-24(fp)
   81440:	1085883a 	add	r2,r2,r2
   81444:	1085883a 	add	r2,r2,r2
   81448:	1007883a 	mov	r3,r2
   8144c:	e0bffc17 	ldw	r2,-16(fp)
   81450:	1885883a 	add	r2,r3,r2
   81454:	e0fffb17 	ldw	r3,-20(fp)
   81458:	10c00035 	stwio	r3,0(r2)
        Read32 = IORD(BaseAddr, TestAddr32);
   8145c:	e0bffa17 	ldw	r2,-24(fp)
   81460:	1085883a 	add	r2,r2,r2
   81464:	1085883a 	add	r2,r2,r2
   81468:	1007883a 	mov	r3,r2
   8146c:	e0bffc17 	ldw	r2,-16(fp)
   81470:	1885883a 	add	r2,r3,r2
   81474:	10800037 	ldwio	r2,0(r2)
   81478:	e0bff815 	stw	r2,-32(fp)
        if (Read32 != TestData32)
   8147c:	e0fff817 	ldw	r3,-32(fp)
   81480:	e0bffb17 	ldw	r2,-20(fp)
   81484:	18800126 	beq	r3,r2,8148c <TMEM_QuickVerify+0x200>
            bPass = FALSE;        
   81488:	e03ff315 	stw	zero,-52(fp)
            mask = 0x01;    
    }
    
    // random data test
    srand(alt_nticks());
    for(i=0;i<TestNum && bPass;i++){
   8148c:	e0bff517 	ldw	r2,-44(fp)
   81490:	10800044 	addi	r2,r2,1
   81494:	e0bff515 	stw	r2,-44(fp)
   81498:	e0fff517 	ldw	r3,-44(fp)
   8149c:	e0bff617 	ldw	r2,-40(fp)
   814a0:	1880022e 	bgeu	r3,r2,814ac <TMEM_QuickVerify+0x220>
   814a4:	e0bff317 	ldw	r2,-52(fp)
   814a8:	103fda1e 	bne	r2,zero,81414 <TMEM_QuickVerify+0x188>
        if (Read32 != TestData32)
            bPass = FALSE;        
        
    }
    
    return bPass;
   814ac:	e0bff317 	ldw	r2,-52(fp)
}
   814b0:	e037883a 	mov	sp,fp
   814b4:	dfc00117 	ldw	ra,4(sp)
   814b8:	df000017 	ldw	fp,0(sp)
   814bc:	dec00204 	addi	sp,sp,8
   814c0:	f800283a 	ret

000814c4 <VIDEO_Enable>:
#endif    
  
};    


bool VIDEO_Enable(bool bEnable){
   814c4:	defff804 	addi	sp,sp,-32
   814c8:	dfc00715 	stw	ra,28(sp)
   814cc:	df000615 	stw	fp,24(sp)
   814d0:	df000604 	addi	fp,sp,24
   814d4:	e13fff15 	stw	r4,-4(fp)
    bool bPass = TRUE;
   814d8:	00800044 	movi	r2,1
   814dc:	e0bffb15 	stw	r2,-20(fp)
        0x0444, // ITU-R BT.656 compatible
        0x0d1c  // Set Free-run color
    };
     */
    
    IOWR(ALT_VIP_CTI_0_BASE, 0, bEnable?0x01:0x00);
   814e0:	e0bfff17 	ldw	r2,-4(fp)
   814e4:	1004c03a 	cmpne	r2,r2,zero
   814e8:	10c03fcc 	andi	r3,r2,255
   814ec:	00800074 	movhi	r2,1
   814f0:	10802004 	addi	r2,r2,128
   814f4:	10c00035 	stwio	r3,0(r2)
    if (!bEnable)
   814f8:	e0bfff17 	ldw	r2,-4(fp)
   814fc:	1000021e 	bne	r2,zero,81508 <VIDEO_Enable+0x44>
        return TRUE; 
   81500:	00800044 	movi	r2,1
   81504:	00004d06 	br	8163c <VIDEO_Enable+0x178>
     
    nNum = sizeof(szTvConfig)/sizeof(szTvConfig[0]);
   81508:	00800544 	movi	r2,21
   8150c:	e0bffd15 	stw	r2,-12(fp)
    
  //  hardware reset
    IOWR(TD_RESET_N_BASE, 0, 0x01);
   81510:	00c00044 	movi	r3,1
   81514:	0080c034 	movhi	r2,768
   81518:	10800804 	addi	r2,r2,32
   8151c:	10c00035 	stwio	r3,0(r2)
    usleep(100);
   81520:	01001904 	movi	r4,100
   81524:	008b8000 	call	8b800 <usleep>
    IOWR(TD_RESET_N_BASE, 0, 0x00);
   81528:	0007883a 	mov	r3,zero
   8152c:	0080c034 	movhi	r2,768
   81530:	10800804 	addi	r2,r2,32
   81534:	10c00035 	stwio	r3,0(r2)
    usleep(100);
   81538:	01001904 	movi	r4,100
   8153c:	008b8000 	call	8b800 <usleep>
    IOWR(TD_RESET_N_BASE, 0, 0x01);
   81540:	00c00044 	movi	r3,1
   81544:	0080c034 	movhi	r2,768
   81548:	10800804 	addi	r2,r2,32
   8154c:	10c00035 	stwio	r3,0(r2)
    usleep(100);
   81550:	01001904 	movi	r4,100
   81554:	008b8000 	call	8b800 <usleep>
    

    if (I2C_Read(I2C_SCL_BASE, I2C_SDA_BASE, I2C_TV_ADDR, 0x11, &ID)){
   81558:	e0bffe04 	addi	r2,fp,-8
   8155c:	d8800015 	stw	r2,0(sp)
   81560:	0100c034 	movhi	r4,768
   81564:	21001404 	addi	r4,r4,80
   81568:	0140c034 	movhi	r5,768
   8156c:	29401004 	addi	r5,r5,64
   81570:	01801004 	movi	r6,64
   81574:	01c00444 	movi	r7,17
   81578:	00802dc0 	call	802dc <I2C_Read>
   8157c:	10000726 	beq	r2,zero,8159c <VIDEO_Enable+0xd8>
    	printf("id(reg 0x11)=%02xh\r\n", ID);
   81580:	e0bffe03 	ldbu	r2,-8(fp)
   81584:	10803fcc 	andi	r2,r2,255
   81588:	01000274 	movhi	r4,9
   8158c:	21385404 	addi	r4,r4,-7856
   81590:	100b883a 	mov	r5,r2
   81594:	00819bc0 	call	819bc <printf>
   81598:	00000306 	br	815a8 <VIDEO_Enable+0xe4>
    }else{
    	printf("Failed to read chip id\r\n");
   8159c:	01000274 	movhi	r4,9
   815a0:	21385a04 	addi	r4,r4,-7832
   815a4:	0081aa00 	call	81aa0 <puts>

    }

    for(i=0;i<nNum && bPass;i++){
   815a8:	e03ffc15 	stw	zero,-16(fp)
   815ac:	00001d06 	br	81624 <VIDEO_Enable+0x160>
        bPass = I2C_Write(I2C_SCL_BASE, I2C_SDA_BASE, I2C_TV_ADDR, szTvConfig[i].Address, szTvConfig[i].Data);
   815b0:	00c00274 	movhi	r3,9
   815b4:	18f92b04 	addi	r3,r3,-6996
   815b8:	e0bffc17 	ldw	r2,-16(fp)
   815bc:	1085883a 	add	r2,r2,r2
   815c0:	1885883a 	add	r2,r3,r2
   815c4:	10800003 	ldbu	r2,0(r2)
   815c8:	10c03fcc 	andi	r3,r2,255
   815cc:	01000274 	movhi	r4,9
   815d0:	21392b04 	addi	r4,r4,-6996
   815d4:	e0bffc17 	ldw	r2,-16(fp)
   815d8:	1085883a 	add	r2,r2,r2
   815dc:	2085883a 	add	r2,r4,r2
   815e0:	10800044 	addi	r2,r2,1
   815e4:	10800003 	ldbu	r2,0(r2)
   815e8:	10803fcc 	andi	r2,r2,255
   815ec:	d8800015 	stw	r2,0(sp)
   815f0:	0100c034 	movhi	r4,768
   815f4:	21001404 	addi	r4,r4,80
   815f8:	0140c034 	movhi	r5,768
   815fc:	29401004 	addi	r5,r5,64
   81600:	01801004 	movi	r6,64
   81604:	180f883a 	mov	r7,r3
   81608:	00802040 	call	80204 <I2C_Write>
   8160c:	e0bffb15 	stw	r2,-20(fp)
        usleep(10);
   81610:	01000284 	movi	r4,10
   81614:	008b8000 	call	8b800 <usleep>
    }else{
    	printf("Failed to read chip id\r\n");

    }

    for(i=0;i<nNum && bPass;i++){
   81618:	e0bffc17 	ldw	r2,-16(fp)
   8161c:	10800044 	addi	r2,r2,1
   81620:	e0bffc15 	stw	r2,-16(fp)
   81624:	e0fffc17 	ldw	r3,-16(fp)
   81628:	e0bffd17 	ldw	r2,-12(fp)
   8162c:	1880020e 	bge	r3,r2,81638 <VIDEO_Enable+0x174>
   81630:	e0bffb17 	ldw	r2,-20(fp)
   81634:	103fde1e 	bne	r2,zero,815b0 <VIDEO_Enable+0xec>
        bPass = I2C_Write(I2C_SCL_BASE, I2C_SDA_BASE, I2C_TV_ADDR, szTvConfig[i].Address, szTvConfig[i].Data);
        usleep(10);
    }        
    return bPass;
   81638:	e0bffb17 	ldw	r2,-20(fp)
}
   8163c:	e037883a 	mov	sp,fp
   81640:	dfc00117 	ldw	ra,4(sp)
   81644:	df000017 	ldw	fp,0(sp)
   81648:	dec00204 	addi	sp,sp,8
   8164c:	f800283a 	ret

00081650 <MIX_LayerEnable>:

// background is layer 0 ???



void MIX_LayerEnable(int nLayerIndex, bool bEnable){
   81650:	defffd04 	addi	sp,sp,-12
   81654:	df000215 	stw	fp,8(sp)
   81658:	df000204 	addi	fp,sp,8
   8165c:	e13ffe15 	stw	r4,-8(fp)
   81660:	e17fff15 	stw	r5,-4(fp)

	// stop
	IOWR(ALT_VIP_MIX_0_BASE, 0x00, 0x00);
   81664:	0007883a 	mov	r3,zero
   81668:	00800074 	movhi	r2,1
   8166c:	10804004 	addi	r2,r2,256
   81670:	10c00035 	stwio	r3,0(r2)

	IOWR(ALT_VIP_MIX_0_BASE, nLayerIndex*3+1, bEnable?0x01:0x00);
   81674:	e0bffe17 	ldw	r2,-8(fp)
   81678:	10800324 	muli	r2,r2,12
   8167c:	10800104 	addi	r2,r2,4
   81680:	1007883a 	mov	r3,r2
   81684:	00800074 	movhi	r2,1
   81688:	10804004 	addi	r2,r2,256
   8168c:	1885883a 	add	r2,r3,r2
   81690:	e0ffff17 	ldw	r3,-4(fp)
   81694:	1806c03a 	cmpne	r3,r3,zero
   81698:	18c03fcc 	andi	r3,r3,255
   8169c:	10c00035 	stwio	r3,0(r2)

	// start
	IOWR(ALT_VIP_MIX_0_BASE, 0x00, 0x01);
   816a0:	00c00044 	movi	r3,1
   816a4:	00800074 	movhi	r2,1
   816a8:	10804004 	addi	r2,r2,256
   816ac:	10c00035 	stwio	r3,0(r2)
}
   816b0:	e037883a 	mov	sp,fp
   816b4:	df000017 	ldw	fp,0(sp)
   816b8:	dec00104 	addi	sp,sp,4
   816bc:	f800283a 	ret

000816c0 <MIX_LayerMove>:

void MIX_LayerMove(int nLayerIndex, int x, int y){
   816c0:	defffc04 	addi	sp,sp,-16
   816c4:	df000315 	stw	fp,12(sp)
   816c8:	df000304 	addi	fp,sp,12
   816cc:	e13ffd15 	stw	r4,-12(fp)
   816d0:	e17ffe15 	stw	r5,-8(fp)
   816d4:	e1bfff15 	stw	r6,-4(fp)
	IOWR(ALT_VIP_MIX_0_BASE, nLayerIndex*3-1, x);
   816d8:	e0bffd17 	ldw	r2,-12(fp)
   816dc:	10800324 	muli	r2,r2,12
   816e0:	10bfff04 	addi	r2,r2,-4
   816e4:	1007883a 	mov	r3,r2
   816e8:	00800074 	movhi	r2,1
   816ec:	10804004 	addi	r2,r2,256
   816f0:	1885883a 	add	r2,r3,r2
   816f4:	e0fffe17 	ldw	r3,-8(fp)
   816f8:	10c00035 	stwio	r3,0(r2)
	IOWR(ALT_VIP_MIX_0_BASE, nLayerIndex*3+0, y);
   816fc:	e0bffd17 	ldw	r2,-12(fp)
   81700:	10800324 	muli	r2,r2,12
   81704:	1007883a 	mov	r3,r2
   81708:	00800074 	movhi	r2,1
   8170c:	10804004 	addi	r2,r2,256
   81710:	1885883a 	add	r2,r3,r2
   81714:	e0ffff17 	ldw	r3,-4(fp)
   81718:	10c00035 	stwio	r3,0(r2)

}
   8171c:	e037883a 	mov	sp,fp
   81720:	df000017 	ldw	fp,0(sp)
   81724:	dec00104 	addi	sp,sp,4
   81728:	f800283a 	ret

0008172c <MIX_Init>:



void MIX_Init(void){
   8172c:	deffff04 	addi	sp,sp,-4
   81730:	df000015 	stw	fp,0(sp)
   81734:	d839883a 	mov	fp,sp

	// stop
	IOWR(ALT_VIP_MIX_0_BASE, 0x00, 0x00);
   81738:	0007883a 	mov	r3,zero
   8173c:	00800074 	movhi	r2,1
   81740:	10804004 	addi	r2,r2,256
   81744:	10c00035 	stwio	r3,0(r2)
//	MIX_LayerEnable(1, FALSE);
	//MIX_LayerMove(1, 0, 0);


	// start
	IOWR(ALT_VIP_MIX_0_BASE, 0x00, 0x01);
   81748:	00c00044 	movi	r3,1
   8174c:	00800074 	movhi	r2,1
   81750:	10804004 	addi	r2,r2,256
   81754:	10c00035 	stwio	r3,0(r2)

}
   81758:	e037883a 	mov	sp,fp
   8175c:	df000017 	ldw	fp,0(sp)
   81760:	dec00104 	addi	sp,sp,4
   81764:	f800283a 	ret

00081768 <udivmodsi4>:
   81768:	2005883a 	mov	r2,r4
   8176c:	2900182e 	bgeu	r5,r4,817d0 <udivmodsi4+0x68>
   81770:	28001716 	blt	r5,zero,817d0 <udivmodsi4+0x68>
   81774:	01000804 	movi	r4,32
   81778:	00c00044 	movi	r3,1
   8177c:	00000206 	br	81788 <udivmodsi4+0x20>
   81780:	20001126 	beq	r4,zero,817c8 <udivmodsi4+0x60>
   81784:	28000516 	blt	r5,zero,8179c <udivmodsi4+0x34>
   81788:	294b883a 	add	r5,r5,r5
   8178c:	213fffc4 	addi	r4,r4,-1
   81790:	18c7883a 	add	r3,r3,r3
   81794:	28bffa36 	bltu	r5,r2,81780 <udivmodsi4+0x18>
   81798:	18000b26 	beq	r3,zero,817c8 <udivmodsi4+0x60>
   8179c:	0009883a 	mov	r4,zero
   817a0:	11400236 	bltu	r2,r5,817ac <udivmodsi4+0x44>
   817a4:	1145c83a 	sub	r2,r2,r5
   817a8:	20c8b03a 	or	r4,r4,r3
   817ac:	1806d07a 	srli	r3,r3,1
   817b0:	280ad07a 	srli	r5,r5,1
   817b4:	183ffa1e 	bne	r3,zero,817a0 <udivmodsi4+0x38>
   817b8:	3000021e 	bne	r6,zero,817c4 <udivmodsi4+0x5c>
   817bc:	2005883a 	mov	r2,r4
   817c0:	f800283a 	ret
   817c4:	f800283a 	ret
   817c8:	0009883a 	mov	r4,zero
   817cc:	003ffa06 	br	817b8 <udivmodsi4+0x50>
   817d0:	00c00044 	movi	r3,1
   817d4:	0009883a 	mov	r4,zero
   817d8:	003ff106 	br	817a0 <udivmodsi4+0x38>

000817dc <__divsi3>:
   817dc:	defffe04 	addi	sp,sp,-8
   817e0:	dfc00115 	stw	ra,4(sp)
   817e4:	dc000015 	stw	r16,0(sp)
   817e8:	20000a16 	blt	r4,zero,81814 <__divsi3+0x38>
   817ec:	0021883a 	mov	r16,zero
   817f0:	28000b16 	blt	r5,zero,81820 <__divsi3+0x44>
   817f4:	000d883a 	mov	r6,zero
   817f8:	00817680 	call	81768 <udivmodsi4>
   817fc:	80000126 	beq	r16,zero,81804 <__divsi3+0x28>
   81800:	0085c83a 	sub	r2,zero,r2
   81804:	dfc00117 	ldw	ra,4(sp)
   81808:	dc000017 	ldw	r16,0(sp)
   8180c:	dec00204 	addi	sp,sp,8
   81810:	f800283a 	ret
   81814:	0109c83a 	sub	r4,zero,r4
   81818:	04000044 	movi	r16,1
   8181c:	283ff50e 	bge	r5,zero,817f4 <__divsi3+0x18>
   81820:	014bc83a 	sub	r5,zero,r5
   81824:	8400005c 	xori	r16,r16,1
   81828:	003ff206 	br	817f4 <__divsi3+0x18>

0008182c <__modsi3>:
   8182c:	deffff04 	addi	sp,sp,-4
   81830:	dfc00015 	stw	ra,0(sp)
   81834:	20000516 	blt	r4,zero,8184c <__modsi3+0x20>
   81838:	28000c16 	blt	r5,zero,8186c <__modsi3+0x40>
   8183c:	01800044 	movi	r6,1
   81840:	dfc00017 	ldw	ra,0(sp)
   81844:	dec00104 	addi	sp,sp,4
   81848:	00817681 	jmpi	81768 <udivmodsi4>
   8184c:	0109c83a 	sub	r4,zero,r4
   81850:	28000b16 	blt	r5,zero,81880 <__modsi3+0x54>
   81854:	01800044 	movi	r6,1
   81858:	00817680 	call	81768 <udivmodsi4>
   8185c:	0085c83a 	sub	r2,zero,r2
   81860:	dfc00017 	ldw	ra,0(sp)
   81864:	dec00104 	addi	sp,sp,4
   81868:	f800283a 	ret
   8186c:	014bc83a 	sub	r5,zero,r5
   81870:	01800044 	movi	r6,1
   81874:	dfc00017 	ldw	ra,0(sp)
   81878:	dec00104 	addi	sp,sp,4
   8187c:	00817681 	jmpi	81768 <udivmodsi4>
   81880:	014bc83a 	sub	r5,zero,r5
   81884:	003ff306 	br	81854 <__modsi3+0x28>

00081888 <__udivsi3>:
   81888:	000d883a 	mov	r6,zero
   8188c:	00817681 	jmpi	81768 <udivmodsi4>

00081890 <__umodsi3>:
   81890:	01800044 	movi	r6,1
   81894:	00817681 	jmpi	81768 <udivmodsi4>

00081898 <memcpy>:
   81898:	00c003c4 	movi	r3,15
   8189c:	2005883a 	mov	r2,r4
   818a0:	3009883a 	mov	r4,r6
   818a4:	1980032e 	bgeu	r3,r6,818b4 <memcpy+0x1c>
   818a8:	2886b03a 	or	r3,r5,r2
   818ac:	18c000cc 	andi	r3,r3,3
   818b0:	18000926 	beq	r3,zero,818d8 <memcpy+0x40>
   818b4:	1007883a 	mov	r3,r2
   818b8:	290f883a 	add	r7,r5,r4
   818bc:	20000526 	beq	r4,zero,818d4 <memcpy+0x3c>
   818c0:	29800003 	ldbu	r6,0(r5)
   818c4:	18c00044 	addi	r3,r3,1
   818c8:	29400044 	addi	r5,r5,1
   818cc:	19bfffc5 	stb	r6,-1(r3)
   818d0:	29fffb1e 	bne	r5,r7,818c0 <memcpy+0x28>
   818d4:	f800283a 	ret
   818d8:	327ffc04 	addi	r9,r6,-16
   818dc:	4812d13a 	srli	r9,r9,4
   818e0:	11000404 	addi	r4,r2,16
   818e4:	1007883a 	mov	r3,r2
   818e8:	4810913a 	slli	r8,r9,4
   818ec:	280f883a 	mov	r7,r5
   818f0:	2209883a 	add	r4,r4,r8
   818f4:	3a000017 	ldw	r8,0(r7)
   818f8:	18c00404 	addi	r3,r3,16
   818fc:	39c00404 	addi	r7,r7,16
   81900:	1a3ffc15 	stw	r8,-16(r3)
   81904:	3a3ffd17 	ldw	r8,-12(r7)
   81908:	1a3ffd15 	stw	r8,-12(r3)
   8190c:	3a3ffe17 	ldw	r8,-8(r7)
   81910:	1a3ffe15 	stw	r8,-8(r3)
   81914:	3a3fff17 	ldw	r8,-4(r7)
   81918:	1a3fff15 	stw	r8,-4(r3)
   8191c:	193ff51e 	bne	r3,r4,818f4 <memcpy+0x5c>
   81920:	49c00044 	addi	r7,r9,1
   81924:	380e913a 	slli	r7,r7,4
   81928:	310003cc 	andi	r4,r6,15
   8192c:	018000c4 	movi	r6,3
   81930:	11c7883a 	add	r3,r2,r7
   81934:	29cb883a 	add	r5,r5,r7
   81938:	313fdf2e 	bgeu	r6,r4,818b8 <memcpy+0x20>
   8193c:	213fff04 	addi	r4,r4,-4
   81940:	2014d0ba 	srli	r10,r4,2
   81944:	1a400104 	addi	r9,r3,4
   81948:	180d883a 	mov	r6,r3
   8194c:	528f883a 	add	r7,r10,r10
   81950:	39cf883a 	add	r7,r7,r7
   81954:	49d3883a 	add	r9,r9,r7
   81958:	280f883a 	mov	r7,r5
   8195c:	3a000017 	ldw	r8,0(r7)
   81960:	31800104 	addi	r6,r6,4
   81964:	39c00104 	addi	r7,r7,4
   81968:	323fff15 	stw	r8,-4(r6)
   8196c:	327ffb1e 	bne	r6,r9,8195c <memcpy+0xc4>
   81970:	51800044 	addi	r6,r10,1
   81974:	52bfff24 	muli	r10,r10,-4
   81978:	318d883a 	add	r6,r6,r6
   8197c:	318d883a 	add	r6,r6,r6
   81980:	5109883a 	add	r4,r10,r4
   81984:	298b883a 	add	r5,r5,r6
   81988:	1987883a 	add	r3,r3,r6
   8198c:	003fca06 	br	818b8 <memcpy+0x20>

00081990 <_printf_r>:
   81990:	defffd04 	addi	sp,sp,-12
   81994:	dfc00015 	stw	ra,0(sp)
   81998:	d9800115 	stw	r6,4(sp)
   8199c:	d9c00215 	stw	r7,8(sp)
   819a0:	280d883a 	mov	r6,r5
   819a4:	21400217 	ldw	r5,8(r4)
   819a8:	d9c00104 	addi	r7,sp,4
   819ac:	0081bf00 	call	81bf0 <___vfprintf_internal_r>
   819b0:	dfc00017 	ldw	ra,0(sp)
   819b4:	dec00304 	addi	sp,sp,12
   819b8:	f800283a 	ret

000819bc <printf>:
   819bc:	defffc04 	addi	sp,sp,-16
   819c0:	dfc00015 	stw	ra,0(sp)
   819c4:	d9400115 	stw	r5,4(sp)
   819c8:	d9800215 	stw	r6,8(sp)
   819cc:	d9c00315 	stw	r7,12(sp)
   819d0:	00800274 	movhi	r2,9
   819d4:	10bfef04 	addi	r2,r2,-68
   819d8:	10800017 	ldw	r2,0(r2)
   819dc:	200b883a 	mov	r5,r4
   819e0:	d9800104 	addi	r6,sp,4
   819e4:	11000217 	ldw	r4,8(r2)
   819e8:	00839e80 	call	839e8 <__vfprintf_internal>
   819ec:	dfc00017 	ldw	ra,0(sp)
   819f0:	dec00404 	addi	sp,sp,16
   819f4:	f800283a 	ret

000819f8 <_putchar_r>:
   819f8:	21800217 	ldw	r6,8(r4)
   819fc:	0087f901 	jmpi	87f90 <_putc_r>

00081a00 <putchar>:
   81a00:	00800274 	movhi	r2,9
   81a04:	10bfef04 	addi	r2,r2,-68
   81a08:	10800017 	ldw	r2,0(r2)
   81a0c:	200b883a 	mov	r5,r4
   81a10:	11800217 	ldw	r6,8(r2)
   81a14:	1009883a 	mov	r4,r2
   81a18:	0087f901 	jmpi	87f90 <_putc_r>

00081a1c <_puts_r>:
   81a1c:	defff604 	addi	sp,sp,-40
   81a20:	dc400815 	stw	r17,32(sp)
   81a24:	2023883a 	mov	r17,r4
   81a28:	2809883a 	mov	r4,r5
   81a2c:	dc000715 	stw	r16,28(sp)
   81a30:	dfc00915 	stw	ra,36(sp)
   81a34:	2821883a 	mov	r16,r5
   81a38:	0081b300 	call	81b30 <strlen>
   81a3c:	10c00044 	addi	r3,r2,1
   81a40:	d8800115 	stw	r2,4(sp)
   81a44:	89400217 	ldw	r5,8(r17)
   81a48:	00800274 	movhi	r2,9
   81a4c:	10b86004 	addi	r2,r2,-7808
   81a50:	d8800215 	stw	r2,8(sp)
   81a54:	00800044 	movi	r2,1
   81a58:	d8800315 	stw	r2,12(sp)
   81a5c:	8809883a 	mov	r4,r17
   81a60:	00800084 	movi	r2,2
   81a64:	d9800404 	addi	r6,sp,16
   81a68:	dc000015 	stw	r16,0(sp)
   81a6c:	d8c00615 	stw	r3,24(sp)
   81a70:	dec00415 	stw	sp,16(sp)
   81a74:	d8800515 	stw	r2,20(sp)
   81a78:	0085ca00 	call	85ca0 <__sfvwrite_r>
   81a7c:	1000061e 	bne	r2,zero,81a98 <_puts_r+0x7c>
   81a80:	00800284 	movi	r2,10
   81a84:	dfc00917 	ldw	ra,36(sp)
   81a88:	dc400817 	ldw	r17,32(sp)
   81a8c:	dc000717 	ldw	r16,28(sp)
   81a90:	dec00a04 	addi	sp,sp,40
   81a94:	f800283a 	ret
   81a98:	00bfffc4 	movi	r2,-1
   81a9c:	003ff906 	br	81a84 <_puts_r+0x68>

00081aa0 <puts>:
   81aa0:	00800274 	movhi	r2,9
   81aa4:	10bfef04 	addi	r2,r2,-68
   81aa8:	200b883a 	mov	r5,r4
   81aac:	11000017 	ldw	r4,0(r2)
   81ab0:	0081a1c1 	jmpi	81a1c <_puts_r>

00081ab4 <srand>:
   81ab4:	00800274 	movhi	r2,9
   81ab8:	10bfef04 	addi	r2,r2,-68
   81abc:	10800017 	ldw	r2,0(r2)
   81ac0:	11002915 	stw	r4,164(r2)
   81ac4:	10002a15 	stw	zero,168(r2)
   81ac8:	f800283a 	ret

00081acc <rand>:
   81acc:	defffe04 	addi	sp,sp,-8
   81ad0:	00800274 	movhi	r2,9
   81ad4:	10bfef04 	addi	r2,r2,-68
   81ad8:	dc000015 	stw	r16,0(sp)
   81adc:	14000017 	ldw	r16,0(r2)
   81ae0:	dfc00115 	stw	ra,4(sp)
   81ae4:	01932574 	movhi	r6,19605
   81ae8:	319fcb44 	addi	r6,r6,32557
   81aec:	81002917 	ldw	r4,164(r16)
   81af0:	81402a17 	ldw	r5,168(r16)
   81af4:	01d614b4 	movhi	r7,22610
   81af8:	39fd0b44 	addi	r7,r7,-3027
   81afc:	0088fbc0 	call	88fbc <__muldi3>
   81b00:	11000044 	addi	r4,r2,1
   81b04:	2085803a 	cmpltu	r2,r4,r2
   81b08:	10c7883a 	add	r3,r2,r3
   81b0c:	00a00034 	movhi	r2,32768
   81b10:	10bfffc4 	addi	r2,r2,-1
   81b14:	1884703a 	and	r2,r3,r2
   81b18:	81002915 	stw	r4,164(r16)
   81b1c:	80c02a15 	stw	r3,168(r16)
   81b20:	dfc00117 	ldw	ra,4(sp)
   81b24:	dc000017 	ldw	r16,0(sp)
   81b28:	dec00204 	addi	sp,sp,8
   81b2c:	f800283a 	ret

00081b30 <strlen>:
   81b30:	208000cc 	andi	r2,r4,3
   81b34:	10001f1e 	bne	r2,zero,81bb4 <strlen+0x84>
   81b38:	20800017 	ldw	r2,0(r4)
   81b3c:	01ffbff4 	movhi	r7,65279
   81b40:	39ffbfc4 	addi	r7,r7,-257
   81b44:	01a02074 	movhi	r6,32897
   81b48:	31a02004 	addi	r6,r6,-32640
   81b4c:	11c7883a 	add	r3,r2,r7
   81b50:	0084303a 	nor	r2,zero,r2
   81b54:	1886703a 	and	r3,r3,r2
   81b58:	1986703a 	and	r3,r3,r6
   81b5c:	2005883a 	mov	r2,r4
   81b60:	1800101e 	bne	r3,zero,81ba4 <strlen+0x74>
   81b64:	10800104 	addi	r2,r2,4
   81b68:	10c00017 	ldw	r3,0(r2)
   81b6c:	19cb883a 	add	r5,r3,r7
   81b70:	00c6303a 	nor	r3,zero,r3
   81b74:	28c6703a 	and	r3,r5,r3
   81b78:	1986703a 	and	r3,r3,r6
   81b7c:	1800091e 	bne	r3,zero,81ba4 <strlen+0x74>
   81b80:	10800104 	addi	r2,r2,4
   81b84:	10c00017 	ldw	r3,0(r2)
   81b88:	19cb883a 	add	r5,r3,r7
   81b8c:	00c6303a 	nor	r3,zero,r3
   81b90:	28c6703a 	and	r3,r5,r3
   81b94:	1986703a 	and	r3,r3,r6
   81b98:	183ff226 	beq	r3,zero,81b64 <strlen+0x34>
   81b9c:	00000106 	br	81ba4 <strlen+0x74>
   81ba0:	10800044 	addi	r2,r2,1
   81ba4:	10c00007 	ldb	r3,0(r2)
   81ba8:	183ffd1e 	bne	r3,zero,81ba0 <strlen+0x70>
   81bac:	1105c83a 	sub	r2,r2,r4
   81bb0:	f800283a 	ret
   81bb4:	2005883a 	mov	r2,r4
   81bb8:	003ffa06 	br	81ba4 <strlen+0x74>

00081bbc <__sprint_r>:
   81bbc:	30800217 	ldw	r2,8(r6)
   81bc0:	defffe04 	addi	sp,sp,-8
   81bc4:	dc000015 	stw	r16,0(sp)
   81bc8:	dfc00115 	stw	ra,4(sp)
   81bcc:	3021883a 	mov	r16,r6
   81bd0:	10000226 	beq	r2,zero,81bdc <__sprint_r+0x20>
   81bd4:	0085ca00 	call	85ca0 <__sfvwrite_r>
   81bd8:	80000215 	stw	zero,8(r16)
   81bdc:	80000115 	stw	zero,4(r16)
   81be0:	dfc00117 	ldw	ra,4(sp)
   81be4:	dc000017 	ldw	r16,0(sp)
   81be8:	dec00204 	addi	sp,sp,8
   81bec:	f800283a 	ret

00081bf0 <___vfprintf_internal_r>:
   81bf0:	defeb904 	addi	sp,sp,-1308
   81bf4:	dc013d15 	stw	r16,1268(sp)
   81bf8:	d9013015 	stw	r4,1216(sp)
   81bfc:	dfc14615 	stw	ra,1304(sp)
   81c00:	df014515 	stw	fp,1300(sp)
   81c04:	ddc14415 	stw	r23,1296(sp)
   81c08:	dd814315 	stw	r22,1292(sp)
   81c0c:	dd414215 	stw	r21,1288(sp)
   81c10:	dd014115 	stw	r20,1284(sp)
   81c14:	dcc14015 	stw	r19,1280(sp)
   81c18:	dc813f15 	stw	r18,1276(sp)
   81c1c:	dc413e15 	stw	r17,1272(sp)
   81c20:	d9412915 	stw	r5,1188(sp)
   81c24:	3021883a 	mov	r16,r6
   81c28:	d9c12d15 	stw	r7,1204(sp)
   81c2c:	008638c0 	call	8638c <_localeconv_r>
   81c30:	10800017 	ldw	r2,0(r2)
   81c34:	d9013017 	ldw	r4,1216(sp)
   81c38:	d8013315 	stw	zero,1228(sp)
   81c3c:	d8813715 	stw	r2,1244(sp)
   81c40:	d8013415 	stw	zero,1232(sp)
   81c44:	20000226 	beq	r4,zero,81c50 <___vfprintf_internal_r+0x60>
   81c48:	20800e17 	ldw	r2,56(r4)
   81c4c:	10019826 	beq	r2,zero,822b0 <___vfprintf_internal_r+0x6c0>
   81c50:	da012917 	ldw	r8,1188(sp)
   81c54:	4080030b 	ldhu	r2,12(r8)
   81c58:	10c0020c 	andi	r3,r2,8
   81c5c:	18ffffcc 	andi	r3,r3,65535
   81c60:	18e0001c 	xori	r3,r3,32768
   81c64:	18e00004 	addi	r3,r3,-32768
   81c68:	18013a26 	beq	r3,zero,82154 <___vfprintf_internal_r+0x564>
   81c6c:	40c00417 	ldw	r3,16(r8)
   81c70:	18013826 	beq	r3,zero,82154 <___vfprintf_internal_r+0x564>
   81c74:	1100068c 	andi	r4,r2,26
   81c78:	00c00284 	movi	r3,10
   81c7c:	20c13e26 	beq	r4,r3,82178 <___vfprintf_internal_r+0x588>
   81c80:	da010dc4 	addi	r8,sp,1079
   81c84:	d8800404 	addi	r2,sp,16
   81c88:	da012615 	stw	r8,1176(sp)
   81c8c:	d8811b15 	stw	r2,1132(sp)
   81c90:	1013883a 	mov	r9,r2
   81c94:	d8812617 	ldw	r2,1176(sp)
   81c98:	da010e04 	addi	r8,sp,1080
   81c9c:	dc413017 	ldw	r17,1216(sp)
   81ca0:	da012715 	stw	r8,1180(sp)
   81ca4:	4091c83a 	sub	r8,r8,r2
   81ca8:	d8011d15 	stw	zero,1140(sp)
   81cac:	d8011c15 	stw	zero,1136(sp)
   81cb0:	802b883a 	mov	r21,r16
   81cb4:	d8013215 	stw	zero,1224(sp)
   81cb8:	d8013615 	stw	zero,1240(sp)
   81cbc:	d8013515 	stw	zero,1236(sp)
   81cc0:	d8012c15 	stw	zero,1200(sp)
   81cc4:	da013915 	stw	r8,1252(sp)
   81cc8:	a8800007 	ldb	r2,0(r21)
   81ccc:	1002ec26 	beq	r2,zero,82880 <___vfprintf_internal_r+0xc90>
   81cd0:	00c00944 	movi	r3,37
   81cd4:	a825883a 	mov	r18,r21
   81cd8:	10c0021e 	bne	r2,r3,81ce4 <___vfprintf_internal_r+0xf4>
   81cdc:	00001406 	br	81d30 <___vfprintf_internal_r+0x140>
   81ce0:	10c00326 	beq	r2,r3,81cf0 <___vfprintf_internal_r+0x100>
   81ce4:	94800044 	addi	r18,r18,1
   81ce8:	90800007 	ldb	r2,0(r18)
   81cec:	103ffc1e 	bne	r2,zero,81ce0 <___vfprintf_internal_r+0xf0>
   81cf0:	9561c83a 	sub	r16,r18,r21
   81cf4:	80000e26 	beq	r16,zero,81d30 <___vfprintf_internal_r+0x140>
   81cf8:	da011d17 	ldw	r8,1140(sp)
   81cfc:	d8c11c17 	ldw	r3,1136(sp)
   81d00:	4d400015 	stw	r21,0(r9)
   81d04:	4c000115 	stw	r16,4(r9)
   81d08:	4411883a 	add	r8,r8,r16
   81d0c:	18c00044 	addi	r3,r3,1
   81d10:	da011d15 	stw	r8,1140(sp)
   81d14:	d8c11c15 	stw	r3,1136(sp)
   81d18:	008001c4 	movi	r2,7
   81d1c:	10c15d16 	blt	r2,r3,82294 <___vfprintf_internal_r+0x6a4>
   81d20:	4a400204 	addi	r9,r9,8
   81d24:	d8812c17 	ldw	r2,1200(sp)
   81d28:	1405883a 	add	r2,r2,r16
   81d2c:	d8812c15 	stw	r2,1200(sp)
   81d30:	90800007 	ldb	r2,0(r18)
   81d34:	10013b26 	beq	r2,zero,82224 <___vfprintf_internal_r+0x634>
   81d38:	95400044 	addi	r21,r18,1
   81d3c:	94800047 	ldb	r18,1(r18)
   81d40:	d8012585 	stb	zero,1174(sp)
   81d44:	073fffc4 	movi	fp,-1
   81d48:	d8012e15 	stw	zero,1208(sp)
   81d4c:	0021883a 	mov	r16,zero
   81d50:	00c01604 	movi	r3,88
   81d54:	01400244 	movi	r5,9
   81d58:	02800a84 	movi	r10,42
   81d5c:	01c01b04 	movi	r7,108
   81d60:	01800ac4 	movi	r6,43
   81d64:	02c00804 	movi	r11,32
   81d68:	ad400044 	addi	r21,r21,1
   81d6c:	90bff804 	addi	r2,r18,-32
   81d70:	1880092e 	bgeu	r3,r2,81d98 <___vfprintf_internal_r+0x1a8>
   81d74:	90012b26 	beq	r18,zero,82224 <___vfprintf_internal_r+0x634>
   81d78:	00c00044 	movi	r3,1
   81d7c:	d8c12815 	stw	r3,1184(sp)
   81d80:	dc810405 	stb	r18,1040(sp)
   81d84:	d8012585 	stb	zero,1174(sp)
   81d88:	d8c12b15 	stw	r3,1196(sp)
   81d8c:	dcc10404 	addi	r19,sp,1040
   81d90:	d8013115 	stw	zero,1220(sp)
   81d94:	00008806 	br	81fb8 <___vfprintf_internal_r+0x3c8>
   81d98:	1085883a 	add	r2,r2,r2
   81d9c:	1085883a 	add	r2,r2,r2
   81da0:	01000234 	movhi	r4,8
   81da4:	21076d04 	addi	r4,r4,7604
   81da8:	1105883a 	add	r2,r2,r4
   81dac:	10800017 	ldw	r2,0(r2)
   81db0:	1000683a 	jmp	r2
   81db4:	00082368 	cmpgeui	zero,zero,8333
   81db8:	00081d74 	movhi	zero,8309
   81dbc:	00081d74 	movhi	zero,8309
   81dc0:	0008237c 	xorhi	zero,zero,8333
   81dc4:	00081d74 	movhi	zero,8309
   81dc8:	00081d74 	movhi	zero,8309
   81dcc:	00081d74 	movhi	zero,8309
   81dd0:	00081d74 	movhi	zero,8309
   81dd4:	00081d74 	movhi	zero,8309
   81dd8:	00081d74 	movhi	zero,8309
   81ddc:	00082464 	muli	zero,zero,8337
   81de0:	00082320 	cmpeqi	zero,zero,8332
   81de4:	00081d74 	movhi	zero,8309
   81de8:	00082148 	cmpgei	zero,zero,8325
   81dec:	0008232c 	andhi	zero,zero,8332
   81df0:	00081d74 	movhi	zero,8309
   81df4:	00082388 	cmpgei	zero,zero,8334
   81df8:	00082488 	cmpgei	zero,zero,8338
   81dfc:	00082488 	cmpgei	zero,zero,8338
   81e00:	00082488 	cmpgei	zero,zero,8338
   81e04:	00082488 	cmpgei	zero,zero,8338
   81e08:	00082488 	cmpgei	zero,zero,8338
   81e0c:	00082488 	cmpgei	zero,zero,8338
   81e10:	00082488 	cmpgei	zero,zero,8338
   81e14:	00082488 	cmpgei	zero,zero,8338
   81e18:	00082488 	cmpgei	zero,zero,8338
   81e1c:	00081d74 	movhi	zero,8309
   81e20:	00081d74 	movhi	zero,8309
   81e24:	00081d74 	movhi	zero,8309
   81e28:	00081d74 	movhi	zero,8309
   81e2c:	00081d74 	movhi	zero,8309
   81e30:	00081d74 	movhi	zero,8309
   81e34:	00081d74 	movhi	zero,8309
   81e38:	00081d74 	movhi	zero,8309
   81e3c:	00081d74 	movhi	zero,8309
   81e40:	00081d74 	movhi	zero,8309
   81e44:	000820e4 	muli	zero,zero,8323
   81e48:	000824b0 	cmpltui	zero,zero,8338
   81e4c:	00081d74 	movhi	zero,8309
   81e50:	000824b0 	cmpltui	zero,zero,8338
   81e54:	00081d74 	movhi	zero,8309
   81e58:	00081d74 	movhi	zero,8309
   81e5c:	00081d74 	movhi	zero,8309
   81e60:	00081d74 	movhi	zero,8309
   81e64:	00082620 	cmpeqi	zero,zero,8344
   81e68:	00081d74 	movhi	zero,8309
   81e6c:	00081d74 	movhi	zero,8309
   81e70:	000820ac 	andhi	zero,zero,8322
   81e74:	00081d74 	movhi	zero,8309
   81e78:	00081d74 	movhi	zero,8309
   81e7c:	00081d74 	movhi	zero,8309
   81e80:	00081d74 	movhi	zero,8309
   81e84:	00081d74 	movhi	zero,8309
   81e88:	00081f18 	cmpnei	zero,zero,8316
   81e8c:	00081d74 	movhi	zero,8309
   81e90:	00081d74 	movhi	zero,8309
   81e94:	00082394 	movui	zero,8334
   81e98:	00081d74 	movhi	zero,8309
   81e9c:	00081d74 	movhi	zero,8309
   81ea0:	00081d74 	movhi	zero,8309
   81ea4:	00081d74 	movhi	zero,8309
   81ea8:	00081d74 	movhi	zero,8309
   81eac:	00081d74 	movhi	zero,8309
   81eb0:	00081d74 	movhi	zero,8309
   81eb4:	00081d74 	movhi	zero,8309
   81eb8:	00081d74 	movhi	zero,8309
   81ebc:	00081d74 	movhi	zero,8309
   81ec0:	00082408 	cmpgei	zero,zero,8336
   81ec4:	000820e8 	cmpgeui	zero,zero,8323
   81ec8:	000824b0 	cmpltui	zero,zero,8338
   81ecc:	000824b0 	cmpltui	zero,zero,8338
   81ed0:	000824b0 	cmpltui	zero,zero,8338
   81ed4:	000823e8 	cmpgeui	zero,zero,8335
   81ed8:	000820e8 	cmpgeui	zero,zero,8323
   81edc:	00081d74 	movhi	zero,8309
   81ee0:	00081d74 	movhi	zero,8309
   81ee4:	000823f4 	movhi	zero,8335
   81ee8:	00081d74 	movhi	zero,8309
   81eec:	00082438 	rdprs	zero,zero,8336
   81ef0:	000820b0 	cmpltui	zero,zero,8322
   81ef4:	00082538 	rdprs	zero,zero,8340
   81ef8:	00082584 	movi	zero,8342
   81efc:	00081d74 	movhi	zero,8309
   81f00:	00082590 	cmplti	zero,zero,8342
   81f04:	00081d74 	movhi	zero,8309
   81f08:	00081f1c 	xori	zero,zero,8316
   81f0c:	00081d74 	movhi	zero,8309
   81f10:	00081d74 	movhi	zero,8309
   81f14:	000825ec 	andhi	zero,zero,8343
   81f18:	84000414 	ori	r16,r16,16
   81f1c:	8080080c 	andi	r2,r16,32
   81f20:	1000f51e 	bne	r2,zero,822f8 <___vfprintf_internal_r+0x708>
   81f24:	8080040c 	andi	r2,r16,16
   81f28:	10042c26 	beq	r2,zero,82fdc <___vfprintf_internal_r+0x13ec>
   81f2c:	da012d17 	ldw	r8,1204(sp)
   81f30:	002d883a 	mov	r22,zero
   81f34:	00c00044 	movi	r3,1
   81f38:	45c00017 	ldw	r23,0(r8)
   81f3c:	42000104 	addi	r8,r8,4
   81f40:	da012d15 	stw	r8,1204(sp)
   81f44:	b805883a 	mov	r2,r23
   81f48:	d8012585 	stb	zero,1174(sp)
   81f4c:	e0000216 	blt	fp,zero,81f58 <___vfprintf_internal_r+0x368>
   81f50:	013fdfc4 	movi	r4,-129
   81f54:	8120703a 	and	r16,r16,r4
   81f58:	1002671e 	bne	r2,zero,828f8 <___vfprintf_internal_r+0xd08>
   81f5c:	e002661e 	bne	fp,zero,828f8 <___vfprintf_internal_r+0xd08>
   81f60:	18c03fcc 	andi	r3,r3,255
   81f64:	1803561e 	bne	r3,zero,82cc0 <___vfprintf_internal_r+0x10d0>
   81f68:	8080004c 	andi	r2,r16,1
   81f6c:	10035426 	beq	r2,zero,82cc0 <___vfprintf_internal_r+0x10d0>
   81f70:	da013917 	ldw	r8,1252(sp)
   81f74:	00800c04 	movi	r2,48
   81f78:	d8810dc5 	stb	r2,1079(sp)
   81f7c:	da012b15 	stw	r8,1196(sp)
   81f80:	dcc10dc4 	addi	r19,sp,1079
   81f84:	d8812b17 	ldw	r2,1196(sp)
   81f88:	d8812815 	stw	r2,1184(sp)
   81f8c:	1700010e 	bge	r2,fp,81f94 <___vfprintf_internal_r+0x3a4>
   81f90:	df012815 	stw	fp,1184(sp)
   81f94:	d8812583 	ldbu	r2,1174(sp)
   81f98:	df013115 	stw	fp,1220(sp)
   81f9c:	10803fcc 	andi	r2,r2,255
   81fa0:	1080201c 	xori	r2,r2,128
   81fa4:	10bfe004 	addi	r2,r2,-128
   81fa8:	10000326 	beq	r2,zero,81fb8 <___vfprintf_internal_r+0x3c8>
   81fac:	da012817 	ldw	r8,1184(sp)
   81fb0:	42000044 	addi	r8,r8,1
   81fb4:	da012815 	stw	r8,1184(sp)
   81fb8:	80c0008c 	andi	r3,r16,2
   81fbc:	d8c12a15 	stw	r3,1192(sp)
   81fc0:	18000326 	beq	r3,zero,81fd0 <___vfprintf_internal_r+0x3e0>
   81fc4:	da012817 	ldw	r8,1184(sp)
   81fc8:	42000084 	addi	r8,r8,2
   81fcc:	da012815 	stw	r8,1184(sp)
   81fd0:	80c0210c 	andi	r3,r16,132
   81fd4:	d8c12f15 	stw	r3,1212(sp)
   81fd8:	1801941e 	bne	r3,zero,8262c <___vfprintf_internal_r+0xa3c>
   81fdc:	da012e17 	ldw	r8,1208(sp)
   81fe0:	d8c12817 	ldw	r3,1184(sp)
   81fe4:	40edc83a 	sub	r22,r8,r3
   81fe8:	0581900e 	bge	zero,r22,8262c <___vfprintf_internal_r+0xa3c>
   81fec:	02800404 	movi	r10,16
   81ff0:	da011d17 	ldw	r8,1140(sp)
   81ff4:	d8c11c17 	ldw	r3,1136(sp)
   81ff8:	05c00274 	movhi	r23,9
   81ffc:	bdf87184 	addi	r23,r23,-7738
   82000:	5580200e 	bge	r10,r22,82084 <___vfprintf_internal_r+0x494>
   82004:	dc813815 	stw	r18,1248(sp)
   82008:	5039883a 	mov	fp,r10
   8200c:	b825883a 	mov	r18,r23
   82010:	050001c4 	movi	r20,7
   82014:	b02f883a 	mov	r23,r22
   82018:	802d883a 	mov	r22,r16
   8201c:	dc012917 	ldw	r16,1188(sp)
   82020:	00000306 	br	82030 <___vfprintf_internal_r+0x440>
   82024:	bdfffc04 	addi	r23,r23,-16
   82028:	4a400204 	addi	r9,r9,8
   8202c:	e5c0110e 	bge	fp,r23,82074 <___vfprintf_internal_r+0x484>
   82030:	4c800015 	stw	r18,0(r9)
   82034:	4f000115 	stw	fp,4(r9)
   82038:	42000404 	addi	r8,r8,16
   8203c:	18c00044 	addi	r3,r3,1
   82040:	da011d15 	stw	r8,1140(sp)
   82044:	d8c11c15 	stw	r3,1136(sp)
   82048:	a0fff60e 	bge	r20,r3,82024 <___vfprintf_internal_r+0x434>
   8204c:	8809883a 	mov	r4,r17
   82050:	800b883a 	mov	r5,r16
   82054:	d9811b04 	addi	r6,sp,1132
   82058:	0081bbc0 	call	81bbc <__sprint_r>
   8205c:	1000771e 	bne	r2,zero,8223c <___vfprintf_internal_r+0x64c>
   82060:	bdfffc04 	addi	r23,r23,-16
   82064:	da011d17 	ldw	r8,1140(sp)
   82068:	d8c11c17 	ldw	r3,1136(sp)
   8206c:	da400404 	addi	r9,sp,16
   82070:	e5ffef16 	blt	fp,r23,82030 <___vfprintf_internal_r+0x440>
   82074:	b021883a 	mov	r16,r22
   82078:	b82d883a 	mov	r22,r23
   8207c:	902f883a 	mov	r23,r18
   82080:	dc813817 	ldw	r18,1248(sp)
   82084:	4dc00015 	stw	r23,0(r9)
   82088:	4d800115 	stw	r22,4(r9)
   8208c:	4591883a 	add	r8,r8,r22
   82090:	18c00044 	addi	r3,r3,1
   82094:	da011d15 	stw	r8,1140(sp)
   82098:	d8c11c15 	stw	r3,1136(sp)
   8209c:	008001c4 	movi	r2,7
   820a0:	10c36d16 	blt	r2,r3,82e58 <___vfprintf_internal_r+0x1268>
   820a4:	4a400204 	addi	r9,r9,8
   820a8:	00016206 	br	82634 <___vfprintf_internal_r+0xa44>
   820ac:	84000414 	ori	r16,r16,16
   820b0:	8080080c 	andi	r2,r16,32
   820b4:	1000801e 	bne	r2,zero,822b8 <___vfprintf_internal_r+0x6c8>
   820b8:	8080040c 	andi	r2,r16,16
   820bc:	1003da26 	beq	r2,zero,83028 <___vfprintf_internal_r+0x1438>
   820c0:	d8c12d17 	ldw	r3,1204(sp)
   820c4:	002d883a 	mov	r22,zero
   820c8:	1dc00017 	ldw	r23,0(r3)
   820cc:	18c00104 	addi	r3,r3,4
   820d0:	d8c12d15 	stw	r3,1204(sp)
   820d4:	b805883a 	mov	r2,r23
   820d8:	0007883a 	mov	r3,zero
   820dc:	d8012585 	stb	zero,1174(sp)
   820e0:	003f9a06 	br	81f4c <___vfprintf_internal_r+0x35c>
   820e4:	84000414 	ori	r16,r16,16
   820e8:	8080080c 	andi	r2,r16,32
   820ec:	10007b1e 	bne	r2,zero,822dc <___vfprintf_internal_r+0x6ec>
   820f0:	8080040c 	andi	r2,r16,16
   820f4:	1003ed26 	beq	r2,zero,830ac <___vfprintf_internal_r+0x14bc>
   820f8:	d9012d17 	ldw	r4,1204(sp)
   820fc:	25c00017 	ldw	r23,0(r4)
   82100:	21000104 	addi	r4,r4,4
   82104:	d9012d15 	stw	r4,1204(sp)
   82108:	b82dd7fa 	srai	r22,r23,31
   8210c:	b005883a 	mov	r2,r22
   82110:	1003230e 	bge	r2,zero,82da0 <___vfprintf_internal_r+0x11b0>
   82114:	05efc83a 	sub	r23,zero,r23
   82118:	b804c03a 	cmpne	r2,r23,zero
   8211c:	05adc83a 	sub	r22,zero,r22
   82120:	b0adc83a 	sub	r22,r22,r2
   82124:	00800b44 	movi	r2,45
   82128:	d8812585 	stb	r2,1174(sp)
   8212c:	00c00044 	movi	r3,1
   82130:	bd84b03a 	or	r2,r23,r22
   82134:	003f8506 	br	81f4c <___vfprintf_internal_r+0x35c>
   82138:	da012e17 	ldw	r8,1208(sp)
   8213c:	d8812d15 	stw	r2,1204(sp)
   82140:	0211c83a 	sub	r8,zero,r8
   82144:	da012e15 	stw	r8,1208(sp)
   82148:	84000114 	ori	r16,r16,4
   8214c:	ac800007 	ldb	r18,0(r21)
   82150:	003f0506 	br	81d68 <___vfprintf_internal_r+0x178>
   82154:	d9013017 	ldw	r4,1216(sp)
   82158:	d9412917 	ldw	r5,1188(sp)
   8215c:	0083a0c0 	call	83a0c <__swsetup_r>
   82160:	10003d1e 	bne	r2,zero,82258 <___vfprintf_internal_r+0x668>
   82164:	d8c12917 	ldw	r3,1188(sp)
   82168:	1880030b 	ldhu	r2,12(r3)
   8216c:	00c00284 	movi	r3,10
   82170:	1100068c 	andi	r4,r2,26
   82174:	20fec21e 	bne	r4,r3,81c80 <___vfprintf_internal_r+0x90>
   82178:	d9012917 	ldw	r4,1188(sp)
   8217c:	20c0038b 	ldhu	r3,14(r4)
   82180:	193fffcc 	andi	r4,r3,65535
   82184:	2120001c 	xori	r4,r4,32768
   82188:	21200004 	addi	r4,r4,-32768
   8218c:	203ebc16 	blt	r4,zero,81c80 <___vfprintf_internal_r+0x90>
   82190:	da012917 	ldw	r8,1188(sp)
   82194:	d9013017 	ldw	r4,1216(sp)
   82198:	d9c12d17 	ldw	r7,1204(sp)
   8219c:	42800717 	ldw	r10,28(r8)
   821a0:	42400917 	ldw	r9,36(r8)
   821a4:	10bfff4c 	andi	r2,r2,65533
   821a8:	02010004 	movi	r8,1024
   821ac:	d881070d 	sth	r2,1052(sp)
   821b0:	d9410404 	addi	r5,sp,1040
   821b4:	d8800404 	addi	r2,sp,16
   821b8:	800d883a 	mov	r6,r16
   821bc:	d8c1078d 	sth	r3,1054(sp)
   821c0:	da810b15 	stw	r10,1068(sp)
   821c4:	da410d15 	stw	r9,1076(sp)
   821c8:	d8810415 	stw	r2,1040(sp)
   821cc:	d8810815 	stw	r2,1056(sp)
   821d0:	da010615 	stw	r8,1048(sp)
   821d4:	da010915 	stw	r8,1060(sp)
   821d8:	d8010a15 	stw	zero,1064(sp)
   821dc:	0081bf00 	call	81bf0 <___vfprintf_internal_r>
   821e0:	d8812c15 	stw	r2,1200(sp)
   821e4:	10000416 	blt	r2,zero,821f8 <___vfprintf_internal_r+0x608>
   821e8:	d9013017 	ldw	r4,1216(sp)
   821ec:	d9410404 	addi	r5,sp,1040
   821f0:	00853a40 	call	853a4 <_fflush_r>
   821f4:	1005d81e 	bne	r2,zero,83958 <___vfprintf_internal_r+0x1d68>
   821f8:	d881070b 	ldhu	r2,1052(sp)
   821fc:	1080100c 	andi	r2,r2,64
   82200:	10bfffcc 	andi	r2,r2,65535
   82204:	10a0001c 	xori	r2,r2,32768
   82208:	10a00004 	addi	r2,r2,-32768
   8220c:	10001426 	beq	r2,zero,82260 <___vfprintf_internal_r+0x670>
   82210:	d8c12917 	ldw	r3,1188(sp)
   82214:	1880030b 	ldhu	r2,12(r3)
   82218:	10801014 	ori	r2,r2,64
   8221c:	1880030d 	sth	r2,12(r3)
   82220:	00000f06 	br	82260 <___vfprintf_internal_r+0x670>
   82224:	d8811d17 	ldw	r2,1140(sp)
   82228:	10000426 	beq	r2,zero,8223c <___vfprintf_internal_r+0x64c>
   8222c:	d9013017 	ldw	r4,1216(sp)
   82230:	d9412917 	ldw	r5,1188(sp)
   82234:	d9811b04 	addi	r6,sp,1132
   82238:	0081bbc0 	call	81bbc <__sprint_r>
   8223c:	d8c12917 	ldw	r3,1188(sp)
   82240:	1880030b 	ldhu	r2,12(r3)
   82244:	1080100c 	andi	r2,r2,64
   82248:	10bfffcc 	andi	r2,r2,65535
   8224c:	10a0001c 	xori	r2,r2,32768
   82250:	10a00004 	addi	r2,r2,-32768
   82254:	10000226 	beq	r2,zero,82260 <___vfprintf_internal_r+0x670>
   82258:	00bfffc4 	movi	r2,-1
   8225c:	d8812c15 	stw	r2,1200(sp)
   82260:	d8812c17 	ldw	r2,1200(sp)
   82264:	dfc14617 	ldw	ra,1304(sp)
   82268:	df014517 	ldw	fp,1300(sp)
   8226c:	ddc14417 	ldw	r23,1296(sp)
   82270:	dd814317 	ldw	r22,1292(sp)
   82274:	dd414217 	ldw	r21,1288(sp)
   82278:	dd014117 	ldw	r20,1284(sp)
   8227c:	dcc14017 	ldw	r19,1280(sp)
   82280:	dc813f17 	ldw	r18,1276(sp)
   82284:	dc413e17 	ldw	r17,1272(sp)
   82288:	dc013d17 	ldw	r16,1268(sp)
   8228c:	dec14704 	addi	sp,sp,1308
   82290:	f800283a 	ret
   82294:	d9412917 	ldw	r5,1188(sp)
   82298:	8809883a 	mov	r4,r17
   8229c:	d9811b04 	addi	r6,sp,1132
   822a0:	0081bbc0 	call	81bbc <__sprint_r>
   822a4:	103fe51e 	bne	r2,zero,8223c <___vfprintf_internal_r+0x64c>
   822a8:	da400404 	addi	r9,sp,16
   822ac:	003e9d06 	br	81d24 <___vfprintf_internal_r+0x134>
   822b0:	008564c0 	call	8564c <__sinit>
   822b4:	003e6606 	br	81c50 <___vfprintf_internal_r+0x60>
   822b8:	d8812d17 	ldw	r2,1204(sp)
   822bc:	0007883a 	mov	r3,zero
   822c0:	15c00017 	ldw	r23,0(r2)
   822c4:	15800117 	ldw	r22,4(r2)
   822c8:	10800204 	addi	r2,r2,8
   822cc:	d8812d15 	stw	r2,1204(sp)
   822d0:	d8012585 	stb	zero,1174(sp)
   822d4:	bd84b03a 	or	r2,r23,r22
   822d8:	003f1c06 	br	81f4c <___vfprintf_internal_r+0x35c>
   822dc:	d8c12d17 	ldw	r3,1204(sp)
   822e0:	18800117 	ldw	r2,4(r3)
   822e4:	1dc00017 	ldw	r23,0(r3)
   822e8:	18c00204 	addi	r3,r3,8
   822ec:	d8c12d15 	stw	r3,1204(sp)
   822f0:	102d883a 	mov	r22,r2
   822f4:	003f8606 	br	82110 <___vfprintf_internal_r+0x520>
   822f8:	d8c12d17 	ldw	r3,1204(sp)
   822fc:	d9012d17 	ldw	r4,1204(sp)
   82300:	1dc00017 	ldw	r23,0(r3)
   82304:	1d800117 	ldw	r22,4(r3)
   82308:	21000204 	addi	r4,r4,8
   8230c:	00c00044 	movi	r3,1
   82310:	d9012d15 	stw	r4,1204(sp)
   82314:	bd84b03a 	or	r2,r23,r22
   82318:	d8012585 	stb	zero,1174(sp)
   8231c:	003f0b06 	br	81f4c <___vfprintf_internal_r+0x35c>
   82320:	d9812585 	stb	r6,1174(sp)
   82324:	ac800007 	ldb	r18,0(r21)
   82328:	003e8f06 	br	81d68 <___vfprintf_internal_r+0x178>
   8232c:	ac800007 	ldb	r18,0(r21)
   82330:	a9000044 	addi	r4,r21,1
   82334:	92857d26 	beq	r18,r10,8392c <___vfprintf_internal_r+0x1d3c>
   82338:	90bff404 	addi	r2,r18,-48
   8233c:	0039883a 	mov	fp,zero
   82340:	28800736 	bltu	r5,r2,82360 <___vfprintf_internal_r+0x770>
   82344:	24800007 	ldb	r18,0(r4)
   82348:	e70002a4 	muli	fp,fp,10
   8234c:	21000044 	addi	r4,r4,1
   82350:	1739883a 	add	fp,r2,fp
   82354:	90bff404 	addi	r2,r18,-48
   82358:	28bffa2e 	bgeu	r5,r2,82344 <___vfprintf_internal_r+0x754>
   8235c:	e0044216 	blt	fp,zero,83468 <___vfprintf_internal_r+0x1878>
   82360:	202b883a 	mov	r21,r4
   82364:	003e8106 	br	81d6c <___vfprintf_internal_r+0x17c>
   82368:	d8812587 	ldb	r2,1174(sp)
   8236c:	1003581e 	bne	r2,zero,830d0 <___vfprintf_internal_r+0x14e0>
   82370:	dac12585 	stb	r11,1174(sp)
   82374:	ac800007 	ldb	r18,0(r21)
   82378:	003e7b06 	br	81d68 <___vfprintf_internal_r+0x178>
   8237c:	84000054 	ori	r16,r16,1
   82380:	ac800007 	ldb	r18,0(r21)
   82384:	003e7806 	br	81d68 <___vfprintf_internal_r+0x178>
   82388:	84002014 	ori	r16,r16,128
   8238c:	ac800007 	ldb	r18,0(r21)
   82390:	003e7506 	br	81d68 <___vfprintf_internal_r+0x178>
   82394:	02000274 	movhi	r8,9
   82398:	42386504 	addi	r8,r8,-7788
   8239c:	da013615 	stw	r8,1240(sp)
   823a0:	8080080c 	andi	r2,r16,32
   823a4:	10009626 	beq	r2,zero,82600 <___vfprintf_internal_r+0xa10>
   823a8:	d8812d17 	ldw	r2,1204(sp)
   823ac:	15c00017 	ldw	r23,0(r2)
   823b0:	15800117 	ldw	r22,4(r2)
   823b4:	10800204 	addi	r2,r2,8
   823b8:	d8812d15 	stw	r2,1204(sp)
   823bc:	8080004c 	andi	r2,r16,1
   823c0:	1002ae26 	beq	r2,zero,82e7c <___vfprintf_internal_r+0x128c>
   823c4:	bd84b03a 	or	r2,r23,r22
   823c8:	10032a26 	beq	r2,zero,83074 <___vfprintf_internal_r+0x1484>
   823cc:	00c00c04 	movi	r3,48
   823d0:	d8c12505 	stb	r3,1172(sp)
   823d4:	dc812545 	stb	r18,1173(sp)
   823d8:	84000094 	ori	r16,r16,2
   823dc:	00c00084 	movi	r3,2
   823e0:	d8012585 	stb	zero,1174(sp)
   823e4:	003ed906 	br	81f4c <___vfprintf_internal_r+0x35c>
   823e8:	84001014 	ori	r16,r16,64
   823ec:	ac800007 	ldb	r18,0(r21)
   823f0:	003e5d06 	br	81d68 <___vfprintf_internal_r+0x178>
   823f4:	ac800007 	ldb	r18,0(r21)
   823f8:	a805883a 	mov	r2,r21
   823fc:	91c43226 	beq	r18,r7,834c8 <___vfprintf_internal_r+0x18d8>
   82400:	84000414 	ori	r16,r16,16
   82404:	003e5806 	br	81d68 <___vfprintf_internal_r+0x178>
   82408:	d8c12d17 	ldw	r3,1204(sp)
   8240c:	02000044 	movi	r8,1
   82410:	da012815 	stw	r8,1184(sp)
   82414:	18800017 	ldw	r2,0(r3)
   82418:	18c00104 	addi	r3,r3,4
   8241c:	d8012585 	stb	zero,1174(sp)
   82420:	d8810405 	stb	r2,1040(sp)
   82424:	d8c12d15 	stw	r3,1204(sp)
   82428:	da012b15 	stw	r8,1196(sp)
   8242c:	dcc10404 	addi	r19,sp,1040
   82430:	d8013115 	stw	zero,1220(sp)
   82434:	003ee006 	br	81fb8 <___vfprintf_internal_r+0x3c8>
   82438:	8080080c 	andi	r2,r16,32
   8243c:	10031026 	beq	r2,zero,83080 <___vfprintf_internal_r+0x1490>
   82440:	d9012d17 	ldw	r4,1204(sp)
   82444:	da012c17 	ldw	r8,1200(sp)
   82448:	20800017 	ldw	r2,0(r4)
   8244c:	4007d7fa 	srai	r3,r8,31
   82450:	21000104 	addi	r4,r4,4
   82454:	d9012d15 	stw	r4,1204(sp)
   82458:	12000015 	stw	r8,0(r2)
   8245c:	10c00115 	stw	r3,4(r2)
   82460:	003e1906 	br	81cc8 <___vfprintf_internal_r+0xd8>
   82464:	da012d17 	ldw	r8,1204(sp)
   82468:	d9012d17 	ldw	r4,1204(sp)
   8246c:	42000017 	ldw	r8,0(r8)
   82470:	20800104 	addi	r2,r4,4
   82474:	da012e15 	stw	r8,1208(sp)
   82478:	403f2f16 	blt	r8,zero,82138 <___vfprintf_internal_r+0x548>
   8247c:	d8812d15 	stw	r2,1204(sp)
   82480:	ac800007 	ldb	r18,0(r21)
   82484:	003e3806 	br	81d68 <___vfprintf_internal_r+0x178>
   82488:	0009883a 	mov	r4,zero
   8248c:	90bff404 	addi	r2,r18,-48
   82490:	ac800007 	ldb	r18,0(r21)
   82494:	210002a4 	muli	r4,r4,10
   82498:	ad400044 	addi	r21,r21,1
   8249c:	2089883a 	add	r4,r4,r2
   824a0:	90bff404 	addi	r2,r18,-48
   824a4:	28bffa2e 	bgeu	r5,r2,82490 <___vfprintf_internal_r+0x8a0>
   824a8:	d9012e15 	stw	r4,1208(sp)
   824ac:	003e2f06 	br	81d6c <___vfprintf_internal_r+0x17c>
   824b0:	8080020c 	andi	r2,r16,8
   824b4:	1002d426 	beq	r2,zero,83008 <___vfprintf_internal_r+0x1418>
   824b8:	d8c12d17 	ldw	r3,1204(sp)
   824bc:	1d800017 	ldw	r22,0(r3)
   824c0:	1d000117 	ldw	r20,4(r3)
   824c4:	18c00204 	addi	r3,r3,8
   824c8:	d8c12d15 	stw	r3,1204(sp)
   824cc:	dd813315 	stw	r22,1228(sp)
   824d0:	dd013415 	stw	r20,1232(sp)
   824d4:	b009883a 	mov	r4,r22
   824d8:	a00b883a 	mov	r5,r20
   824dc:	da413c15 	stw	r9,1264(sp)
   824e0:	00887380 	call	88738 <__isinfd>
   824e4:	da413c17 	ldw	r9,1264(sp)
   824e8:	b009883a 	mov	r4,r22
   824ec:	a00b883a 	mov	r5,r20
   824f0:	10035726 	beq	r2,zero,83250 <___vfprintf_internal_r+0x1660>
   824f4:	000d883a 	mov	r6,zero
   824f8:	000f883a 	mov	r7,zero
   824fc:	008a5900 	call	8a590 <__ltdf2>
   82500:	da413c17 	ldw	r9,1264(sp)
   82504:	10041b16 	blt	r2,zero,83574 <___vfprintf_internal_r+0x1984>
   82508:	d8812583 	ldbu	r2,1174(sp)
   8250c:	00c011c4 	movi	r3,71
   82510:	1c830b16 	blt	r3,r18,83140 <___vfprintf_internal_r+0x1550>
   82514:	04c00274 	movhi	r19,9
   82518:	9cf86104 	addi	r19,r19,-7804
   8251c:	020000c4 	movi	r8,3
   82520:	00ffdfc4 	movi	r3,-129
   82524:	da012815 	stw	r8,1184(sp)
   82528:	80e0703a 	and	r16,r16,r3
   8252c:	da012b15 	stw	r8,1196(sp)
   82530:	d8013115 	stw	zero,1220(sp)
   82534:	003e9906 	br	81f9c <___vfprintf_internal_r+0x3ac>
   82538:	d8812d17 	ldw	r2,1204(sp)
   8253c:	d8c12d17 	ldw	r3,1204(sp)
   82540:	02000274 	movhi	r8,9
   82544:	42386a04 	addi	r8,r8,-7768
   82548:	15c00017 	ldw	r23,0(r2)
   8254c:	00800c04 	movi	r2,48
   82550:	18c00104 	addi	r3,r3,4
   82554:	d8812505 	stb	r2,1172(sp)
   82558:	00801e04 	movi	r2,120
   8255c:	d8812545 	stb	r2,1173(sp)
   82560:	d8c12d15 	stw	r3,1204(sp)
   82564:	002d883a 	mov	r22,zero
   82568:	84000094 	ori	r16,r16,2
   8256c:	da013615 	stw	r8,1240(sp)
   82570:	00c00084 	movi	r3,2
   82574:	04801e04 	movi	r18,120
   82578:	b805883a 	mov	r2,r23
   8257c:	d8012585 	stb	zero,1174(sp)
   82580:	003e7206 	br	81f4c <___vfprintf_internal_r+0x35c>
   82584:	84000814 	ori	r16,r16,32
   82588:	ac800007 	ldb	r18,0(r21)
   8258c:	003df606 	br	81d68 <___vfprintf_internal_r+0x178>
   82590:	d8812d17 	ldw	r2,1204(sp)
   82594:	d8012585 	stb	zero,1174(sp)
   82598:	14c00017 	ldw	r19,0(r2)
   8259c:	15c00104 	addi	r23,r2,4
   825a0:	98040126 	beq	r19,zero,835a8 <___vfprintf_internal_r+0x19b8>
   825a4:	9809883a 	mov	r4,r19
   825a8:	e003dd16 	blt	fp,zero,83520 <___vfprintf_internal_r+0x1930>
   825ac:	000b883a 	mov	r5,zero
   825b0:	e00d883a 	mov	r6,fp
   825b4:	da413c15 	stw	r9,1264(sp)
   825b8:	0086cec0 	call	86cec <memchr>
   825bc:	da413c17 	ldw	r9,1264(sp)
   825c0:	10042e26 	beq	r2,zero,8367c <___vfprintf_internal_r+0x1a8c>
   825c4:	14c5c83a 	sub	r2,r2,r19
   825c8:	d8812b15 	stw	r2,1196(sp)
   825cc:	e083790e 	bge	fp,r2,833b4 <___vfprintf_internal_r+0x17c4>
   825d0:	df012815 	stw	fp,1184(sp)
   825d4:	e0049516 	blt	fp,zero,8382c <___vfprintf_internal_r+0x1c3c>
   825d8:	d8812583 	ldbu	r2,1174(sp)
   825dc:	df012b15 	stw	fp,1196(sp)
   825e0:	ddc12d15 	stw	r23,1204(sp)
   825e4:	d8013115 	stw	zero,1220(sp)
   825e8:	003e6c06 	br	81f9c <___vfprintf_internal_r+0x3ac>
   825ec:	02000274 	movhi	r8,9
   825f0:	42386a04 	addi	r8,r8,-7768
   825f4:	da013615 	stw	r8,1240(sp)
   825f8:	8080080c 	andi	r2,r16,32
   825fc:	103f6a1e 	bne	r2,zero,823a8 <___vfprintf_internal_r+0x7b8>
   82600:	8080040c 	andi	r2,r16,16
   82604:	10029326 	beq	r2,zero,83054 <___vfprintf_internal_r+0x1464>
   82608:	d8c12d17 	ldw	r3,1204(sp)
   8260c:	002d883a 	mov	r22,zero
   82610:	1dc00017 	ldw	r23,0(r3)
   82614:	18c00104 	addi	r3,r3,4
   82618:	d8c12d15 	stw	r3,1204(sp)
   8261c:	003f6706 	br	823bc <___vfprintf_internal_r+0x7cc>
   82620:	84000214 	ori	r16,r16,8
   82624:	ac800007 	ldb	r18,0(r21)
   82628:	003dcf06 	br	81d68 <___vfprintf_internal_r+0x178>
   8262c:	da011d17 	ldw	r8,1140(sp)
   82630:	d8c11c17 	ldw	r3,1136(sp)
   82634:	d8812587 	ldb	r2,1174(sp)
   82638:	10000b26 	beq	r2,zero,82668 <___vfprintf_internal_r+0xa78>
   8263c:	d8812584 	addi	r2,sp,1174
   82640:	48800015 	stw	r2,0(r9)
   82644:	00800044 	movi	r2,1
   82648:	48800115 	stw	r2,4(r9)
   8264c:	4091883a 	add	r8,r8,r2
   82650:	1887883a 	add	r3,r3,r2
   82654:	da011d15 	stw	r8,1140(sp)
   82658:	d8c11c15 	stw	r3,1136(sp)
   8265c:	008001c4 	movi	r2,7
   82660:	10c18516 	blt	r2,r3,82c78 <___vfprintf_internal_r+0x1088>
   82664:	4a400204 	addi	r9,r9,8
   82668:	d9012a17 	ldw	r4,1192(sp)
   8266c:	20000b26 	beq	r4,zero,8269c <___vfprintf_internal_r+0xaac>
   82670:	d8812504 	addi	r2,sp,1172
   82674:	48800015 	stw	r2,0(r9)
   82678:	00800084 	movi	r2,2
   8267c:	48800115 	stw	r2,4(r9)
   82680:	4091883a 	add	r8,r8,r2
   82684:	18c00044 	addi	r3,r3,1
   82688:	da011d15 	stw	r8,1140(sp)
   8268c:	d8c11c15 	stw	r3,1136(sp)
   82690:	008001c4 	movi	r2,7
   82694:	10c18116 	blt	r2,r3,82c9c <___vfprintf_internal_r+0x10ac>
   82698:	4a400204 	addi	r9,r9,8
   8269c:	d9012f17 	ldw	r4,1212(sp)
   826a0:	00802004 	movi	r2,128
   826a4:	2080fc26 	beq	r4,r2,82a98 <___vfprintf_internal_r+0xea8>
   826a8:	d8813117 	ldw	r2,1220(sp)
   826ac:	d9012b17 	ldw	r4,1196(sp)
   826b0:	112fc83a 	sub	r23,r2,r4
   826b4:	05c02a0e 	bge	zero,r23,82760 <___vfprintf_internal_r+0xb70>
   826b8:	07000404 	movi	fp,16
   826bc:	05000274 	movhi	r20,9
   826c0:	a5387584 	addi	r20,r20,-7722
   826c4:	e5c01d0e 	bge	fp,r23,8273c <___vfprintf_internal_r+0xb4c>
   826c8:	dc812a15 	stw	r18,1192(sp)
   826cc:	058001c4 	movi	r22,7
   826d0:	a025883a 	mov	r18,r20
   826d4:	8029883a 	mov	r20,r16
   826d8:	dc012917 	ldw	r16,1188(sp)
   826dc:	00000306 	br	826ec <___vfprintf_internal_r+0xafc>
   826e0:	bdfffc04 	addi	r23,r23,-16
   826e4:	4a400204 	addi	r9,r9,8
   826e8:	e5c0110e 	bge	fp,r23,82730 <___vfprintf_internal_r+0xb40>
   826ec:	4c800015 	stw	r18,0(r9)
   826f0:	4f000115 	stw	fp,4(r9)
   826f4:	42000404 	addi	r8,r8,16
   826f8:	18c00044 	addi	r3,r3,1
   826fc:	da011d15 	stw	r8,1140(sp)
   82700:	d8c11c15 	stw	r3,1136(sp)
   82704:	b0fff60e 	bge	r22,r3,826e0 <___vfprintf_internal_r+0xaf0>
   82708:	8809883a 	mov	r4,r17
   8270c:	800b883a 	mov	r5,r16
   82710:	d9811b04 	addi	r6,sp,1132
   82714:	0081bbc0 	call	81bbc <__sprint_r>
   82718:	103ec81e 	bne	r2,zero,8223c <___vfprintf_internal_r+0x64c>
   8271c:	bdfffc04 	addi	r23,r23,-16
   82720:	da011d17 	ldw	r8,1140(sp)
   82724:	d8c11c17 	ldw	r3,1136(sp)
   82728:	da400404 	addi	r9,sp,16
   8272c:	e5ffef16 	blt	fp,r23,826ec <___vfprintf_internal_r+0xafc>
   82730:	a021883a 	mov	r16,r20
   82734:	9029883a 	mov	r20,r18
   82738:	dc812a17 	ldw	r18,1192(sp)
   8273c:	4d000015 	stw	r20,0(r9)
   82740:	4dc00115 	stw	r23,4(r9)
   82744:	45d1883a 	add	r8,r8,r23
   82748:	18c00044 	addi	r3,r3,1
   8274c:	da011d15 	stw	r8,1140(sp)
   82750:	d8c11c15 	stw	r3,1136(sp)
   82754:	008001c4 	movi	r2,7
   82758:	10c13e16 	blt	r2,r3,82c54 <___vfprintf_internal_r+0x1064>
   8275c:	4a400204 	addi	r9,r9,8
   82760:	8080400c 	andi	r2,r16,256
   82764:	1000831e 	bne	r2,zero,82974 <___vfprintf_internal_r+0xd84>
   82768:	d8812b17 	ldw	r2,1196(sp)
   8276c:	4cc00015 	stw	r19,0(r9)
   82770:	48800115 	stw	r2,4(r9)
   82774:	4091883a 	add	r8,r8,r2
   82778:	18c00044 	addi	r3,r3,1
   8277c:	da011d15 	stw	r8,1140(sp)
   82780:	d8c11c15 	stw	r3,1136(sp)
   82784:	008001c4 	movi	r2,7
   82788:	10c05316 	blt	r2,r3,828d8 <___vfprintf_internal_r+0xce8>
   8278c:	4a400204 	addi	r9,r9,8
   82790:	8400010c 	andi	r16,r16,4
   82794:	80002e26 	beq	r16,zero,82850 <___vfprintf_internal_r+0xc60>
   82798:	d8812e17 	ldw	r2,1208(sp)
   8279c:	d8c12817 	ldw	r3,1184(sp)
   827a0:	10e1c83a 	sub	r16,r2,r3
   827a4:	04002a0e 	bge	zero,r16,82850 <___vfprintf_internal_r+0xc60>
   827a8:	04800404 	movi	r18,16
   827ac:	d8c11c17 	ldw	r3,1136(sp)
   827b0:	05c00274 	movhi	r23,9
   827b4:	bdf87184 	addi	r23,r23,-7738
   827b8:	9400170e 	bge	r18,r16,82818 <___vfprintf_internal_r+0xc28>
   827bc:	04c001c4 	movi	r19,7
   827c0:	dd012917 	ldw	r20,1188(sp)
   827c4:	00000306 	br	827d4 <___vfprintf_internal_r+0xbe4>
   827c8:	843ffc04 	addi	r16,r16,-16
   827cc:	4a400204 	addi	r9,r9,8
   827d0:	9400110e 	bge	r18,r16,82818 <___vfprintf_internal_r+0xc28>
   827d4:	4dc00015 	stw	r23,0(r9)
   827d8:	4c800115 	stw	r18,4(r9)
   827dc:	42000404 	addi	r8,r8,16
   827e0:	18c00044 	addi	r3,r3,1
   827e4:	da011d15 	stw	r8,1140(sp)
   827e8:	d8c11c15 	stw	r3,1136(sp)
   827ec:	98fff60e 	bge	r19,r3,827c8 <___vfprintf_internal_r+0xbd8>
   827f0:	8809883a 	mov	r4,r17
   827f4:	a00b883a 	mov	r5,r20
   827f8:	d9811b04 	addi	r6,sp,1132
   827fc:	0081bbc0 	call	81bbc <__sprint_r>
   82800:	103e8e1e 	bne	r2,zero,8223c <___vfprintf_internal_r+0x64c>
   82804:	843ffc04 	addi	r16,r16,-16
   82808:	da011d17 	ldw	r8,1140(sp)
   8280c:	d8c11c17 	ldw	r3,1136(sp)
   82810:	da400404 	addi	r9,sp,16
   82814:	943fef16 	blt	r18,r16,827d4 <___vfprintf_internal_r+0xbe4>
   82818:	4dc00015 	stw	r23,0(r9)
   8281c:	4c000115 	stw	r16,4(r9)
   82820:	8211883a 	add	r8,r16,r8
   82824:	18c00044 	addi	r3,r3,1
   82828:	da011d15 	stw	r8,1140(sp)
   8282c:	d8c11c15 	stw	r3,1136(sp)
   82830:	008001c4 	movi	r2,7
   82834:	10c0060e 	bge	r2,r3,82850 <___vfprintf_internal_r+0xc60>
   82838:	d9412917 	ldw	r5,1188(sp)
   8283c:	8809883a 	mov	r4,r17
   82840:	d9811b04 	addi	r6,sp,1132
   82844:	0081bbc0 	call	81bbc <__sprint_r>
   82848:	103e7c1e 	bne	r2,zero,8223c <___vfprintf_internal_r+0x64c>
   8284c:	da011d17 	ldw	r8,1140(sp)
   82850:	dd012817 	ldw	r20,1184(sp)
   82854:	d9012e17 	ldw	r4,1208(sp)
   82858:	a100010e 	bge	r20,r4,82860 <___vfprintf_internal_r+0xc70>
   8285c:	2029883a 	mov	r20,r4
   82860:	d8812c17 	ldw	r2,1200(sp)
   82864:	1505883a 	add	r2,r2,r20
   82868:	d8812c15 	stw	r2,1200(sp)
   8286c:	4000b91e 	bne	r8,zero,82b54 <___vfprintf_internal_r+0xf64>
   82870:	d8011c15 	stw	zero,1136(sp)
   82874:	a8800007 	ldb	r2,0(r21)
   82878:	da400404 	addi	r9,sp,16
   8287c:	103d141e 	bne	r2,zero,81cd0 <___vfprintf_internal_r+0xe0>
   82880:	a825883a 	mov	r18,r21
   82884:	003d2a06 	br	81d30 <___vfprintf_internal_r+0x140>
   82888:	d9412917 	ldw	r5,1188(sp)
   8288c:	8809883a 	mov	r4,r17
   82890:	d9811b04 	addi	r6,sp,1132
   82894:	0081bbc0 	call	81bbc <__sprint_r>
   82898:	103e681e 	bne	r2,zero,8223c <___vfprintf_internal_r+0x64c>
   8289c:	da011d17 	ldw	r8,1140(sp)
   828a0:	da400404 	addi	r9,sp,16
   828a4:	8080004c 	andi	r2,r16,1
   828a8:	103fb926 	beq	r2,zero,82790 <___vfprintf_internal_r+0xba0>
   828ac:	d8c11c17 	ldw	r3,1136(sp)
   828b0:	d9013717 	ldw	r4,1244(sp)
   828b4:	00800044 	movi	r2,1
   828b8:	48800115 	stw	r2,4(r9)
   828bc:	49000015 	stw	r4,0(r9)
   828c0:	4091883a 	add	r8,r8,r2
   828c4:	1887883a 	add	r3,r3,r2
   828c8:	da011d15 	stw	r8,1140(sp)
   828cc:	d8c11c15 	stw	r3,1136(sp)
   828d0:	008001c4 	movi	r2,7
   828d4:	10ffad0e 	bge	r2,r3,8278c <___vfprintf_internal_r+0xb9c>
   828d8:	d9412917 	ldw	r5,1188(sp)
   828dc:	8809883a 	mov	r4,r17
   828e0:	d9811b04 	addi	r6,sp,1132
   828e4:	0081bbc0 	call	81bbc <__sprint_r>
   828e8:	103e541e 	bne	r2,zero,8223c <___vfprintf_internal_r+0x64c>
   828ec:	da400404 	addi	r9,sp,16
   828f0:	da011d17 	ldw	r8,1140(sp)
   828f4:	003fa606 	br	82790 <___vfprintf_internal_r+0xba0>
   828f8:	18803fcc 	andi	r2,r3,255
   828fc:	00c00044 	movi	r3,1
   82900:	10c10126 	beq	r2,r3,82d08 <___vfprintf_internal_r+0x1118>
   82904:	00c00084 	movi	r3,2
   82908:	10c0f026 	beq	r2,r3,82ccc <___vfprintf_internal_r+0x10dc>
   8290c:	d8c10dc4 	addi	r3,sp,1079
   82910:	b808d0fa 	srli	r4,r23,3
   82914:	b00a977a 	slli	r5,r22,29
   82918:	b02cd0fa 	srli	r22,r22,3
   8291c:	bdc001cc 	andi	r23,r23,7
   82920:	b8800c04 	addi	r2,r23,48
   82924:	292eb03a 	or	r23,r5,r4
   82928:	18800005 	stb	r2,0(r3)
   8292c:	bd88b03a 	or	r4,r23,r22
   82930:	1827883a 	mov	r19,r3
   82934:	18ffffc4 	addi	r3,r3,-1
   82938:	203ff51e 	bne	r4,zero,82910 <___vfprintf_internal_r+0xd20>
   8293c:	8100004c 	andi	r4,r16,1
   82940:	980b883a 	mov	r5,r19
   82944:	20000726 	beq	r4,zero,82964 <___vfprintf_internal_r+0xd74>
   82948:	10803fcc 	andi	r2,r2,255
   8294c:	1080201c 	xori	r2,r2,128
   82950:	10bfe004 	addi	r2,r2,-128
   82954:	01000c04 	movi	r4,48
   82958:	11000226 	beq	r2,r4,82964 <___vfprintf_internal_r+0xd74>
   8295c:	1827883a 	mov	r19,r3
   82960:	293fffc5 	stb	r4,-1(r5)
   82964:	d8812717 	ldw	r2,1180(sp)
   82968:	14c5c83a 	sub	r2,r2,r19
   8296c:	d8812b15 	stw	r2,1196(sp)
   82970:	003d8406 	br	81f84 <___vfprintf_internal_r+0x394>
   82974:	00801944 	movi	r2,101
   82978:	14807c0e 	bge	r2,r18,82b6c <___vfprintf_internal_r+0xf7c>
   8297c:	d9013317 	ldw	r4,1228(sp)
   82980:	d9413417 	ldw	r5,1232(sp)
   82984:	000d883a 	mov	r6,zero
   82988:	000f883a 	mov	r7,zero
   8298c:	d8c13b15 	stw	r3,1260(sp)
   82990:	da013a15 	stw	r8,1256(sp)
   82994:	da413c15 	stw	r9,1264(sp)
   82998:	008a4100 	call	8a410 <__eqdf2>
   8299c:	d8c13b17 	ldw	r3,1260(sp)
   829a0:	da013a17 	ldw	r8,1256(sp)
   829a4:	da413c17 	ldw	r9,1264(sp)
   829a8:	1001001e 	bne	r2,zero,82dac <___vfprintf_internal_r+0x11bc>
   829ac:	00800274 	movhi	r2,9
   829b0:	10b87104 	addi	r2,r2,-7740
   829b4:	48800015 	stw	r2,0(r9)
   829b8:	00800044 	movi	r2,1
   829bc:	48800115 	stw	r2,4(r9)
   829c0:	4091883a 	add	r8,r8,r2
   829c4:	1887883a 	add	r3,r3,r2
   829c8:	da011d15 	stw	r8,1140(sp)
   829cc:	d8c11c15 	stw	r3,1136(sp)
   829d0:	008001c4 	movi	r2,7
   829d4:	10c1dd16 	blt	r2,r3,8314c <___vfprintf_internal_r+0x155c>
   829d8:	4a400204 	addi	r9,r9,8
   829dc:	d8812417 	ldw	r2,1168(sp)
   829e0:	d8c13217 	ldw	r3,1224(sp)
   829e4:	10c00216 	blt	r2,r3,829f0 <___vfprintf_internal_r+0xe00>
   829e8:	8080004c 	andi	r2,r16,1
   829ec:	103f6826 	beq	r2,zero,82790 <___vfprintf_internal_r+0xba0>
   829f0:	d8c11c17 	ldw	r3,1136(sp)
   829f4:	d9013717 	ldw	r4,1244(sp)
   829f8:	00800044 	movi	r2,1
   829fc:	48800115 	stw	r2,4(r9)
   82a00:	49000015 	stw	r4,0(r9)
   82a04:	4091883a 	add	r8,r8,r2
   82a08:	1887883a 	add	r3,r3,r2
   82a0c:	da011d15 	stw	r8,1140(sp)
   82a10:	d8c11c15 	stw	r3,1136(sp)
   82a14:	008001c4 	movi	r2,7
   82a18:	10c2af16 	blt	r2,r3,834d8 <___vfprintf_internal_r+0x18e8>
   82a1c:	4a400204 	addi	r9,r9,8
   82a20:	d8813217 	ldw	r2,1224(sp)
   82a24:	14bfffc4 	addi	r18,r2,-1
   82a28:	04bf590e 	bge	zero,r18,82790 <___vfprintf_internal_r+0xba0>
   82a2c:	04c00404 	movi	r19,16
   82a30:	d8c11c17 	ldw	r3,1136(sp)
   82a34:	05000274 	movhi	r20,9
   82a38:	a5387584 	addi	r20,r20,-7722
   82a3c:	9c81630e 	bge	r19,r18,82fcc <___vfprintf_internal_r+0x13dc>
   82a40:	058001c4 	movi	r22,7
   82a44:	ddc12917 	ldw	r23,1188(sp)
   82a48:	00000306 	br	82a58 <___vfprintf_internal_r+0xe68>
   82a4c:	4a400204 	addi	r9,r9,8
   82a50:	94bffc04 	addi	r18,r18,-16
   82a54:	9c815d0e 	bge	r19,r18,82fcc <___vfprintf_internal_r+0x13dc>
   82a58:	4d000015 	stw	r20,0(r9)
   82a5c:	4cc00115 	stw	r19,4(r9)
   82a60:	42000404 	addi	r8,r8,16
   82a64:	18c00044 	addi	r3,r3,1
   82a68:	da011d15 	stw	r8,1140(sp)
   82a6c:	d8c11c15 	stw	r3,1136(sp)
   82a70:	b0fff60e 	bge	r22,r3,82a4c <___vfprintf_internal_r+0xe5c>
   82a74:	8809883a 	mov	r4,r17
   82a78:	b80b883a 	mov	r5,r23
   82a7c:	d9811b04 	addi	r6,sp,1132
   82a80:	0081bbc0 	call	81bbc <__sprint_r>
   82a84:	103ded1e 	bne	r2,zero,8223c <___vfprintf_internal_r+0x64c>
   82a88:	da011d17 	ldw	r8,1140(sp)
   82a8c:	d8c11c17 	ldw	r3,1136(sp)
   82a90:	da400404 	addi	r9,sp,16
   82a94:	003fee06 	br	82a50 <___vfprintf_internal_r+0xe60>
   82a98:	d8812e17 	ldw	r2,1208(sp)
   82a9c:	d9012817 	ldw	r4,1184(sp)
   82aa0:	112fc83a 	sub	r23,r2,r4
   82aa4:	05ff000e 	bge	zero,r23,826a8 <___vfprintf_internal_r+0xab8>
   82aa8:	07000404 	movi	fp,16
   82aac:	05000274 	movhi	r20,9
   82ab0:	a5387584 	addi	r20,r20,-7722
   82ab4:	e5c01d0e 	bge	fp,r23,82b2c <___vfprintf_internal_r+0xf3c>
   82ab8:	dc812a15 	stw	r18,1192(sp)
   82abc:	058001c4 	movi	r22,7
   82ac0:	a025883a 	mov	r18,r20
   82ac4:	8029883a 	mov	r20,r16
   82ac8:	dc012917 	ldw	r16,1188(sp)
   82acc:	00000306 	br	82adc <___vfprintf_internal_r+0xeec>
   82ad0:	bdfffc04 	addi	r23,r23,-16
   82ad4:	4a400204 	addi	r9,r9,8
   82ad8:	e5c0110e 	bge	fp,r23,82b20 <___vfprintf_internal_r+0xf30>
   82adc:	4c800015 	stw	r18,0(r9)
   82ae0:	4f000115 	stw	fp,4(r9)
   82ae4:	42000404 	addi	r8,r8,16
   82ae8:	18c00044 	addi	r3,r3,1
   82aec:	da011d15 	stw	r8,1140(sp)
   82af0:	d8c11c15 	stw	r3,1136(sp)
   82af4:	b0fff60e 	bge	r22,r3,82ad0 <___vfprintf_internal_r+0xee0>
   82af8:	8809883a 	mov	r4,r17
   82afc:	800b883a 	mov	r5,r16
   82b00:	d9811b04 	addi	r6,sp,1132
   82b04:	0081bbc0 	call	81bbc <__sprint_r>
   82b08:	103dcc1e 	bne	r2,zero,8223c <___vfprintf_internal_r+0x64c>
   82b0c:	bdfffc04 	addi	r23,r23,-16
   82b10:	da011d17 	ldw	r8,1140(sp)
   82b14:	d8c11c17 	ldw	r3,1136(sp)
   82b18:	da400404 	addi	r9,sp,16
   82b1c:	e5ffef16 	blt	fp,r23,82adc <___vfprintf_internal_r+0xeec>
   82b20:	a021883a 	mov	r16,r20
   82b24:	9029883a 	mov	r20,r18
   82b28:	dc812a17 	ldw	r18,1192(sp)
   82b2c:	4d000015 	stw	r20,0(r9)
   82b30:	4dc00115 	stw	r23,4(r9)
   82b34:	45d1883a 	add	r8,r8,r23
   82b38:	18c00044 	addi	r3,r3,1
   82b3c:	da011d15 	stw	r8,1140(sp)
   82b40:	d8c11c15 	stw	r3,1136(sp)
   82b44:	008001c4 	movi	r2,7
   82b48:	10c11716 	blt	r2,r3,82fa8 <___vfprintf_internal_r+0x13b8>
   82b4c:	4a400204 	addi	r9,r9,8
   82b50:	003ed506 	br	826a8 <___vfprintf_internal_r+0xab8>
   82b54:	d9412917 	ldw	r5,1188(sp)
   82b58:	8809883a 	mov	r4,r17
   82b5c:	d9811b04 	addi	r6,sp,1132
   82b60:	0081bbc0 	call	81bbc <__sprint_r>
   82b64:	103f4226 	beq	r2,zero,82870 <___vfprintf_internal_r+0xc80>
   82b68:	003db406 	br	8223c <___vfprintf_internal_r+0x64c>
   82b6c:	d9013217 	ldw	r4,1224(sp)
   82b70:	00800044 	movi	r2,1
   82b74:	4cc00015 	stw	r19,0(r9)
   82b78:	1100e10e 	bge	r2,r4,82f00 <___vfprintf_internal_r+0x1310>
   82b7c:	00800044 	movi	r2,1
   82b80:	48800115 	stw	r2,4(r9)
   82b84:	4091883a 	add	r8,r8,r2
   82b88:	1887883a 	add	r3,r3,r2
   82b8c:	da011d15 	stw	r8,1140(sp)
   82b90:	d8c11c15 	stw	r3,1136(sp)
   82b94:	008001c4 	movi	r2,7
   82b98:	10c0ed16 	blt	r2,r3,82f50 <___vfprintf_internal_r+0x1360>
   82b9c:	4a400204 	addi	r9,r9,8
   82ba0:	d8813717 	ldw	r2,1244(sp)
   82ba4:	48800015 	stw	r2,0(r9)
   82ba8:	00800044 	movi	r2,1
   82bac:	48800115 	stw	r2,4(r9)
   82bb0:	4091883a 	add	r8,r8,r2
   82bb4:	1887883a 	add	r3,r3,r2
   82bb8:	da011d15 	stw	r8,1140(sp)
   82bbc:	d8c11c15 	stw	r3,1136(sp)
   82bc0:	008001c4 	movi	r2,7
   82bc4:	10c0eb16 	blt	r2,r3,82f74 <___vfprintf_internal_r+0x1384>
   82bc8:	4c800204 	addi	r18,r9,8
   82bcc:	d9013317 	ldw	r4,1228(sp)
   82bd0:	d9413417 	ldw	r5,1232(sp)
   82bd4:	000d883a 	mov	r6,zero
   82bd8:	000f883a 	mov	r7,zero
   82bdc:	d8c13b15 	stw	r3,1260(sp)
   82be0:	da013a15 	stw	r8,1256(sp)
   82be4:	008a46c0 	call	8a46c <__nedf2>
   82be8:	d8c13b17 	ldw	r3,1260(sp)
   82bec:	da013a17 	ldw	r8,1256(sp)
   82bf0:	1000a626 	beq	r2,zero,82e8c <___vfprintf_internal_r+0x129c>
   82bf4:	d9013217 	ldw	r4,1224(sp)
   82bf8:	9cc00044 	addi	r19,r19,1
   82bfc:	94c00015 	stw	r19,0(r18)
   82c00:	20bfffc4 	addi	r2,r4,-1
   82c04:	90800115 	stw	r2,4(r18)
   82c08:	4091883a 	add	r8,r8,r2
   82c0c:	18c00044 	addi	r3,r3,1
   82c10:	da011d15 	stw	r8,1140(sp)
   82c14:	d8c11c15 	stw	r3,1136(sp)
   82c18:	008001c4 	movi	r2,7
   82c1c:	10c0c316 	blt	r2,r3,82f2c <___vfprintf_internal_r+0x133c>
   82c20:	94800204 	addi	r18,r18,8
   82c24:	d9013517 	ldw	r4,1236(sp)
   82c28:	d8811fc4 	addi	r2,sp,1151
   82c2c:	90800015 	stw	r2,0(r18)
   82c30:	91000115 	stw	r4,4(r18)
   82c34:	4111883a 	add	r8,r8,r4
   82c38:	18c00044 	addi	r3,r3,1
   82c3c:	da011d15 	stw	r8,1140(sp)
   82c40:	d8c11c15 	stw	r3,1136(sp)
   82c44:	008001c4 	movi	r2,7
   82c48:	10ff2316 	blt	r2,r3,828d8 <___vfprintf_internal_r+0xce8>
   82c4c:	92400204 	addi	r9,r18,8
   82c50:	003ecf06 	br	82790 <___vfprintf_internal_r+0xba0>
   82c54:	d9412917 	ldw	r5,1188(sp)
   82c58:	8809883a 	mov	r4,r17
   82c5c:	d9811b04 	addi	r6,sp,1132
   82c60:	0081bbc0 	call	81bbc <__sprint_r>
   82c64:	103d751e 	bne	r2,zero,8223c <___vfprintf_internal_r+0x64c>
   82c68:	da011d17 	ldw	r8,1140(sp)
   82c6c:	d8c11c17 	ldw	r3,1136(sp)
   82c70:	da400404 	addi	r9,sp,16
   82c74:	003eba06 	br	82760 <___vfprintf_internal_r+0xb70>
   82c78:	d9412917 	ldw	r5,1188(sp)
   82c7c:	8809883a 	mov	r4,r17
   82c80:	d9811b04 	addi	r6,sp,1132
   82c84:	0081bbc0 	call	81bbc <__sprint_r>
   82c88:	103d6c1e 	bne	r2,zero,8223c <___vfprintf_internal_r+0x64c>
   82c8c:	da011d17 	ldw	r8,1140(sp)
   82c90:	d8c11c17 	ldw	r3,1136(sp)
   82c94:	da400404 	addi	r9,sp,16
   82c98:	003e7306 	br	82668 <___vfprintf_internal_r+0xa78>
   82c9c:	d9412917 	ldw	r5,1188(sp)
   82ca0:	8809883a 	mov	r4,r17
   82ca4:	d9811b04 	addi	r6,sp,1132
   82ca8:	0081bbc0 	call	81bbc <__sprint_r>
   82cac:	103d631e 	bne	r2,zero,8223c <___vfprintf_internal_r+0x64c>
   82cb0:	da011d17 	ldw	r8,1140(sp)
   82cb4:	d8c11c17 	ldw	r3,1136(sp)
   82cb8:	da400404 	addi	r9,sp,16
   82cbc:	003e7706 	br	8269c <___vfprintf_internal_r+0xaac>
   82cc0:	d8012b15 	stw	zero,1196(sp)
   82cc4:	dcc10e04 	addi	r19,sp,1080
   82cc8:	003cae06 	br	81f84 <___vfprintf_internal_r+0x394>
   82ccc:	d9413617 	ldw	r5,1240(sp)
   82cd0:	d8810dc4 	addi	r2,sp,1079
   82cd4:	b8c003cc 	andi	r3,r23,15
   82cd8:	b008973a 	slli	r4,r22,28
   82cdc:	28c7883a 	add	r3,r5,r3
   82ce0:	b82ed13a 	srli	r23,r23,4
   82ce4:	18c00003 	ldbu	r3,0(r3)
   82ce8:	b02cd13a 	srli	r22,r22,4
   82cec:	25eeb03a 	or	r23,r4,r23
   82cf0:	10c00005 	stb	r3,0(r2)
   82cf4:	bd86b03a 	or	r3,r23,r22
   82cf8:	1027883a 	mov	r19,r2
   82cfc:	10bfffc4 	addi	r2,r2,-1
   82d00:	183ff41e 	bne	r3,zero,82cd4 <___vfprintf_internal_r+0x10e4>
   82d04:	003f1706 	br	82964 <___vfprintf_internal_r+0xd74>
   82d08:	b0025826 	beq	r22,zero,8366c <___vfprintf_internal_r+0x1a7c>
   82d0c:	b807883a 	mov	r3,r23
   82d10:	d8810dc4 	addi	r2,sp,1079
   82d14:	882f883a 	mov	r23,r17
   82d18:	04c00244 	movi	r19,9
   82d1c:	8023883a 	mov	r17,r16
   82d20:	da412815 	stw	r9,1184(sp)
   82d24:	1821883a 	mov	r16,r3
   82d28:	8009883a 	mov	r4,r16
   82d2c:	b00b883a 	mov	r5,r22
   82d30:	01800284 	movi	r6,10
   82d34:	000f883a 	mov	r7,zero
   82d38:	1029883a 	mov	r20,r2
   82d3c:	00895e40 	call	895e4 <__umoddi3>
   82d40:	10800c04 	addi	r2,r2,48
   82d44:	8009883a 	mov	r4,r16
   82d48:	b00b883a 	mov	r5,r22
   82d4c:	a0800005 	stb	r2,0(r20)
   82d50:	01800284 	movi	r6,10
   82d54:	000f883a 	mov	r7,zero
   82d58:	008901c0 	call	8901c <__udivdi3>
   82d5c:	1021883a 	mov	r16,r2
   82d60:	182d883a 	mov	r22,r3
   82d64:	a0bfffc4 	addi	r2,r20,-1
   82d68:	183fef1e 	bne	r3,zero,82d28 <___vfprintf_internal_r+0x1138>
   82d6c:	9c3fee36 	bltu	r19,r16,82d28 <___vfprintf_internal_r+0x1138>
   82d70:	da412817 	ldw	r9,1184(sp)
   82d74:	8005883a 	mov	r2,r16
   82d78:	8821883a 	mov	r16,r17
   82d7c:	b823883a 	mov	r17,r23
   82d80:	102f883a 	mov	r23,r2
   82d84:	d8812717 	ldw	r2,1180(sp)
   82d88:	a4ffffc4 	addi	r19,r20,-1
   82d8c:	bdc00c04 	addi	r23,r23,48
   82d90:	14c5c83a 	sub	r2,r2,r19
   82d94:	a5ffffc5 	stb	r23,-1(r20)
   82d98:	d8812b15 	stw	r2,1196(sp)
   82d9c:	003c7906 	br	81f84 <___vfprintf_internal_r+0x394>
   82da0:	00c00044 	movi	r3,1
   82da4:	bd84b03a 	or	r2,r23,r22
   82da8:	003c6806 	br	81f4c <___vfprintf_internal_r+0x35c>
   82dac:	dc812417 	ldw	r18,1168(sp)
   82db0:	0480ee0e 	bge	zero,r18,8316c <___vfprintf_internal_r+0x157c>
   82db4:	d9013217 	ldw	r4,1224(sp)
   82db8:	4cc00015 	stw	r19,0(r9)
   82dbc:	9100c616 	blt	r18,r4,830d8 <___vfprintf_internal_r+0x14e8>
   82dc0:	49000115 	stw	r4,4(r9)
   82dc4:	4111883a 	add	r8,r8,r4
   82dc8:	18c00044 	addi	r3,r3,1
   82dcc:	da011d15 	stw	r8,1140(sp)
   82dd0:	d8c11c15 	stw	r3,1136(sp)
   82dd4:	008001c4 	movi	r2,7
   82dd8:	10c20916 	blt	r2,r3,83600 <___vfprintf_internal_r+0x1a10>
   82ddc:	4a400204 	addi	r9,r9,8
   82de0:	d8813217 	ldw	r2,1224(sp)
   82de4:	90a5c83a 	sub	r18,r18,r2
   82de8:	04beae0e 	bge	zero,r18,828a4 <___vfprintf_internal_r+0xcb4>
   82dec:	04c00404 	movi	r19,16
   82df0:	d8c11c17 	ldw	r3,1136(sp)
   82df4:	05000274 	movhi	r20,9
   82df8:	a5387584 	addi	r20,r20,-7722
   82dfc:	9c81be0e 	bge	r19,r18,834f8 <___vfprintf_internal_r+0x1908>
   82e00:	058001c4 	movi	r22,7
   82e04:	ddc12917 	ldw	r23,1188(sp)
   82e08:	00000306 	br	82e18 <___vfprintf_internal_r+0x1228>
   82e0c:	4a400204 	addi	r9,r9,8
   82e10:	94bffc04 	addi	r18,r18,-16
   82e14:	9c81b80e 	bge	r19,r18,834f8 <___vfprintf_internal_r+0x1908>
   82e18:	4d000015 	stw	r20,0(r9)
   82e1c:	4cc00115 	stw	r19,4(r9)
   82e20:	42000404 	addi	r8,r8,16
   82e24:	18c00044 	addi	r3,r3,1
   82e28:	da011d15 	stw	r8,1140(sp)
   82e2c:	d8c11c15 	stw	r3,1136(sp)
   82e30:	b0fff60e 	bge	r22,r3,82e0c <___vfprintf_internal_r+0x121c>
   82e34:	8809883a 	mov	r4,r17
   82e38:	b80b883a 	mov	r5,r23
   82e3c:	d9811b04 	addi	r6,sp,1132
   82e40:	0081bbc0 	call	81bbc <__sprint_r>
   82e44:	103cfd1e 	bne	r2,zero,8223c <___vfprintf_internal_r+0x64c>
   82e48:	da011d17 	ldw	r8,1140(sp)
   82e4c:	d8c11c17 	ldw	r3,1136(sp)
   82e50:	da400404 	addi	r9,sp,16
   82e54:	003fee06 	br	82e10 <___vfprintf_internal_r+0x1220>
   82e58:	d9412917 	ldw	r5,1188(sp)
   82e5c:	8809883a 	mov	r4,r17
   82e60:	d9811b04 	addi	r6,sp,1132
   82e64:	0081bbc0 	call	81bbc <__sprint_r>
   82e68:	103cf41e 	bne	r2,zero,8223c <___vfprintf_internal_r+0x64c>
   82e6c:	da011d17 	ldw	r8,1140(sp)
   82e70:	d8c11c17 	ldw	r3,1136(sp)
   82e74:	da400404 	addi	r9,sp,16
   82e78:	003dee06 	br	82634 <___vfprintf_internal_r+0xa44>
   82e7c:	00c00084 	movi	r3,2
   82e80:	bd84b03a 	or	r2,r23,r22
   82e84:	d8012585 	stb	zero,1174(sp)
   82e88:	003c3006 	br	81f4c <___vfprintf_internal_r+0x35c>
   82e8c:	d8813217 	ldw	r2,1224(sp)
   82e90:	14ffffc4 	addi	r19,r2,-1
   82e94:	04ff630e 	bge	zero,r19,82c24 <___vfprintf_internal_r+0x1034>
   82e98:	05800404 	movi	r22,16
   82e9c:	05000274 	movhi	r20,9
   82ea0:	a5387584 	addi	r20,r20,-7722
   82ea4:	b4c03c0e 	bge	r22,r19,82f98 <___vfprintf_internal_r+0x13a8>
   82ea8:	05c001c4 	movi	r23,7
   82eac:	df012917 	ldw	fp,1188(sp)
   82eb0:	00000306 	br	82ec0 <___vfprintf_internal_r+0x12d0>
   82eb4:	94800204 	addi	r18,r18,8
   82eb8:	9cfffc04 	addi	r19,r19,-16
   82ebc:	b4c0360e 	bge	r22,r19,82f98 <___vfprintf_internal_r+0x13a8>
   82ec0:	95000015 	stw	r20,0(r18)
   82ec4:	95800115 	stw	r22,4(r18)
   82ec8:	42000404 	addi	r8,r8,16
   82ecc:	18c00044 	addi	r3,r3,1
   82ed0:	da011d15 	stw	r8,1140(sp)
   82ed4:	d8c11c15 	stw	r3,1136(sp)
   82ed8:	b8fff60e 	bge	r23,r3,82eb4 <___vfprintf_internal_r+0x12c4>
   82edc:	8809883a 	mov	r4,r17
   82ee0:	e00b883a 	mov	r5,fp
   82ee4:	d9811b04 	addi	r6,sp,1132
   82ee8:	0081bbc0 	call	81bbc <__sprint_r>
   82eec:	103cd31e 	bne	r2,zero,8223c <___vfprintf_internal_r+0x64c>
   82ef0:	da011d17 	ldw	r8,1140(sp)
   82ef4:	d8c11c17 	ldw	r3,1136(sp)
   82ef8:	dc800404 	addi	r18,sp,16
   82efc:	003fee06 	br	82eb8 <___vfprintf_internal_r+0x12c8>
   82f00:	8088703a 	and	r4,r16,r2
   82f04:	203f1d1e 	bne	r4,zero,82b7c <___vfprintf_internal_r+0xf8c>
   82f08:	48800115 	stw	r2,4(r9)
   82f0c:	42000044 	addi	r8,r8,1
   82f10:	18c00044 	addi	r3,r3,1
   82f14:	da011d15 	stw	r8,1140(sp)
   82f18:	d8c11c15 	stw	r3,1136(sp)
   82f1c:	008001c4 	movi	r2,7
   82f20:	10c00216 	blt	r2,r3,82f2c <___vfprintf_internal_r+0x133c>
   82f24:	4c800204 	addi	r18,r9,8
   82f28:	003f3e06 	br	82c24 <___vfprintf_internal_r+0x1034>
   82f2c:	d9412917 	ldw	r5,1188(sp)
   82f30:	8809883a 	mov	r4,r17
   82f34:	d9811b04 	addi	r6,sp,1132
   82f38:	0081bbc0 	call	81bbc <__sprint_r>
   82f3c:	103cbf1e 	bne	r2,zero,8223c <___vfprintf_internal_r+0x64c>
   82f40:	dc800404 	addi	r18,sp,16
   82f44:	da011d17 	ldw	r8,1140(sp)
   82f48:	d8c11c17 	ldw	r3,1136(sp)
   82f4c:	003f3506 	br	82c24 <___vfprintf_internal_r+0x1034>
   82f50:	d9412917 	ldw	r5,1188(sp)
   82f54:	8809883a 	mov	r4,r17
   82f58:	d9811b04 	addi	r6,sp,1132
   82f5c:	0081bbc0 	call	81bbc <__sprint_r>
   82f60:	103cb61e 	bne	r2,zero,8223c <___vfprintf_internal_r+0x64c>
   82f64:	da011d17 	ldw	r8,1140(sp)
   82f68:	d8c11c17 	ldw	r3,1136(sp)
   82f6c:	da400404 	addi	r9,sp,16
   82f70:	003f0b06 	br	82ba0 <___vfprintf_internal_r+0xfb0>
   82f74:	d9412917 	ldw	r5,1188(sp)
   82f78:	8809883a 	mov	r4,r17
   82f7c:	d9811b04 	addi	r6,sp,1132
   82f80:	0081bbc0 	call	81bbc <__sprint_r>
   82f84:	103cad1e 	bne	r2,zero,8223c <___vfprintf_internal_r+0x64c>
   82f88:	da011d17 	ldw	r8,1140(sp)
   82f8c:	d8c11c17 	ldw	r3,1136(sp)
   82f90:	dc800404 	addi	r18,sp,16
   82f94:	003f0d06 	br	82bcc <___vfprintf_internal_r+0xfdc>
   82f98:	95000015 	stw	r20,0(r18)
   82f9c:	94c00115 	stw	r19,4(r18)
   82fa0:	44d1883a 	add	r8,r8,r19
   82fa4:	003f1906 	br	82c0c <___vfprintf_internal_r+0x101c>
   82fa8:	d9412917 	ldw	r5,1188(sp)
   82fac:	8809883a 	mov	r4,r17
   82fb0:	d9811b04 	addi	r6,sp,1132
   82fb4:	0081bbc0 	call	81bbc <__sprint_r>
   82fb8:	103ca01e 	bne	r2,zero,8223c <___vfprintf_internal_r+0x64c>
   82fbc:	da011d17 	ldw	r8,1140(sp)
   82fc0:	d8c11c17 	ldw	r3,1136(sp)
   82fc4:	da400404 	addi	r9,sp,16
   82fc8:	003db706 	br	826a8 <___vfprintf_internal_r+0xab8>
   82fcc:	4d000015 	stw	r20,0(r9)
   82fd0:	4c800115 	stw	r18,4(r9)
   82fd4:	4491883a 	add	r8,r8,r18
   82fd8:	003de706 	br	82778 <___vfprintf_internal_r+0xb88>
   82fdc:	8080100c 	andi	r2,r16,64
   82fe0:	10010226 	beq	r2,zero,833ec <___vfprintf_internal_r+0x17fc>
   82fe4:	d8812d17 	ldw	r2,1204(sp)
   82fe8:	002d883a 	mov	r22,zero
   82fec:	00c00044 	movi	r3,1
   82ff0:	15c0000b 	ldhu	r23,0(r2)
   82ff4:	10800104 	addi	r2,r2,4
   82ff8:	d8812d15 	stw	r2,1204(sp)
   82ffc:	d8012585 	stb	zero,1174(sp)
   83000:	b805883a 	mov	r2,r23
   83004:	003bd106 	br	81f4c <___vfprintf_internal_r+0x35c>
   83008:	d9012d17 	ldw	r4,1204(sp)
   8300c:	25800017 	ldw	r22,0(r4)
   83010:	25000117 	ldw	r20,4(r4)
   83014:	21000204 	addi	r4,r4,8
   83018:	d9012d15 	stw	r4,1204(sp)
   8301c:	dd813315 	stw	r22,1228(sp)
   83020:	dd013415 	stw	r20,1232(sp)
   83024:	003d2b06 	br	824d4 <___vfprintf_internal_r+0x8e4>
   83028:	8080100c 	andi	r2,r16,64
   8302c:	1000fe26 	beq	r2,zero,83428 <___vfprintf_internal_r+0x1838>
   83030:	d9012d17 	ldw	r4,1204(sp)
   83034:	002d883a 	mov	r22,zero
   83038:	0007883a 	mov	r3,zero
   8303c:	25c0000b 	ldhu	r23,0(r4)
   83040:	21000104 	addi	r4,r4,4
   83044:	d9012d15 	stw	r4,1204(sp)
   83048:	b805883a 	mov	r2,r23
   8304c:	d8012585 	stb	zero,1174(sp)
   83050:	003bbe06 	br	81f4c <___vfprintf_internal_r+0x35c>
   83054:	8080100c 	andi	r2,r16,64
   83058:	1000ed26 	beq	r2,zero,83410 <___vfprintf_internal_r+0x1820>
   8305c:	d9012d17 	ldw	r4,1204(sp)
   83060:	002d883a 	mov	r22,zero
   83064:	25c0000b 	ldhu	r23,0(r4)
   83068:	21000104 	addi	r4,r4,4
   8306c:	d9012d15 	stw	r4,1204(sp)
   83070:	003cd206 	br	823bc <___vfprintf_internal_r+0x7cc>
   83074:	00c00084 	movi	r3,2
   83078:	d8012585 	stb	zero,1174(sp)
   8307c:	003bb306 	br	81f4c <___vfprintf_internal_r+0x35c>
   83080:	8080040c 	andi	r2,r16,16
   83084:	1000f11e 	bne	r2,zero,8344c <___vfprintf_internal_r+0x185c>
   83088:	8400100c 	andi	r16,r16,64
   8308c:	80015526 	beq	r16,zero,835e4 <___vfprintf_internal_r+0x19f4>
   83090:	da012d17 	ldw	r8,1204(sp)
   83094:	d8c12c17 	ldw	r3,1200(sp)
   83098:	40800017 	ldw	r2,0(r8)
   8309c:	42000104 	addi	r8,r8,4
   830a0:	da012d15 	stw	r8,1204(sp)
   830a4:	10c0000d 	sth	r3,0(r2)
   830a8:	003b0706 	br	81cc8 <___vfprintf_internal_r+0xd8>
   830ac:	8080100c 	andi	r2,r16,64
   830b0:	1000c726 	beq	r2,zero,833d0 <___vfprintf_internal_r+0x17e0>
   830b4:	da012d17 	ldw	r8,1204(sp)
   830b8:	45c0000f 	ldh	r23,0(r8)
   830bc:	42000104 	addi	r8,r8,4
   830c0:	da012d15 	stw	r8,1204(sp)
   830c4:	b82dd7fa 	srai	r22,r23,31
   830c8:	b005883a 	mov	r2,r22
   830cc:	003c1006 	br	82110 <___vfprintf_internal_r+0x520>
   830d0:	ac800007 	ldb	r18,0(r21)
   830d4:	003b2406 	br	81d68 <___vfprintf_internal_r+0x178>
   830d8:	4c800115 	stw	r18,4(r9)
   830dc:	9211883a 	add	r8,r18,r8
   830e0:	18c00044 	addi	r3,r3,1
   830e4:	da011d15 	stw	r8,1140(sp)
   830e8:	d8c11c15 	stw	r3,1136(sp)
   830ec:	008001c4 	movi	r2,7
   830f0:	10c15416 	blt	r2,r3,83644 <___vfprintf_internal_r+0x1a54>
   830f4:	4a400204 	addi	r9,r9,8
   830f8:	d8813717 	ldw	r2,1244(sp)
   830fc:	9ca7883a 	add	r19,r19,r18
   83100:	48800015 	stw	r2,0(r9)
   83104:	00800044 	movi	r2,1
   83108:	48800115 	stw	r2,4(r9)
   8310c:	4091883a 	add	r8,r8,r2
   83110:	1887883a 	add	r3,r3,r2
   83114:	da011d15 	stw	r8,1140(sp)
   83118:	d8c11c15 	stw	r3,1136(sp)
   8311c:	008001c4 	movi	r2,7
   83120:	10c14016 	blt	r2,r3,83624 <___vfprintf_internal_r+0x1a34>
   83124:	4a400204 	addi	r9,r9,8
   83128:	d9013217 	ldw	r4,1224(sp)
   8312c:	da011d17 	ldw	r8,1140(sp)
   83130:	d8c11c17 	ldw	r3,1136(sp)
   83134:	24a5c83a 	sub	r18,r4,r18
   83138:	4cc00015 	stw	r19,0(r9)
   8313c:	003fa406 	br	82fd0 <___vfprintf_internal_r+0x13e0>
   83140:	04c00274 	movhi	r19,9
   83144:	9cf86204 	addi	r19,r19,-7800
   83148:	003cf406 	br	8251c <___vfprintf_internal_r+0x92c>
   8314c:	d9412917 	ldw	r5,1188(sp)
   83150:	8809883a 	mov	r4,r17
   83154:	d9811b04 	addi	r6,sp,1132
   83158:	0081bbc0 	call	81bbc <__sprint_r>
   8315c:	103c371e 	bne	r2,zero,8223c <___vfprintf_internal_r+0x64c>
   83160:	da011d17 	ldw	r8,1140(sp)
   83164:	da400404 	addi	r9,sp,16
   83168:	003e1c06 	br	829dc <___vfprintf_internal_r+0xdec>
   8316c:	00800274 	movhi	r2,9
   83170:	10b87104 	addi	r2,r2,-7740
   83174:	48800015 	stw	r2,0(r9)
   83178:	00800044 	movi	r2,1
   8317c:	48800115 	stw	r2,4(r9)
   83180:	4091883a 	add	r8,r8,r2
   83184:	1887883a 	add	r3,r3,r2
   83188:	da011d15 	stw	r8,1140(sp)
   8318c:	d8c11c15 	stw	r3,1136(sp)
   83190:	008001c4 	movi	r2,7
   83194:	10c0c316 	blt	r2,r3,834a4 <___vfprintf_internal_r+0x18b4>
   83198:	4a400204 	addi	r9,r9,8
   8319c:	9000041e 	bne	r18,zero,831b0 <___vfprintf_internal_r+0x15c0>
   831a0:	d8c13217 	ldw	r3,1224(sp)
   831a4:	1800021e 	bne	r3,zero,831b0 <___vfprintf_internal_r+0x15c0>
   831a8:	8080004c 	andi	r2,r16,1
   831ac:	103d7826 	beq	r2,zero,82790 <___vfprintf_internal_r+0xba0>
   831b0:	d8c11c17 	ldw	r3,1136(sp)
   831b4:	d9013717 	ldw	r4,1244(sp)
   831b8:	00800044 	movi	r2,1
   831bc:	48800115 	stw	r2,4(r9)
   831c0:	49000015 	stw	r4,0(r9)
   831c4:	4091883a 	add	r8,r8,r2
   831c8:	1887883a 	add	r3,r3,r2
   831cc:	da011d15 	stw	r8,1140(sp)
   831d0:	d8c11c15 	stw	r3,1136(sp)
   831d4:	008001c4 	movi	r2,7
   831d8:	10c12e16 	blt	r2,r3,83694 <___vfprintf_internal_r+0x1aa4>
   831dc:	4a400204 	addi	r9,r9,8
   831e0:	04a5c83a 	sub	r18,zero,r18
   831e4:	0480de0e 	bge	zero,r18,83560 <___vfprintf_internal_r+0x1970>
   831e8:	05800404 	movi	r22,16
   831ec:	05000274 	movhi	r20,9
   831f0:	a5387584 	addi	r20,r20,-7722
   831f4:	b480e20e 	bge	r22,r18,83580 <___vfprintf_internal_r+0x1990>
   831f8:	05c001c4 	movi	r23,7
   831fc:	df012917 	ldw	fp,1188(sp)
   83200:	00000306 	br	83210 <___vfprintf_internal_r+0x1620>
   83204:	4a400204 	addi	r9,r9,8
   83208:	94bffc04 	addi	r18,r18,-16
   8320c:	b480dc0e 	bge	r22,r18,83580 <___vfprintf_internal_r+0x1990>
   83210:	4d000015 	stw	r20,0(r9)
   83214:	4d800115 	stw	r22,4(r9)
   83218:	42000404 	addi	r8,r8,16
   8321c:	18c00044 	addi	r3,r3,1
   83220:	da011d15 	stw	r8,1140(sp)
   83224:	d8c11c15 	stw	r3,1136(sp)
   83228:	b8fff60e 	bge	r23,r3,83204 <___vfprintf_internal_r+0x1614>
   8322c:	8809883a 	mov	r4,r17
   83230:	e00b883a 	mov	r5,fp
   83234:	d9811b04 	addi	r6,sp,1132
   83238:	0081bbc0 	call	81bbc <__sprint_r>
   8323c:	103bff1e 	bne	r2,zero,8223c <___vfprintf_internal_r+0x64c>
   83240:	da011d17 	ldw	r8,1140(sp)
   83244:	d8c11c17 	ldw	r3,1136(sp)
   83248:	da400404 	addi	r9,sp,16
   8324c:	003fee06 	br	83208 <___vfprintf_internal_r+0x1618>
   83250:	da413c15 	stw	r9,1264(sp)
   83254:	00887700 	call	88770 <__isnand>
   83258:	da413c17 	ldw	r9,1264(sp)
   8325c:	1000851e 	bne	r2,zero,83474 <___vfprintf_internal_r+0x1884>
   83260:	00bfffc4 	movi	r2,-1
   83264:	e0817626 	beq	fp,r2,83840 <___vfprintf_internal_r+0x1c50>
   83268:	008019c4 	movi	r2,103
   8326c:	90817126 	beq	r18,r2,83834 <___vfprintf_internal_r+0x1c44>
   83270:	008011c4 	movi	r2,71
   83274:	90816f26 	beq	r18,r2,83834 <___vfprintf_internal_r+0x1c44>
   83278:	82004014 	ori	r8,r16,256
   8327c:	da012a15 	stw	r8,1192(sp)
   83280:	a0017116 	blt	r20,zero,83848 <___vfprintf_internal_r+0x1c58>
   83284:	d8012f05 	stb	zero,1212(sp)
   83288:	00801984 	movi	r2,102
   8328c:	90811226 	beq	r18,r2,836d8 <___vfprintf_internal_r+0x1ae8>
   83290:	00801184 	movi	r2,70
   83294:	90811026 	beq	r18,r2,836d8 <___vfprintf_internal_r+0x1ae8>
   83298:	00801944 	movi	r2,101
   8329c:	90819b26 	beq	r18,r2,8390c <___vfprintf_internal_r+0x1d1c>
   832a0:	00801144 	movi	r2,69
   832a4:	90819926 	beq	r18,r2,8390c <___vfprintf_internal_r+0x1d1c>
   832a8:	e02f883a 	mov	r23,fp
   832ac:	d8812404 	addi	r2,sp,1168
   832b0:	d8800115 	stw	r2,4(sp)
   832b4:	d8812304 	addi	r2,sp,1164
   832b8:	d8800215 	stw	r2,8(sp)
   832bc:	d8812204 	addi	r2,sp,1160
   832c0:	ddc00015 	stw	r23,0(sp)
   832c4:	d8800315 	stw	r2,12(sp)
   832c8:	8809883a 	mov	r4,r17
   832cc:	b00b883a 	mov	r5,r22
   832d0:	a00d883a 	mov	r6,r20
   832d4:	01c00084 	movi	r7,2
   832d8:	da413c15 	stw	r9,1264(sp)
   832dc:	0083d880 	call	83d88 <_dtoa_r>
   832e0:	1027883a 	mov	r19,r2
   832e4:	008019c4 	movi	r2,103
   832e8:	da413c17 	ldw	r9,1264(sp)
   832ec:	90818c1e 	bne	r18,r2,83920 <___vfprintf_internal_r+0x1d30>
   832f0:	8080004c 	andi	r2,r16,1
   832f4:	10017926 	beq	r2,zero,838dc <___vfprintf_internal_r+0x1cec>
   832f8:	00801184 	movi	r2,70
   832fc:	9dc7883a 	add	r3,r19,r23
   83300:	90810626 	beq	r18,r2,8371c <___vfprintf_internal_r+0x1b2c>
   83304:	b009883a 	mov	r4,r22
   83308:	a00b883a 	mov	r5,r20
   8330c:	000d883a 	mov	r6,zero
   83310:	000f883a 	mov	r7,zero
   83314:	d8c13b15 	stw	r3,1260(sp)
   83318:	da413c15 	stw	r9,1264(sp)
   8331c:	008a4100 	call	8a410 <__eqdf2>
   83320:	d8c13b17 	ldw	r3,1260(sp)
   83324:	da413c17 	ldw	r9,1264(sp)
   83328:	10000726 	beq	r2,zero,83348 <___vfprintf_internal_r+0x1758>
   8332c:	d8812217 	ldw	r2,1160(sp)
   83330:	10c1962e 	bgeu	r2,r3,8398c <___vfprintf_internal_r+0x1d9c>
   83334:	01000c04 	movi	r4,48
   83338:	11000005 	stb	r4,0(r2)
   8333c:	10800044 	addi	r2,r2,1
   83340:	d8812215 	stw	r2,1160(sp)
   83344:	10fffc1e 	bne	r2,r3,83338 <___vfprintf_internal_r+0x1748>
   83348:	1cc7c83a 	sub	r3,r3,r19
   8334c:	d8c13215 	stw	r3,1224(sp)
   83350:	008019c4 	movi	r2,103
   83354:	90810626 	beq	r18,r2,83770 <___vfprintf_internal_r+0x1b80>
   83358:	008011c4 	movi	r2,71
   8335c:	90810426 	beq	r18,r2,83770 <___vfprintf_internal_r+0x1b80>
   83360:	00801984 	movi	r2,102
   83364:	90819a1e 	bne	r18,r2,839d0 <___vfprintf_internal_r+0x1de0>
   83368:	d8812417 	ldw	r2,1168(sp)
   8336c:	d8812b15 	stw	r2,1196(sp)
   83370:	0081880e 	bge	zero,r2,83994 <___vfprintf_internal_r+0x1da4>
   83374:	e000021e 	bne	fp,zero,83380 <___vfprintf_internal_r+0x1790>
   83378:	8400004c 	andi	r16,r16,1
   8337c:	80000426 	beq	r16,zero,83390 <___vfprintf_internal_r+0x17a0>
   83380:	d8812b17 	ldw	r2,1196(sp)
   83384:	e2000044 	addi	r8,fp,1
   83388:	1205883a 	add	r2,r2,r8
   8338c:	d8812b15 	stw	r2,1196(sp)
   83390:	d8812815 	stw	r2,1184(sp)
   83394:	10011716 	blt	r2,zero,837f4 <___vfprintf_internal_r+0x1c04>
   83398:	ddc12f07 	ldb	r23,1212(sp)
   8339c:	b800ca26 	beq	r23,zero,836c8 <___vfprintf_internal_r+0x1ad8>
   833a0:	00800b44 	movi	r2,45
   833a4:	d8812585 	stb	r2,1174(sp)
   833a8:	dc012a17 	ldw	r16,1192(sp)
   833ac:	d8013115 	stw	zero,1220(sp)
   833b0:	003afe06 	br	81fac <___vfprintf_internal_r+0x3bc>
   833b4:	d8812b17 	ldw	r2,1196(sp)
   833b8:	d8812815 	stw	r2,1184(sp)
   833bc:	10005e16 	blt	r2,zero,83538 <___vfprintf_internal_r+0x1948>
   833c0:	d8812583 	ldbu	r2,1174(sp)
   833c4:	ddc12d15 	stw	r23,1204(sp)
   833c8:	d8013115 	stw	zero,1220(sp)
   833cc:	003af306 	br	81f9c <___vfprintf_internal_r+0x3ac>
   833d0:	d8812d17 	ldw	r2,1204(sp)
   833d4:	15c00017 	ldw	r23,0(r2)
   833d8:	10800104 	addi	r2,r2,4
   833dc:	d8812d15 	stw	r2,1204(sp)
   833e0:	b82dd7fa 	srai	r22,r23,31
   833e4:	b005883a 	mov	r2,r22
   833e8:	003b4906 	br	82110 <___vfprintf_internal_r+0x520>
   833ec:	d8c12d17 	ldw	r3,1204(sp)
   833f0:	002d883a 	mov	r22,zero
   833f4:	1dc00017 	ldw	r23,0(r3)
   833f8:	18c00104 	addi	r3,r3,4
   833fc:	d8c12d15 	stw	r3,1204(sp)
   83400:	b805883a 	mov	r2,r23
   83404:	00c00044 	movi	r3,1
   83408:	d8012585 	stb	zero,1174(sp)
   8340c:	003acf06 	br	81f4c <___vfprintf_internal_r+0x35c>
   83410:	da012d17 	ldw	r8,1204(sp)
   83414:	002d883a 	mov	r22,zero
   83418:	45c00017 	ldw	r23,0(r8)
   8341c:	42000104 	addi	r8,r8,4
   83420:	da012d15 	stw	r8,1204(sp)
   83424:	003be506 	br	823bc <___vfprintf_internal_r+0x7cc>
   83428:	da012d17 	ldw	r8,1204(sp)
   8342c:	002d883a 	mov	r22,zero
   83430:	0007883a 	mov	r3,zero
   83434:	45c00017 	ldw	r23,0(r8)
   83438:	42000104 	addi	r8,r8,4
   8343c:	da012d15 	stw	r8,1204(sp)
   83440:	b805883a 	mov	r2,r23
   83444:	d8012585 	stb	zero,1174(sp)
   83448:	003ac006 	br	81f4c <___vfprintf_internal_r+0x35c>
   8344c:	d8c12d17 	ldw	r3,1204(sp)
   83450:	d9012c17 	ldw	r4,1200(sp)
   83454:	18800017 	ldw	r2,0(r3)
   83458:	18c00104 	addi	r3,r3,4
   8345c:	d8c12d15 	stw	r3,1204(sp)
   83460:	11000015 	stw	r4,0(r2)
   83464:	003a1806 	br	81cc8 <___vfprintf_internal_r+0xd8>
   83468:	073fffc4 	movi	fp,-1
   8346c:	202b883a 	mov	r21,r4
   83470:	003a3e06 	br	81d6c <___vfprintf_internal_r+0x17c>
   83474:	008011c4 	movi	r2,71
   83478:	14809016 	blt	r2,r18,836bc <___vfprintf_internal_r+0x1acc>
   8347c:	04c00274 	movhi	r19,9
   83480:	9cf86304 	addi	r19,r19,-7796
   83484:	00c000c4 	movi	r3,3
   83488:	00bfdfc4 	movi	r2,-129
   8348c:	80a0703a 	and	r16,r16,r2
   83490:	d8c12815 	stw	r3,1184(sp)
   83494:	d8812583 	ldbu	r2,1174(sp)
   83498:	d8c12b15 	stw	r3,1196(sp)
   8349c:	d8013115 	stw	zero,1220(sp)
   834a0:	003abe06 	br	81f9c <___vfprintf_internal_r+0x3ac>
   834a4:	d9412917 	ldw	r5,1188(sp)
   834a8:	8809883a 	mov	r4,r17
   834ac:	d9811b04 	addi	r6,sp,1132
   834b0:	0081bbc0 	call	81bbc <__sprint_r>
   834b4:	103b611e 	bne	r2,zero,8223c <___vfprintf_internal_r+0x64c>
   834b8:	dc812417 	ldw	r18,1168(sp)
   834bc:	da011d17 	ldw	r8,1140(sp)
   834c0:	da400404 	addi	r9,sp,16
   834c4:	003f3506 	br	8319c <___vfprintf_internal_r+0x15ac>
   834c8:	ad400044 	addi	r21,r21,1
   834cc:	84000814 	ori	r16,r16,32
   834d0:	14800047 	ldb	r18,1(r2)
   834d4:	003a2406 	br	81d68 <___vfprintf_internal_r+0x178>
   834d8:	d9412917 	ldw	r5,1188(sp)
   834dc:	8809883a 	mov	r4,r17
   834e0:	d9811b04 	addi	r6,sp,1132
   834e4:	0081bbc0 	call	81bbc <__sprint_r>
   834e8:	103b541e 	bne	r2,zero,8223c <___vfprintf_internal_r+0x64c>
   834ec:	da011d17 	ldw	r8,1140(sp)
   834f0:	da400404 	addi	r9,sp,16
   834f4:	003d4a06 	br	82a20 <___vfprintf_internal_r+0xe30>
   834f8:	4d000015 	stw	r20,0(r9)
   834fc:	4c800115 	stw	r18,4(r9)
   83500:	4491883a 	add	r8,r8,r18
   83504:	18c00044 	addi	r3,r3,1
   83508:	da011d15 	stw	r8,1140(sp)
   8350c:	d8c11c15 	stw	r3,1136(sp)
   83510:	008001c4 	movi	r2,7
   83514:	10fcdc16 	blt	r2,r3,82888 <___vfprintf_internal_r+0xc98>
   83518:	4a400204 	addi	r9,r9,8
   8351c:	003ce106 	br	828a4 <___vfprintf_internal_r+0xcb4>
   83520:	da413c15 	stw	r9,1264(sp)
   83524:	0081b300 	call	81b30 <strlen>
   83528:	d8812b15 	stw	r2,1196(sp)
   8352c:	d8812815 	stw	r2,1184(sp)
   83530:	da413c17 	ldw	r9,1264(sp)
   83534:	103fa20e 	bge	r2,zero,833c0 <___vfprintf_internal_r+0x17d0>
   83538:	d8012815 	stw	zero,1184(sp)
   8353c:	003fa006 	br	833c0 <___vfprintf_internal_r+0x17d0>
   83540:	d9412917 	ldw	r5,1188(sp)
   83544:	8809883a 	mov	r4,r17
   83548:	d9811b04 	addi	r6,sp,1132
   8354c:	0081bbc0 	call	81bbc <__sprint_r>
   83550:	103b3a1e 	bne	r2,zero,8223c <___vfprintf_internal_r+0x64c>
   83554:	da011d17 	ldw	r8,1140(sp)
   83558:	d8c11c17 	ldw	r3,1136(sp)
   8355c:	da400404 	addi	r9,sp,16
   83560:	d8813217 	ldw	r2,1224(sp)
   83564:	4cc00015 	stw	r19,0(r9)
   83568:	48800115 	stw	r2,4(r9)
   8356c:	4091883a 	add	r8,r8,r2
   83570:	003c8106 	br	82778 <___vfprintf_internal_r+0xb88>
   83574:	00800b44 	movi	r2,45
   83578:	d8812585 	stb	r2,1174(sp)
   8357c:	003be306 	br	8250c <___vfprintf_internal_r+0x91c>
   83580:	4d000015 	stw	r20,0(r9)
   83584:	4c800115 	stw	r18,4(r9)
   83588:	4491883a 	add	r8,r8,r18
   8358c:	18c00044 	addi	r3,r3,1
   83590:	da011d15 	stw	r8,1140(sp)
   83594:	d8c11c15 	stw	r3,1136(sp)
   83598:	008001c4 	movi	r2,7
   8359c:	10ffe816 	blt	r2,r3,83540 <___vfprintf_internal_r+0x1950>
   835a0:	4a400204 	addi	r9,r9,8
   835a4:	003fee06 	br	83560 <___vfprintf_internal_r+0x1970>
   835a8:	df012b15 	stw	fp,1196(sp)
   835ac:	00800184 	movi	r2,6
   835b0:	1700072e 	bgeu	r2,fp,835d0 <___vfprintf_internal_r+0x19e0>
   835b4:	d8812b15 	stw	r2,1196(sp)
   835b8:	d8812815 	stw	r2,1184(sp)
   835bc:	ddc12d15 	stw	r23,1204(sp)
   835c0:	04c00274 	movhi	r19,9
   835c4:	9cf86f04 	addi	r19,r19,-7748
   835c8:	d8013115 	stw	zero,1220(sp)
   835cc:	003a7a06 	br	81fb8 <___vfprintf_internal_r+0x3c8>
   835d0:	d8812b17 	ldw	r2,1196(sp)
   835d4:	d8812815 	stw	r2,1184(sp)
   835d8:	103ff80e 	bge	r2,zero,835bc <___vfprintf_internal_r+0x19cc>
   835dc:	d8012815 	stw	zero,1184(sp)
   835e0:	003ff606 	br	835bc <___vfprintf_internal_r+0x19cc>
   835e4:	d9012d17 	ldw	r4,1204(sp)
   835e8:	da012c17 	ldw	r8,1200(sp)
   835ec:	20800017 	ldw	r2,0(r4)
   835f0:	21000104 	addi	r4,r4,4
   835f4:	d9012d15 	stw	r4,1204(sp)
   835f8:	12000015 	stw	r8,0(r2)
   835fc:	0039b206 	br	81cc8 <___vfprintf_internal_r+0xd8>
   83600:	d9412917 	ldw	r5,1188(sp)
   83604:	8809883a 	mov	r4,r17
   83608:	d9811b04 	addi	r6,sp,1132
   8360c:	0081bbc0 	call	81bbc <__sprint_r>
   83610:	103b0a1e 	bne	r2,zero,8223c <___vfprintf_internal_r+0x64c>
   83614:	dc812417 	ldw	r18,1168(sp)
   83618:	da011d17 	ldw	r8,1140(sp)
   8361c:	da400404 	addi	r9,sp,16
   83620:	003def06 	br	82de0 <___vfprintf_internal_r+0x11f0>
   83624:	d9412917 	ldw	r5,1188(sp)
   83628:	8809883a 	mov	r4,r17
   8362c:	d9811b04 	addi	r6,sp,1132
   83630:	0081bbc0 	call	81bbc <__sprint_r>
   83634:	103b011e 	bne	r2,zero,8223c <___vfprintf_internal_r+0x64c>
   83638:	dc812417 	ldw	r18,1168(sp)
   8363c:	da400404 	addi	r9,sp,16
   83640:	003eb906 	br	83128 <___vfprintf_internal_r+0x1538>
   83644:	d9412917 	ldw	r5,1188(sp)
   83648:	8809883a 	mov	r4,r17
   8364c:	d9811b04 	addi	r6,sp,1132
   83650:	0081bbc0 	call	81bbc <__sprint_r>
   83654:	103af91e 	bne	r2,zero,8223c <___vfprintf_internal_r+0x64c>
   83658:	dc812417 	ldw	r18,1168(sp)
   8365c:	da011d17 	ldw	r8,1140(sp)
   83660:	d8c11c17 	ldw	r3,1136(sp)
   83664:	da400404 	addi	r9,sp,16
   83668:	003ea306 	br	830f8 <___vfprintf_internal_r+0x1508>
   8366c:	00800244 	movi	r2,9
   83670:	15fda636 	bltu	r2,r23,82d0c <___vfprintf_internal_r+0x111c>
   83674:	dd010e04 	addi	r20,sp,1080
   83678:	003dc206 	br	82d84 <___vfprintf_internal_r+0x1194>
   8367c:	df012815 	stw	fp,1184(sp)
   83680:	d8812583 	ldbu	r2,1174(sp)
   83684:	df012b15 	stw	fp,1196(sp)
   83688:	ddc12d15 	stw	r23,1204(sp)
   8368c:	d8013115 	stw	zero,1220(sp)
   83690:	003a4206 	br	81f9c <___vfprintf_internal_r+0x3ac>
   83694:	d9412917 	ldw	r5,1188(sp)
   83698:	8809883a 	mov	r4,r17
   8369c:	d9811b04 	addi	r6,sp,1132
   836a0:	0081bbc0 	call	81bbc <__sprint_r>
   836a4:	103ae51e 	bne	r2,zero,8223c <___vfprintf_internal_r+0x64c>
   836a8:	dc812417 	ldw	r18,1168(sp)
   836ac:	da011d17 	ldw	r8,1140(sp)
   836b0:	d8c11c17 	ldw	r3,1136(sp)
   836b4:	da400404 	addi	r9,sp,16
   836b8:	003ec906 	br	831e0 <___vfprintf_internal_r+0x15f0>
   836bc:	04c00274 	movhi	r19,9
   836c0:	9cf86404 	addi	r19,r19,-7792
   836c4:	003f6f06 	br	83484 <___vfprintf_internal_r+0x1894>
   836c8:	d8812583 	ldbu	r2,1174(sp)
   836cc:	dc012a17 	ldw	r16,1192(sp)
   836d0:	d8013115 	stw	zero,1220(sp)
   836d4:	003a3106 	br	81f9c <___vfprintf_internal_r+0x3ac>
   836d8:	d8812404 	addi	r2,sp,1168
   836dc:	d8800115 	stw	r2,4(sp)
   836e0:	d8812304 	addi	r2,sp,1164
   836e4:	d8800215 	stw	r2,8(sp)
   836e8:	d8812204 	addi	r2,sp,1160
   836ec:	df000015 	stw	fp,0(sp)
   836f0:	d8800315 	stw	r2,12(sp)
   836f4:	8809883a 	mov	r4,r17
   836f8:	b00b883a 	mov	r5,r22
   836fc:	a00d883a 	mov	r6,r20
   83700:	01c000c4 	movi	r7,3
   83704:	da413c15 	stw	r9,1264(sp)
   83708:	0083d880 	call	83d88 <_dtoa_r>
   8370c:	da413c17 	ldw	r9,1264(sp)
   83710:	1027883a 	mov	r19,r2
   83714:	1707883a 	add	r3,r2,fp
   83718:	e02f883a 	mov	r23,fp
   8371c:	99000007 	ldb	r4,0(r19)
   83720:	00800c04 	movi	r2,48
   83724:	20800326 	beq	r4,r2,83734 <___vfprintf_internal_r+0x1b44>
   83728:	da812417 	ldw	r10,1168(sp)
   8372c:	1a87883a 	add	r3,r3,r10
   83730:	003ef406 	br	83304 <___vfprintf_internal_r+0x1714>
   83734:	b009883a 	mov	r4,r22
   83738:	a00b883a 	mov	r5,r20
   8373c:	000d883a 	mov	r6,zero
   83740:	000f883a 	mov	r7,zero
   83744:	d8c13b15 	stw	r3,1260(sp)
   83748:	da413c15 	stw	r9,1264(sp)
   8374c:	008a46c0 	call	8a46c <__nedf2>
   83750:	d8c13b17 	ldw	r3,1260(sp)
   83754:	da413c17 	ldw	r9,1264(sp)
   83758:	103ff326 	beq	r2,zero,83728 <___vfprintf_internal_r+0x1b38>
   8375c:	00800044 	movi	r2,1
   83760:	15d5c83a 	sub	r10,r2,r23
   83764:	da812415 	stw	r10,1168(sp)
   83768:	1a87883a 	add	r3,r3,r10
   8376c:	003ee506 	br	83304 <___vfprintf_internal_r+0x1714>
   83770:	d8812417 	ldw	r2,1168(sp)
   83774:	d8812b15 	stw	r2,1196(sp)
   83778:	1029883a 	mov	r20,r2
   8377c:	00bfff44 	movi	r2,-3
   83780:	a0800116 	blt	r20,r2,83788 <___vfprintf_internal_r+0x1b98>
   83784:	e5001d0e 	bge	fp,r20,837fc <___vfprintf_internal_r+0x1c0c>
   83788:	94bfff84 	addi	r18,r18,-2
   8378c:	a53fffc4 	addi	r20,r20,-1
   83790:	dd012415 	stw	r20,1168(sp)
   83794:	dc811fc5 	stb	r18,1151(sp)
   83798:	a0007816 	blt	r20,zero,8397c <___vfprintf_internal_r+0x1d8c>
   8379c:	00800ac4 	movi	r2,43
   837a0:	d8812005 	stb	r2,1152(sp)
   837a4:	00800244 	movi	r2,9
   837a8:	15002b16 	blt	r2,r20,83858 <___vfprintf_internal_r+0x1c68>
   837ac:	00800c04 	movi	r2,48
   837b0:	a5000c04 	addi	r20,r20,48
   837b4:	d8812045 	stb	r2,1153(sp)
   837b8:	dd012085 	stb	r20,1154(sp)
   837bc:	d8c120c4 	addi	r3,sp,1155
   837c0:	d8811fc4 	addi	r2,sp,1151
   837c4:	da013217 	ldw	r8,1224(sp)
   837c8:	1885c83a 	sub	r2,r3,r2
   837cc:	d8813515 	stw	r2,1236(sp)
   837d0:	4085883a 	add	r2,r8,r2
   837d4:	d8812b15 	stw	r2,1196(sp)
   837d8:	00800044 	movi	r2,1
   837dc:	1200610e 	bge	r2,r8,83964 <___vfprintf_internal_r+0x1d74>
   837e0:	d8812b17 	ldw	r2,1196(sp)
   837e4:	10800044 	addi	r2,r2,1
   837e8:	d8812b15 	stw	r2,1196(sp)
   837ec:	d8812815 	stw	r2,1184(sp)
   837f0:	103ee90e 	bge	r2,zero,83398 <___vfprintf_internal_r+0x17a8>
   837f4:	d8012815 	stw	zero,1184(sp)
   837f8:	003ee706 	br	83398 <___vfprintf_internal_r+0x17a8>
   837fc:	d8812b17 	ldw	r2,1196(sp)
   83800:	da013217 	ldw	r8,1224(sp)
   83804:	12003716 	blt	r2,r8,838e4 <___vfprintf_internal_r+0x1cf4>
   83808:	8400004c 	andi	r16,r16,1
   8380c:	80000326 	beq	r16,zero,8381c <___vfprintf_internal_r+0x1c2c>
   83810:	d8812b17 	ldw	r2,1196(sp)
   83814:	10800044 	addi	r2,r2,1
   83818:	d8812b15 	stw	r2,1196(sp)
   8381c:	d8812815 	stw	r2,1184(sp)
   83820:	10003716 	blt	r2,zero,83900 <___vfprintf_internal_r+0x1d10>
   83824:	048019c4 	movi	r18,103
   83828:	003edb06 	br	83398 <___vfprintf_internal_r+0x17a8>
   8382c:	d8012815 	stw	zero,1184(sp)
   83830:	003b6906 	br	825d8 <___vfprintf_internal_r+0x9e8>
   83834:	e03e901e 	bne	fp,zero,83278 <___vfprintf_internal_r+0x1688>
   83838:	07000044 	movi	fp,1
   8383c:	003e8e06 	br	83278 <___vfprintf_internal_r+0x1688>
   83840:	07000184 	movi	fp,6
   83844:	003e8c06 	br	83278 <___vfprintf_internal_r+0x1688>
   83848:	00c00b44 	movi	r3,45
   8384c:	a520003c 	xorhi	r20,r20,32768
   83850:	d8c12f05 	stb	r3,1212(sp)
   83854:	003e8c06 	br	83288 <___vfprintf_internal_r+0x1698>
   83858:	d8c11f84 	addi	r3,sp,1150
   8385c:	102f883a 	mov	r23,r2
   83860:	4839883a 	mov	fp,r9
   83864:	a009883a 	mov	r4,r20
   83868:	01400284 	movi	r5,10
   8386c:	182d883a 	mov	r22,r3
   83870:	008182c0 	call	8182c <__modsi3>
   83874:	10800c04 	addi	r2,r2,48
   83878:	a009883a 	mov	r4,r20
   8387c:	b0800005 	stb	r2,0(r22)
   83880:	01400284 	movi	r5,10
   83884:	00817dc0 	call	817dc <__divsi3>
   83888:	1029883a 	mov	r20,r2
   8388c:	b0ffffc4 	addi	r3,r22,-1
   83890:	b8bff416 	blt	r23,r2,83864 <___vfprintf_internal_r+0x1c74>
   83894:	11400c04 	addi	r5,r2,48
   83898:	b17fffc5 	stb	r5,-1(r22)
   8389c:	d8811fc4 	addi	r2,sp,1151
   838a0:	e013883a 	mov	r9,fp
   838a4:	1880482e 	bgeu	r3,r2,839c8 <___vfprintf_internal_r+0x1dd8>
   838a8:	b007883a 	mov	r3,r22
   838ac:	d9012044 	addi	r4,sp,1153
   838b0:	00000206 	br	838bc <___vfprintf_internal_r+0x1ccc>
   838b4:	19400003 	ldbu	r5,0(r3)
   838b8:	18c00044 	addi	r3,r3,1
   838bc:	21400005 	stb	r5,0(r4)
   838c0:	21000044 	addi	r4,r4,1
   838c4:	10fffb1e 	bne	r2,r3,838b4 <___vfprintf_internal_r+0x1cc4>
   838c8:	d8c12004 	addi	r3,sp,1152
   838cc:	1d87c83a 	sub	r3,r3,r22
   838d0:	d9012044 	addi	r4,sp,1153
   838d4:	20c7883a 	add	r3,r4,r3
   838d8:	003fba06 	br	837c4 <___vfprintf_internal_r+0x1bd4>
   838dc:	d8c12217 	ldw	r3,1160(sp)
   838e0:	003e9906 	br	83348 <___vfprintf_internal_r+0x1758>
   838e4:	05000b0e 	bge	zero,r20,83914 <___vfprintf_internal_r+0x1d24>
   838e8:	05000044 	movi	r20,1
   838ec:	da013217 	ldw	r8,1224(sp)
   838f0:	a229883a 	add	r20,r20,r8
   838f4:	dd012b15 	stw	r20,1196(sp)
   838f8:	dd012815 	stw	r20,1184(sp)
   838fc:	a03fc90e 	bge	r20,zero,83824 <___vfprintf_internal_r+0x1c34>
   83900:	d8012815 	stw	zero,1184(sp)
   83904:	048019c4 	movi	r18,103
   83908:	003ea306 	br	83398 <___vfprintf_internal_r+0x17a8>
   8390c:	e5c00044 	addi	r23,fp,1
   83910:	003e6606 	br	832ac <___vfprintf_internal_r+0x16bc>
   83914:	00800084 	movi	r2,2
   83918:	1529c83a 	sub	r20,r2,r20
   8391c:	003ff306 	br	838ec <___vfprintf_internal_r+0x1cfc>
   83920:	008011c4 	movi	r2,71
   83924:	90be7226 	beq	r18,r2,832f0 <___vfprintf_internal_r+0x1700>
   83928:	003e7306 	br	832f8 <___vfprintf_internal_r+0x1708>
   8392c:	d8812d17 	ldw	r2,1204(sp)
   83930:	ac800043 	ldbu	r18,1(r21)
   83934:	202b883a 	mov	r21,r4
   83938:	17000017 	ldw	fp,0(r2)
   8393c:	10800104 	addi	r2,r2,4
   83940:	d8812d15 	stw	r2,1204(sp)
   83944:	e0001b16 	blt	fp,zero,839b4 <___vfprintf_internal_r+0x1dc4>
   83948:	94803fcc 	andi	r18,r18,255
   8394c:	9480201c 	xori	r18,r18,128
   83950:	94bfe004 	addi	r18,r18,-128
   83954:	00390406 	br	81d68 <___vfprintf_internal_r+0x178>
   83958:	00bfffc4 	movi	r2,-1
   8395c:	d8812c15 	stw	r2,1200(sp)
   83960:	003a2506 	br	821f8 <___vfprintf_internal_r+0x608>
   83964:	80a0703a 	and	r16,r16,r2
   83968:	803f9d1e 	bne	r16,zero,837e0 <___vfprintf_internal_r+0x1bf0>
   8396c:	d8812b17 	ldw	r2,1196(sp)
   83970:	d8812815 	stw	r2,1184(sp)
   83974:	103e880e 	bge	r2,zero,83398 <___vfprintf_internal_r+0x17a8>
   83978:	003f9e06 	br	837f4 <___vfprintf_internal_r+0x1c04>
   8397c:	00800b44 	movi	r2,45
   83980:	0529c83a 	sub	r20,zero,r20
   83984:	d8812005 	stb	r2,1152(sp)
   83988:	003f8606 	br	837a4 <___vfprintf_internal_r+0x1bb4>
   8398c:	1007883a 	mov	r3,r2
   83990:	003e6d06 	br	83348 <___vfprintf_internal_r+0x1758>
   83994:	e000021e 	bne	fp,zero,839a0 <___vfprintf_internal_r+0x1db0>
   83998:	8400004c 	andi	r16,r16,1
   8399c:	80000e26 	beq	r16,zero,839d8 <___vfprintf_internal_r+0x1de8>
   839a0:	e7000084 	addi	fp,fp,2
   839a4:	df012b15 	stw	fp,1196(sp)
   839a8:	df012815 	stw	fp,1184(sp)
   839ac:	e03e7a0e 	bge	fp,zero,83398 <___vfprintf_internal_r+0x17a8>
   839b0:	003f9006 	br	837f4 <___vfprintf_internal_r+0x1c04>
   839b4:	94803fcc 	andi	r18,r18,255
   839b8:	9480201c 	xori	r18,r18,128
   839bc:	073fffc4 	movi	fp,-1
   839c0:	94bfe004 	addi	r18,r18,-128
   839c4:	0038e806 	br	81d68 <___vfprintf_internal_r+0x178>
   839c8:	d8c12044 	addi	r3,sp,1153
   839cc:	003f7d06 	br	837c4 <___vfprintf_internal_r+0x1bd4>
   839d0:	dd012417 	ldw	r20,1168(sp)
   839d4:	003f6d06 	br	8378c <___vfprintf_internal_r+0x1b9c>
   839d8:	00c00044 	movi	r3,1
   839dc:	d8c12815 	stw	r3,1184(sp)
   839e0:	d8c12b15 	stw	r3,1196(sp)
   839e4:	003e6c06 	br	83398 <___vfprintf_internal_r+0x17a8>

000839e8 <__vfprintf_internal>:
   839e8:	00800274 	movhi	r2,9
   839ec:	10bfef04 	addi	r2,r2,-68
   839f0:	2007883a 	mov	r3,r4
   839f4:	11000017 	ldw	r4,0(r2)
   839f8:	2805883a 	mov	r2,r5
   839fc:	300f883a 	mov	r7,r6
   83a00:	180b883a 	mov	r5,r3
   83a04:	100d883a 	mov	r6,r2
   83a08:	0081bf01 	jmpi	81bf0 <___vfprintf_internal_r>

00083a0c <__swsetup_r>:
   83a0c:	00800274 	movhi	r2,9
   83a10:	10bfef04 	addi	r2,r2,-68
   83a14:	10800017 	ldw	r2,0(r2)
   83a18:	defffd04 	addi	sp,sp,-12
   83a1c:	dc400115 	stw	r17,4(sp)
   83a20:	dc000015 	stw	r16,0(sp)
   83a24:	dfc00215 	stw	ra,8(sp)
   83a28:	2023883a 	mov	r17,r4
   83a2c:	2821883a 	mov	r16,r5
   83a30:	10000226 	beq	r2,zero,83a3c <__swsetup_r+0x30>
   83a34:	10c00e17 	ldw	r3,56(r2)
   83a38:	18003d26 	beq	r3,zero,83b30 <__swsetup_r+0x124>
   83a3c:	8080030b 	ldhu	r2,12(r16)
   83a40:	10c0020c 	andi	r3,r2,8
   83a44:	18ffffcc 	andi	r3,r3,65535
   83a48:	18e0001c 	xori	r3,r3,32768
   83a4c:	18e00004 	addi	r3,r3,-32768
   83a50:	18001226 	beq	r3,zero,83a9c <__swsetup_r+0x90>
   83a54:	80c00417 	ldw	r3,16(r16)
   83a58:	18001f26 	beq	r3,zero,83ad8 <__swsetup_r+0xcc>
   83a5c:	1100004c 	andi	r4,r2,1
   83a60:	2000261e 	bne	r4,zero,83afc <__swsetup_r+0xf0>
   83a64:	1080008c 	andi	r2,r2,2
   83a68:	10bfffcc 	andi	r2,r2,65535
   83a6c:	10a0001c 	xori	r2,r2,32768
   83a70:	10a00004 	addi	r2,r2,-32768
   83a74:	1000311e 	bne	r2,zero,83b3c <__swsetup_r+0x130>
   83a78:	80800517 	ldw	r2,20(r16)
   83a7c:	80800215 	stw	r2,8(r16)
   83a80:	18002326 	beq	r3,zero,83b10 <__swsetup_r+0x104>
   83a84:	0005883a 	mov	r2,zero
   83a88:	dfc00217 	ldw	ra,8(sp)
   83a8c:	dc400117 	ldw	r17,4(sp)
   83a90:	dc000017 	ldw	r16,0(sp)
   83a94:	dec00304 	addi	sp,sp,12
   83a98:	f800283a 	ret
   83a9c:	10c0040c 	andi	r3,r2,16
   83aa0:	18ffffcc 	andi	r3,r3,65535
   83aa4:	18e0001c 	xori	r3,r3,32768
   83aa8:	18e00004 	addi	r3,r3,-32768
   83aac:	18001e26 	beq	r3,zero,83b28 <__swsetup_r+0x11c>
   83ab0:	10c0010c 	andi	r3,r2,4
   83ab4:	18ffffcc 	andi	r3,r3,65535
   83ab8:	18e0001c 	xori	r3,r3,32768
   83abc:	18e00004 	addi	r3,r3,-32768
   83ac0:	1800211e 	bne	r3,zero,83b48 <__swsetup_r+0x13c>
   83ac4:	80c00417 	ldw	r3,16(r16)
   83ac8:	11400214 	ori	r5,r2,8
   83acc:	8140030d 	sth	r5,12(r16)
   83ad0:	2805883a 	mov	r2,r5
   83ad4:	183fe11e 	bne	r3,zero,83a5c <__swsetup_r+0x50>
   83ad8:	1140a00c 	andi	r5,r2,640
   83adc:	01008004 	movi	r4,512
   83ae0:	293fde26 	beq	r5,r4,83a5c <__swsetup_r+0x50>
   83ae4:	8809883a 	mov	r4,r17
   83ae8:	800b883a 	mov	r5,r16
   83aec:	00863c00 	call	863c0 <__smakebuf_r>
   83af0:	8080030b 	ldhu	r2,12(r16)
   83af4:	80c00417 	ldw	r3,16(r16)
   83af8:	003fd806 	br	83a5c <__swsetup_r+0x50>
   83afc:	80800517 	ldw	r2,20(r16)
   83b00:	80000215 	stw	zero,8(r16)
   83b04:	0085c83a 	sub	r2,zero,r2
   83b08:	80800615 	stw	r2,24(r16)
   83b0c:	183fdd1e 	bne	r3,zero,83a84 <__swsetup_r+0x78>
   83b10:	8080030b 	ldhu	r2,12(r16)
   83b14:	1080200c 	andi	r2,r2,128
   83b18:	10bfffcc 	andi	r2,r2,65535
   83b1c:	10a0001c 	xori	r2,r2,32768
   83b20:	10a00004 	addi	r2,r2,-32768
   83b24:	103fd826 	beq	r2,zero,83a88 <__swsetup_r+0x7c>
   83b28:	00bfffc4 	movi	r2,-1
   83b2c:	003fd606 	br	83a88 <__swsetup_r+0x7c>
   83b30:	1009883a 	mov	r4,r2
   83b34:	008564c0 	call	8564c <__sinit>
   83b38:	003fc006 	br	83a3c <__swsetup_r+0x30>
   83b3c:	0005883a 	mov	r2,zero
   83b40:	80800215 	stw	r2,8(r16)
   83b44:	003fce06 	br	83a80 <__swsetup_r+0x74>
   83b48:	81400c17 	ldw	r5,48(r16)
   83b4c:	28000626 	beq	r5,zero,83b68 <__swsetup_r+0x15c>
   83b50:	80c01004 	addi	r3,r16,64
   83b54:	28c00326 	beq	r5,r3,83b64 <__swsetup_r+0x158>
   83b58:	8809883a 	mov	r4,r17
   83b5c:	00859d00 	call	859d0 <_free_r>
   83b60:	8080030b 	ldhu	r2,12(r16)
   83b64:	80000c15 	stw	zero,48(r16)
   83b68:	80c00417 	ldw	r3,16(r16)
   83b6c:	013ff6c4 	movi	r4,-37
   83b70:	2084703a 	and	r2,r4,r2
   83b74:	80000115 	stw	zero,4(r16)
   83b78:	80c00015 	stw	r3,0(r16)
   83b7c:	003fd206 	br	83ac8 <__swsetup_r+0xbc>

00083b80 <quorem>:
   83b80:	defff704 	addi	sp,sp,-36
   83b84:	dc400115 	stw	r17,4(sp)
   83b88:	20800417 	ldw	r2,16(r4)
   83b8c:	2c400417 	ldw	r17,16(r5)
   83b90:	dd800615 	stw	r22,24(sp)
   83b94:	dd400515 	stw	r21,20(sp)
   83b98:	dfc00815 	stw	ra,32(sp)
   83b9c:	ddc00715 	stw	r23,28(sp)
   83ba0:	dd000415 	stw	r20,16(sp)
   83ba4:	dcc00315 	stw	r19,12(sp)
   83ba8:	dc800215 	stw	r18,8(sp)
   83bac:	dc000015 	stw	r16,0(sp)
   83bb0:	202b883a 	mov	r21,r4
   83bb4:	282d883a 	mov	r22,r5
   83bb8:	14407116 	blt	r2,r17,83d80 <quorem+0x200>
   83bbc:	88800104 	addi	r2,r17,4
   83bc0:	1085883a 	add	r2,r2,r2
   83bc4:	1085883a 	add	r2,r2,r2
   83bc8:	28a7883a 	add	r19,r5,r2
   83bcc:	2085883a 	add	r2,r4,r2
   83bd0:	15c00017 	ldw	r23,0(r2)
   83bd4:	99400017 	ldw	r5,0(r19)
   83bd8:	8c7fffc4 	addi	r17,r17,-1
   83bdc:	b809883a 	mov	r4,r23
   83be0:	29400044 	addi	r5,r5,1
   83be4:	00818880 	call	81888 <__udivsi3>
   83be8:	1025883a 	mov	r18,r2
   83bec:	b4000504 	addi	r16,r22,20
   83bf0:	ad000504 	addi	r20,r21,20
   83bf4:	10002d26 	beq	r2,zero,83cac <quorem+0x12c>
   83bf8:	800d883a 	mov	r6,r16
   83bfc:	a007883a 	mov	r3,r20
   83c00:	000f883a 	mov	r7,zero
   83c04:	0005883a 	mov	r2,zero
   83c08:	32c00017 	ldw	r11,0(r6)
   83c0c:	1a400017 	ldw	r9,0(r3)
   83c10:	31800104 	addi	r6,r6,4
   83c14:	5abfffcc 	andi	r10,r11,65535
   83c18:	5495383a 	mul	r10,r10,r18
   83c1c:	5816d43a 	srli	r11,r11,16
   83c20:	4a3fffcc 	andi	r8,r9,65535
   83c24:	3a95883a 	add	r10,r7,r10
   83c28:	500ed43a 	srli	r7,r10,16
   83c2c:	5c97383a 	mul	r11,r11,r18
   83c30:	4085883a 	add	r2,r8,r2
   83c34:	52bfffcc 	andi	r10,r10,65535
   83c38:	1291c83a 	sub	r8,r2,r10
   83c3c:	4804d43a 	srli	r2,r9,16
   83c40:	3acf883a 	add	r7,r7,r11
   83c44:	4015d43a 	srai	r10,r8,16
   83c48:	393fffcc 	andi	r4,r7,65535
   83c4c:	1105c83a 	sub	r2,r2,r4
   83c50:	1285883a 	add	r2,r2,r10
   83c54:	1880008d 	sth	r2,2(r3)
   83c58:	1a00000d 	sth	r8,0(r3)
   83c5c:	380ed43a 	srli	r7,r7,16
   83c60:	1005d43a 	srai	r2,r2,16
   83c64:	18c00104 	addi	r3,r3,4
   83c68:	99bfe72e 	bgeu	r19,r6,83c08 <quorem+0x88>
   83c6c:	b8000f1e 	bne	r23,zero,83cac <quorem+0x12c>
   83c70:	88800144 	addi	r2,r17,5
   83c74:	1085883a 	add	r2,r2,r2
   83c78:	1085883a 	add	r2,r2,r2
   83c7c:	a887883a 	add	r3,r21,r2
   83c80:	18bfff04 	addi	r2,r3,-4
   83c84:	a080082e 	bgeu	r20,r2,83ca8 <quorem+0x128>
   83c88:	18ffff17 	ldw	r3,-4(r3)
   83c8c:	18000326 	beq	r3,zero,83c9c <quorem+0x11c>
   83c90:	00000506 	br	83ca8 <quorem+0x128>
   83c94:	10c00017 	ldw	r3,0(r2)
   83c98:	1800031e 	bne	r3,zero,83ca8 <quorem+0x128>
   83c9c:	10bfff04 	addi	r2,r2,-4
   83ca0:	8c7fffc4 	addi	r17,r17,-1
   83ca4:	a0bffb36 	bltu	r20,r2,83c94 <quorem+0x114>
   83ca8:	ac400415 	stw	r17,16(r21)
   83cac:	a809883a 	mov	r4,r21
   83cb0:	b00b883a 	mov	r5,r22
   83cb4:	008788c0 	call	8788c <__mcmp>
   83cb8:	10002516 	blt	r2,zero,83d50 <quorem+0x1d0>
   83cbc:	94800044 	addi	r18,r18,1
   83cc0:	a007883a 	mov	r3,r20
   83cc4:	000b883a 	mov	r5,zero
   83cc8:	1a000017 	ldw	r8,0(r3)
   83ccc:	81c00017 	ldw	r7,0(r16)
   83cd0:	84000104 	addi	r16,r16,4
   83cd4:	41bfffcc 	andi	r6,r8,65535
   83cd8:	38bfffcc 	andi	r2,r7,65535
   83cdc:	314b883a 	add	r5,r6,r5
   83ce0:	288dc83a 	sub	r6,r5,r2
   83ce4:	380ed43a 	srli	r7,r7,16
   83ce8:	400ad43a 	srli	r5,r8,16
   83cec:	3005d43a 	srai	r2,r6,16
   83cf0:	1980000d 	sth	r6,0(r3)
   83cf4:	29cbc83a 	sub	r5,r5,r7
   83cf8:	288b883a 	add	r5,r5,r2
   83cfc:	1940008d 	sth	r5,2(r3)
   83d00:	280bd43a 	srai	r5,r5,16
   83d04:	18c00104 	addi	r3,r3,4
   83d08:	9c3fef2e 	bgeu	r19,r16,83cc8 <quorem+0x148>
   83d0c:	88800144 	addi	r2,r17,5
   83d10:	1085883a 	add	r2,r2,r2
   83d14:	1085883a 	add	r2,r2,r2
   83d18:	a885883a 	add	r2,r21,r2
   83d1c:	10c00017 	ldw	r3,0(r2)
   83d20:	18000b1e 	bne	r3,zero,83d50 <quorem+0x1d0>
   83d24:	10ffff04 	addi	r3,r2,-4
   83d28:	a0c0082e 	bgeu	r20,r3,83d4c <quorem+0x1cc>
   83d2c:	10bfff17 	ldw	r2,-4(r2)
   83d30:	10000326 	beq	r2,zero,83d40 <quorem+0x1c0>
   83d34:	00000506 	br	83d4c <quorem+0x1cc>
   83d38:	18800017 	ldw	r2,0(r3)
   83d3c:	1000031e 	bne	r2,zero,83d4c <quorem+0x1cc>
   83d40:	18ffff04 	addi	r3,r3,-4
   83d44:	8c7fffc4 	addi	r17,r17,-1
   83d48:	a0fffb36 	bltu	r20,r3,83d38 <quorem+0x1b8>
   83d4c:	ac400415 	stw	r17,16(r21)
   83d50:	9005883a 	mov	r2,r18
   83d54:	dfc00817 	ldw	ra,32(sp)
   83d58:	ddc00717 	ldw	r23,28(sp)
   83d5c:	dd800617 	ldw	r22,24(sp)
   83d60:	dd400517 	ldw	r21,20(sp)
   83d64:	dd000417 	ldw	r20,16(sp)
   83d68:	dcc00317 	ldw	r19,12(sp)
   83d6c:	dc800217 	ldw	r18,8(sp)
   83d70:	dc400117 	ldw	r17,4(sp)
   83d74:	dc000017 	ldw	r16,0(sp)
   83d78:	dec00904 	addi	sp,sp,36
   83d7c:	f800283a 	ret
   83d80:	0005883a 	mov	r2,zero
   83d84:	003ff306 	br	83d54 <quorem+0x1d4>

00083d88 <_dtoa_r>:
   83d88:	20801017 	ldw	r2,64(r4)
   83d8c:	deffdf04 	addi	sp,sp,-132
   83d90:	dcc01a15 	stw	r19,104(sp)
   83d94:	dc801915 	stw	r18,100(sp)
   83d98:	dc401815 	stw	r17,96(sp)
   83d9c:	dc001715 	stw	r16,92(sp)
   83da0:	dfc02015 	stw	ra,128(sp)
   83da4:	df001f15 	stw	fp,124(sp)
   83da8:	ddc01e15 	stw	r23,120(sp)
   83dac:	dd801d15 	stw	r22,116(sp)
   83db0:	dd401c15 	stw	r21,112(sp)
   83db4:	dd001b15 	stw	r20,108(sp)
   83db8:	d9400315 	stw	r5,12(sp)
   83dbc:	d9c00415 	stw	r7,16(sp)
   83dc0:	2021883a 	mov	r16,r4
   83dc4:	3025883a 	mov	r18,r6
   83dc8:	dcc02317 	ldw	r19,140(sp)
   83dcc:	3023883a 	mov	r17,r6
   83dd0:	10000826 	beq	r2,zero,83df4 <_dtoa_r+0x6c>
   83dd4:	20c01117 	ldw	r3,68(r4)
   83dd8:	01800044 	movi	r6,1
   83ddc:	100b883a 	mov	r5,r2
   83de0:	30cc983a 	sll	r6,r6,r3
   83de4:	10c00115 	stw	r3,4(r2)
   83de8:	11800215 	stw	r6,8(r2)
   83dec:	00870900 	call	87090 <_Bfree>
   83df0:	80001015 	stw	zero,64(r16)
   83df4:	90002f16 	blt	r18,zero,83eb4 <_dtoa_r+0x12c>
   83df8:	98000015 	stw	zero,0(r19)
   83dfc:	90dffc2c 	andhi	r3,r18,32752
   83e00:	009ffc34 	movhi	r2,32752
   83e04:	18801c26 	beq	r3,r2,83e78 <_dtoa_r+0xf0>
   83e08:	d9000317 	ldw	r4,12(sp)
   83e0c:	880b883a 	mov	r5,r17
   83e10:	000d883a 	mov	r6,zero
   83e14:	000f883a 	mov	r7,zero
   83e18:	008a4100 	call	8a410 <__eqdf2>
   83e1c:	10002c1e 	bne	r2,zero,83ed0 <_dtoa_r+0x148>
   83e20:	d9002217 	ldw	r4,136(sp)
   83e24:	d9c02417 	ldw	r7,144(sp)
   83e28:	00800044 	movi	r2,1
   83e2c:	20800015 	stw	r2,0(r4)
   83e30:	38019426 	beq	r7,zero,84484 <_dtoa_r+0x6fc>
   83e34:	00800274 	movhi	r2,9
   83e38:	10b87144 	addi	r2,r2,-7739
   83e3c:	38800015 	stw	r2,0(r7)
   83e40:	15ffffc4 	addi	r23,r2,-1
   83e44:	b805883a 	mov	r2,r23
   83e48:	dfc02017 	ldw	ra,128(sp)
   83e4c:	df001f17 	ldw	fp,124(sp)
   83e50:	ddc01e17 	ldw	r23,120(sp)
   83e54:	dd801d17 	ldw	r22,116(sp)
   83e58:	dd401c17 	ldw	r21,112(sp)
   83e5c:	dd001b17 	ldw	r20,108(sp)
   83e60:	dcc01a17 	ldw	r19,104(sp)
   83e64:	dc801917 	ldw	r18,100(sp)
   83e68:	dc401817 	ldw	r17,96(sp)
   83e6c:	dc001717 	ldw	r16,92(sp)
   83e70:	dec02104 	addi	sp,sp,132
   83e74:	f800283a 	ret
   83e78:	d8c02217 	ldw	r3,136(sp)
   83e7c:	d9000317 	ldw	r4,12(sp)
   83e80:	0089c3c4 	movi	r2,9999
   83e84:	18800015 	stw	r2,0(r3)
   83e88:	20016c26 	beq	r4,zero,8443c <_dtoa_r+0x6b4>
   83e8c:	05c00274 	movhi	r23,9
   83e90:	bdf87d04 	addi	r23,r23,-7692
   83e94:	d9c02417 	ldw	r7,144(sp)
   83e98:	383fea26 	beq	r7,zero,83e44 <_dtoa_r+0xbc>
   83e9c:	b88000c7 	ldb	r2,3(r23)
   83ea0:	10016d1e 	bne	r2,zero,84458 <_dtoa_r+0x6d0>
   83ea4:	b88000c4 	addi	r2,r23,3
   83ea8:	d8c02417 	ldw	r3,144(sp)
   83eac:	18800015 	stw	r2,0(r3)
   83eb0:	003fe406 	br	83e44 <_dtoa_r+0xbc>
   83eb4:	04600034 	movhi	r17,32768
   83eb8:	8c7fffc4 	addi	r17,r17,-1
   83ebc:	9462703a 	and	r17,r18,r17
   83ec0:	00800044 	movi	r2,1
   83ec4:	98800015 	stw	r2,0(r19)
   83ec8:	8825883a 	mov	r18,r17
   83ecc:	003fcb06 	br	83dfc <_dtoa_r+0x74>
   83ed0:	d9400317 	ldw	r5,12(sp)
   83ed4:	9028d53a 	srli	r20,r18,20
   83ed8:	d8800204 	addi	r2,sp,8
   83edc:	d8800015 	stw	r2,0(sp)
   83ee0:	8009883a 	mov	r4,r16
   83ee4:	880d883a 	mov	r6,r17
   83ee8:	d9c00104 	addi	r7,sp,4
   83eec:	0087c340 	call	87c34 <__d2b>
   83ef0:	a501ffcc 	andi	r20,r20,2047
   83ef4:	1039883a 	mov	fp,r2
   83ef8:	a001591e 	bne	r20,zero,84460 <_dtoa_r+0x6d8>
   83efc:	dd400217 	ldw	r21,8(sp)
   83f00:	dd000117 	ldw	r20,4(sp)
   83f04:	00befbc4 	movi	r2,-1041
   83f08:	ad29883a 	add	r20,r21,r20
   83f0c:	a082d216 	blt	r20,r2,84a58 <_dtoa_r+0xcd0>
   83f10:	d8c00317 	ldw	r3,12(sp)
   83f14:	013f0384 	movi	r4,-1010
   83f18:	2509c83a 	sub	r4,r4,r20
   83f1c:	a0810484 	addi	r2,r20,1042
   83f20:	9124983a 	sll	r18,r18,r4
   83f24:	1884d83a 	srl	r2,r3,r2
   83f28:	9088b03a 	or	r4,r18,r2
   83f2c:	008a7940 	call	8a794 <__floatunsidf>
   83f30:	1009883a 	mov	r4,r2
   83f34:	017f8434 	movhi	r5,65040
   83f38:	00800044 	movi	r2,1
   83f3c:	194b883a 	add	r5,r3,r5
   83f40:	a53fffc4 	addi	r20,r20,-1
   83f44:	d8800f15 	stw	r2,60(sp)
   83f48:	000d883a 	mov	r6,zero
   83f4c:	01cffe34 	movhi	r7,16376
   83f50:	0089f180 	call	89f18 <__subdf3>
   83f54:	1009883a 	mov	r4,r2
   83f58:	180b883a 	mov	r5,r3
   83f5c:	0198dbf4 	movhi	r6,25455
   83f60:	3190d844 	addi	r6,r6,17249
   83f64:	01cff4f4 	movhi	r7,16339
   83f68:	39e1e9c4 	addi	r7,r7,-30809
   83f6c:	0089f780 	call	89f78 <__muldf3>
   83f70:	180b883a 	mov	r5,r3
   83f74:	01a2d874 	movhi	r6,35681
   83f78:	31b22cc4 	addi	r6,r6,-14157
   83f7c:	01cff1f4 	movhi	r7,16327
   83f80:	39e28a04 	addi	r7,r7,-30168
   83f84:	1009883a 	mov	r4,r2
   83f88:	0089ec40 	call	89ec4 <__adddf3>
   83f8c:	a009883a 	mov	r4,r20
   83f90:	1027883a 	mov	r19,r2
   83f94:	1825883a 	mov	r18,r3
   83f98:	008a5ec0 	call	8a5ec <__floatsidf>
   83f9c:	1009883a 	mov	r4,r2
   83fa0:	180b883a 	mov	r5,r3
   83fa4:	019427f4 	movhi	r6,20639
   83fa8:	319e7ec4 	addi	r6,r6,31227
   83fac:	01cff4f4 	movhi	r7,16339
   83fb0:	39d104c4 	addi	r7,r7,17427
   83fb4:	0089f780 	call	89f78 <__muldf3>
   83fb8:	9809883a 	mov	r4,r19
   83fbc:	900b883a 	mov	r5,r18
   83fc0:	100d883a 	mov	r6,r2
   83fc4:	180f883a 	mov	r7,r3
   83fc8:	0089ec40 	call	89ec4 <__adddf3>
   83fcc:	1009883a 	mov	r4,r2
   83fd0:	180b883a 	mov	r5,r3
   83fd4:	1027883a 	mov	r19,r2
   83fd8:	1825883a 	mov	r18,r3
   83fdc:	008a6c00 	call	8a6c0 <__fixdfsi>
   83fe0:	9809883a 	mov	r4,r19
   83fe4:	900b883a 	mov	r5,r18
   83fe8:	000d883a 	mov	r6,zero
   83fec:	000f883a 	mov	r7,zero
   83ff0:	d8800615 	stw	r2,24(sp)
   83ff4:	008a5900 	call	8a590 <__ltdf2>
   83ff8:	10027e16 	blt	r2,zero,849f4 <_dtoa_r+0xc6c>
   83ffc:	d8c00617 	ldw	r3,24(sp)
   84000:	00800584 	movi	r2,22
   84004:	10c26c36 	bltu	r2,r3,849b8 <_dtoa_r+0xc30>
   84008:	180490fa 	slli	r2,r3,3
   8400c:	00c00274 	movhi	r3,9
   84010:	18f8a304 	addi	r3,r3,-7540
   84014:	d9800317 	ldw	r6,12(sp)
   84018:	1885883a 	add	r2,r3,r2
   8401c:	11000017 	ldw	r4,0(r2)
   84020:	11400117 	ldw	r5,4(r2)
   84024:	880f883a 	mov	r7,r17
   84028:	008a4c80 	call	8a4c8 <__gtdf2>
   8402c:	00828f0e 	bge	zero,r2,84a6c <_dtoa_r+0xce4>
   84030:	d8800617 	ldw	r2,24(sp)
   84034:	d8000d15 	stw	zero,52(sp)
   84038:	10bfffc4 	addi	r2,r2,-1
   8403c:	d8800615 	stw	r2,24(sp)
   84040:	ad29c83a 	sub	r20,r21,r20
   84044:	a53fffc4 	addi	r20,r20,-1
   84048:	a0026616 	blt	r20,zero,849e4 <_dtoa_r+0xc5c>
   8404c:	dd000715 	stw	r20,28(sp)
   84050:	d8000815 	stw	zero,32(sp)
   84054:	d8800617 	ldw	r2,24(sp)
   84058:	10025a16 	blt	r2,zero,849c4 <_dtoa_r+0xc3c>
   8405c:	d8c00717 	ldw	r3,28(sp)
   84060:	d8800b15 	stw	r2,44(sp)
   84064:	d8000a15 	stw	zero,40(sp)
   84068:	1887883a 	add	r3,r3,r2
   8406c:	d8c00715 	stw	r3,28(sp)
   84070:	d9c00417 	ldw	r7,16(sp)
   84074:	00800244 	movi	r2,9
   84078:	11c10536 	bltu	r2,r7,84490 <_dtoa_r+0x708>
   8407c:	00800144 	movi	r2,5
   84080:	11c4c60e 	bge	r2,r7,8539c <_dtoa_r+0x1614>
   84084:	39ffff04 	addi	r7,r7,-4
   84088:	d9c00415 	stw	r7,16(sp)
   8408c:	0027883a 	mov	r19,zero
   84090:	d9c00417 	ldw	r7,16(sp)
   84094:	008000c4 	movi	r2,3
   84098:	3883a226 	beq	r7,r2,84f24 <_dtoa_r+0x119c>
   8409c:	11c2bc16 	blt	r2,r7,84b90 <_dtoa_r+0xe08>
   840a0:	00800084 	movi	r2,2
   840a4:	3880fb1e 	bne	r7,r2,84494 <_dtoa_r+0x70c>
   840a8:	d8000c15 	stw	zero,48(sp)
   840ac:	d9002117 	ldw	r4,132(sp)
   840b0:	0103ae0e 	bge	zero,r4,84f6c <_dtoa_r+0x11e4>
   840b4:	2025883a 	mov	r18,r4
   840b8:	d9000e15 	stw	r4,56(sp)
   840bc:	d9000915 	stw	r4,36(sp)
   840c0:	80001115 	stw	zero,68(r16)
   840c4:	008005c4 	movi	r2,23
   840c8:	1484b22e 	bgeu	r2,r18,85394 <_dtoa_r+0x160c>
   840cc:	00c00044 	movi	r3,1
   840d0:	00800104 	movi	r2,4
   840d4:	1085883a 	add	r2,r2,r2
   840d8:	11000504 	addi	r4,r2,20
   840dc:	180b883a 	mov	r5,r3
   840e0:	18c00044 	addi	r3,r3,1
   840e4:	913ffb2e 	bgeu	r18,r4,840d4 <_dtoa_r+0x34c>
   840e8:	81401115 	stw	r5,68(r16)
   840ec:	8009883a 	mov	r4,r16
   840f0:	0086fe80 	call	86fe8 <_Balloc>
   840f4:	102f883a 	mov	r23,r2
   840f8:	80801015 	stw	r2,64(r16)
   840fc:	00800384 	movi	r2,14
   84100:	1480f036 	bltu	r2,r18,844c4 <_dtoa_r+0x73c>
   84104:	9800ef26 	beq	r19,zero,844c4 <_dtoa_r+0x73c>
   84108:	d8800617 	ldw	r2,24(sp)
   8410c:	00839c0e 	bge	zero,r2,84f80 <_dtoa_r+0x11f8>
   84110:	d8c00617 	ldw	r3,24(sp)
   84114:	108003cc 	andi	r2,r2,15
   84118:	100490fa 	slli	r2,r2,3
   8411c:	182bd13a 	srai	r21,r3,4
   84120:	00c00274 	movhi	r3,9
   84124:	18f8a304 	addi	r3,r3,-7540
   84128:	1885883a 	add	r2,r3,r2
   8412c:	a8c0040c 	andi	r3,r21,16
   84130:	12800017 	ldw	r10,0(r2)
   84134:	15800117 	ldw	r22,4(r2)
   84138:	18038726 	beq	r3,zero,84f58 <_dtoa_r+0x11d0>
   8413c:	00800274 	movhi	r2,9
   84140:	10b89904 	addi	r2,r2,-7580
   84144:	11800817 	ldw	r6,32(r2)
   84148:	11c00917 	ldw	r7,36(r2)
   8414c:	d9000317 	ldw	r4,12(sp)
   84150:	880b883a 	mov	r5,r17
   84154:	da801515 	stw	r10,84(sp)
   84158:	008a25c0 	call	8a25c <__divdf3>
   8415c:	da801517 	ldw	r10,84(sp)
   84160:	d8801015 	stw	r2,64(sp)
   84164:	1829883a 	mov	r20,r3
   84168:	ad4003cc 	andi	r21,r21,15
   8416c:	048000c4 	movi	r18,3
   84170:	a8001126 	beq	r21,zero,841b8 <_dtoa_r+0x430>
   84174:	04c00274 	movhi	r19,9
   84178:	9cf89904 	addi	r19,r19,-7580
   8417c:	5005883a 	mov	r2,r10
   84180:	b007883a 	mov	r3,r22
   84184:	a980004c 	andi	r6,r21,1
   84188:	1009883a 	mov	r4,r2
   8418c:	a82bd07a 	srai	r21,r21,1
   84190:	180b883a 	mov	r5,r3
   84194:	30000426 	beq	r6,zero,841a8 <_dtoa_r+0x420>
   84198:	99800017 	ldw	r6,0(r19)
   8419c:	99c00117 	ldw	r7,4(r19)
   841a0:	94800044 	addi	r18,r18,1
   841a4:	0089f780 	call	89f78 <__muldf3>
   841a8:	9cc00204 	addi	r19,r19,8
   841ac:	a83ff51e 	bne	r21,zero,84184 <_dtoa_r+0x3fc>
   841b0:	1015883a 	mov	r10,r2
   841b4:	182d883a 	mov	r22,r3
   841b8:	d9001017 	ldw	r4,64(sp)
   841bc:	a00b883a 	mov	r5,r20
   841c0:	500d883a 	mov	r6,r10
   841c4:	b00f883a 	mov	r7,r22
   841c8:	008a25c0 	call	8a25c <__divdf3>
   841cc:	1027883a 	mov	r19,r2
   841d0:	1829883a 	mov	r20,r3
   841d4:	d8c00d17 	ldw	r3,52(sp)
   841d8:	18000626 	beq	r3,zero,841f4 <_dtoa_r+0x46c>
   841dc:	9809883a 	mov	r4,r19
   841e0:	a00b883a 	mov	r5,r20
   841e4:	000d883a 	mov	r6,zero
   841e8:	01cffc34 	movhi	r7,16368
   841ec:	008a5900 	call	8a590 <__ltdf2>
   841f0:	10040e16 	blt	r2,zero,8522c <_dtoa_r+0x14a4>
   841f4:	9009883a 	mov	r4,r18
   841f8:	008a5ec0 	call	8a5ec <__floatsidf>
   841fc:	1009883a 	mov	r4,r2
   84200:	180b883a 	mov	r5,r3
   84204:	980d883a 	mov	r6,r19
   84208:	a00f883a 	mov	r7,r20
   8420c:	0089f780 	call	89f78 <__muldf3>
   84210:	1009883a 	mov	r4,r2
   84214:	180b883a 	mov	r5,r3
   84218:	000d883a 	mov	r6,zero
   8421c:	01d00734 	movhi	r7,16412
   84220:	0089ec40 	call	89ec4 <__adddf3>
   84224:	057f3034 	movhi	r21,64704
   84228:	1d6b883a 	add	r21,r3,r21
   8422c:	d8c00917 	ldw	r3,36(sp)
   84230:	1025883a 	mov	r18,r2
   84234:	18031f26 	beq	r3,zero,84eb4 <_dtoa_r+0x112c>
   84238:	d8800617 	ldw	r2,24(sp)
   8423c:	dac00917 	ldw	r11,36(sp)
   84240:	d8801315 	stw	r2,76(sp)
   84244:	d8c00c17 	ldw	r3,48(sp)
   84248:	18039026 	beq	r3,zero,8508c <_dtoa_r+0x1304>
   8424c:	58bfffc4 	addi	r2,r11,-1
   84250:	100490fa 	slli	r2,r2,3
   84254:	00c00274 	movhi	r3,9
   84258:	18f8a304 	addi	r3,r3,-7540
   8425c:	0009883a 	mov	r4,zero
   84260:	1885883a 	add	r2,r3,r2
   84264:	11800017 	ldw	r6,0(r2)
   84268:	11c00117 	ldw	r7,4(r2)
   8426c:	014ff834 	movhi	r5,16352
   84270:	dac01615 	stw	r11,88(sp)
   84274:	008a25c0 	call	8a25c <__divdf3>
   84278:	900d883a 	mov	r6,r18
   8427c:	a80f883a 	mov	r7,r21
   84280:	1009883a 	mov	r4,r2
   84284:	180b883a 	mov	r5,r3
   84288:	0089f180 	call	89f18 <__subdf3>
   8428c:	a00b883a 	mov	r5,r20
   84290:	9809883a 	mov	r4,r19
   84294:	182b883a 	mov	r21,r3
   84298:	d8801015 	stw	r2,64(sp)
   8429c:	008a6c00 	call	8a6c0 <__fixdfsi>
   842a0:	1009883a 	mov	r4,r2
   842a4:	d8801515 	stw	r2,84(sp)
   842a8:	008a5ec0 	call	8a5ec <__floatsidf>
   842ac:	9809883a 	mov	r4,r19
   842b0:	a00b883a 	mov	r5,r20
   842b4:	100d883a 	mov	r6,r2
   842b8:	180f883a 	mov	r7,r3
   842bc:	0089f180 	call	89f18 <__subdf3>
   842c0:	da401517 	ldw	r9,84(sp)
   842c4:	d9001017 	ldw	r4,64(sp)
   842c8:	a80b883a 	mov	r5,r21
   842cc:	4d000c04 	addi	r20,r9,48
   842d0:	bd000005 	stb	r20,0(r23)
   842d4:	100d883a 	mov	r6,r2
   842d8:	180f883a 	mov	r7,r3
   842dc:	bd800044 	addi	r22,r23,1
   842e0:	1025883a 	mov	r18,r2
   842e4:	1827883a 	mov	r19,r3
   842e8:	008a4c80 	call	8a4c8 <__gtdf2>
   842ec:	00842216 	blt	zero,r2,85378 <_dtoa_r+0x15f0>
   842f0:	0009883a 	mov	r4,zero
   842f4:	014ffc34 	movhi	r5,16368
   842f8:	900d883a 	mov	r6,r18
   842fc:	980f883a 	mov	r7,r19
   84300:	0089f180 	call	89f18 <__subdf3>
   84304:	d9001017 	ldw	r4,64(sp)
   84308:	a80b883a 	mov	r5,r21
   8430c:	100d883a 	mov	r6,r2
   84310:	180f883a 	mov	r7,r3
   84314:	008a4c80 	call	8a4c8 <__gtdf2>
   84318:	dac01617 	ldw	r11,88(sp)
   8431c:	00841316 	blt	zero,r2,8536c <_dtoa_r+0x15e4>
   84320:	00800044 	movi	r2,1
   84324:	12c0670e 	bge	r2,r11,844c4 <_dtoa_r+0x73c>
   84328:	bad7883a 	add	r11,r23,r11
   8432c:	df001115 	stw	fp,68(sp)
   84330:	dc401215 	stw	r17,72(sp)
   84334:	5839883a 	mov	fp,r11
   84338:	dc401017 	ldw	r17,64(sp)
   8433c:	00000806 	br	84360 <_dtoa_r+0x5d8>
   84340:	0089f180 	call	89f18 <__subdf3>
   84344:	1009883a 	mov	r4,r2
   84348:	180b883a 	mov	r5,r3
   8434c:	880d883a 	mov	r6,r17
   84350:	a80f883a 	mov	r7,r21
   84354:	008a5900 	call	8a590 <__ltdf2>
   84358:	1003ee16 	blt	r2,zero,85314 <_dtoa_r+0x158c>
   8435c:	b703f126 	beq	r22,fp,85324 <_dtoa_r+0x159c>
   84360:	8809883a 	mov	r4,r17
   84364:	a80b883a 	mov	r5,r21
   84368:	000d883a 	mov	r6,zero
   8436c:	01d00934 	movhi	r7,16420
   84370:	0089f780 	call	89f78 <__muldf3>
   84374:	000d883a 	mov	r6,zero
   84378:	01d00934 	movhi	r7,16420
   8437c:	9009883a 	mov	r4,r18
   84380:	980b883a 	mov	r5,r19
   84384:	1023883a 	mov	r17,r2
   84388:	182b883a 	mov	r21,r3
   8438c:	0089f780 	call	89f78 <__muldf3>
   84390:	180b883a 	mov	r5,r3
   84394:	1009883a 	mov	r4,r2
   84398:	1825883a 	mov	r18,r3
   8439c:	1027883a 	mov	r19,r2
   843a0:	008a6c00 	call	8a6c0 <__fixdfsi>
   843a4:	1009883a 	mov	r4,r2
   843a8:	1029883a 	mov	r20,r2
   843ac:	008a5ec0 	call	8a5ec <__floatsidf>
   843b0:	9809883a 	mov	r4,r19
   843b4:	900b883a 	mov	r5,r18
   843b8:	100d883a 	mov	r6,r2
   843bc:	180f883a 	mov	r7,r3
   843c0:	0089f180 	call	89f18 <__subdf3>
   843c4:	a5000c04 	addi	r20,r20,48
   843c8:	b5000005 	stb	r20,0(r22)
   843cc:	1009883a 	mov	r4,r2
   843d0:	180b883a 	mov	r5,r3
   843d4:	880d883a 	mov	r6,r17
   843d8:	a80f883a 	mov	r7,r21
   843dc:	1025883a 	mov	r18,r2
   843e0:	1827883a 	mov	r19,r3
   843e4:	008a5900 	call	8a590 <__ltdf2>
   843e8:	b5800044 	addi	r22,r22,1
   843ec:	0009883a 	mov	r4,zero
   843f0:	014ffc34 	movhi	r5,16368
   843f4:	900d883a 	mov	r6,r18
   843f8:	980f883a 	mov	r7,r19
   843fc:	103fd00e 	bge	r2,zero,84340 <_dtoa_r+0x5b8>
   84400:	d9001317 	ldw	r4,76(sp)
   84404:	df001117 	ldw	fp,68(sp)
   84408:	d9000615 	stw	r4,24(sp)
   8440c:	8009883a 	mov	r4,r16
   84410:	e00b883a 	mov	r5,fp
   84414:	00870900 	call	87090 <_Bfree>
   84418:	d9c00617 	ldw	r7,24(sp)
   8441c:	d8c02217 	ldw	r3,136(sp)
   84420:	d9002417 	ldw	r4,144(sp)
   84424:	b0000005 	stb	zero,0(r22)
   84428:	38800044 	addi	r2,r7,1
   8442c:	18800015 	stw	r2,0(r3)
   84430:	203e8426 	beq	r4,zero,83e44 <_dtoa_r+0xbc>
   84434:	25800015 	stw	r22,0(r4)
   84438:	003e8206 	br	83e44 <_dtoa_r+0xbc>
   8443c:	00800434 	movhi	r2,16
   84440:	10bfffc4 	addi	r2,r2,-1
   84444:	90a4703a 	and	r18,r18,r2
   84448:	903e901e 	bne	r18,zero,83e8c <_dtoa_r+0x104>
   8444c:	05c00274 	movhi	r23,9
   84450:	bdf87a04 	addi	r23,r23,-7704
   84454:	003e8f06 	br	83e94 <_dtoa_r+0x10c>
   84458:	b8800204 	addi	r2,r23,8
   8445c:	003e9206 	br	83ea8 <_dtoa_r+0x120>
   84460:	01400434 	movhi	r5,16
   84464:	297fffc4 	addi	r5,r5,-1
   84468:	894a703a 	and	r5,r17,r5
   8446c:	d9000317 	ldw	r4,12(sp)
   84470:	294ffc34 	orhi	r5,r5,16368
   84474:	a53f0044 	addi	r20,r20,-1023
   84478:	dd400217 	ldw	r21,8(sp)
   8447c:	d8000f15 	stw	zero,60(sp)
   84480:	003eb106 	br	83f48 <_dtoa_r+0x1c0>
   84484:	05c00274 	movhi	r23,9
   84488:	bdf87104 	addi	r23,r23,-7740
   8448c:	003e6d06 	br	83e44 <_dtoa_r+0xbc>
   84490:	d8000415 	stw	zero,16(sp)
   84494:	80001115 	stw	zero,68(r16)
   84498:	8009883a 	mov	r4,r16
   8449c:	000b883a 	mov	r5,zero
   844a0:	0086fe80 	call	86fe8 <_Balloc>
   844a4:	01ffffc4 	movi	r7,-1
   844a8:	102f883a 	mov	r23,r2
   844ac:	80801015 	stw	r2,64(r16)
   844b0:	00800044 	movi	r2,1
   844b4:	d9c00915 	stw	r7,36(sp)
   844b8:	d8002115 	stw	zero,132(sp)
   844bc:	d9c00e15 	stw	r7,56(sp)
   844c0:	d8800c15 	stw	r2,48(sp)
   844c4:	d8800117 	ldw	r2,4(sp)
   844c8:	10008b16 	blt	r2,zero,846f8 <_dtoa_r+0x970>
   844cc:	d9000617 	ldw	r4,24(sp)
   844d0:	00c00384 	movi	r3,14
   844d4:	19008816 	blt	r3,r4,846f8 <_dtoa_r+0x970>
   844d8:	200490fa 	slli	r2,r4,3
   844dc:	d9c02117 	ldw	r7,132(sp)
   844e0:	00c00274 	movhi	r3,9
   844e4:	18f8a304 	addi	r3,r3,-7540
   844e8:	1885883a 	add	r2,r3,r2
   844ec:	14800017 	ldw	r18,0(r2)
   844f0:	14c00117 	ldw	r19,4(r2)
   844f4:	3801c916 	blt	r7,zero,84c1c <_dtoa_r+0xe94>
   844f8:	d9000317 	ldw	r4,12(sp)
   844fc:	900d883a 	mov	r6,r18
   84500:	980f883a 	mov	r7,r19
   84504:	880b883a 	mov	r5,r17
   84508:	008a25c0 	call	8a25c <__divdf3>
   8450c:	180b883a 	mov	r5,r3
   84510:	1009883a 	mov	r4,r2
   84514:	008a6c00 	call	8a6c0 <__fixdfsi>
   84518:	1009883a 	mov	r4,r2
   8451c:	102b883a 	mov	r21,r2
   84520:	008a5ec0 	call	8a5ec <__floatsidf>
   84524:	1009883a 	mov	r4,r2
   84528:	180b883a 	mov	r5,r3
   8452c:	900d883a 	mov	r6,r18
   84530:	980f883a 	mov	r7,r19
   84534:	0089f780 	call	89f78 <__muldf3>
   84538:	d9000317 	ldw	r4,12(sp)
   8453c:	880b883a 	mov	r5,r17
   84540:	100d883a 	mov	r6,r2
   84544:	180f883a 	mov	r7,r3
   84548:	0089f180 	call	89f18 <__subdf3>
   8454c:	d9c00917 	ldw	r7,36(sp)
   84550:	1009883a 	mov	r4,r2
   84554:	a8800c04 	addi	r2,r21,48
   84558:	b8800005 	stb	r2,0(r23)
   8455c:	01800044 	movi	r6,1
   84560:	180b883a 	mov	r5,r3
   84564:	2005883a 	mov	r2,r4
   84568:	bd800044 	addi	r22,r23,1
   8456c:	39803726 	beq	r7,r6,8464c <_dtoa_r+0x8c4>
   84570:	000d883a 	mov	r6,zero
   84574:	01d00934 	movhi	r7,16420
   84578:	0089f780 	call	89f78 <__muldf3>
   8457c:	1009883a 	mov	r4,r2
   84580:	180b883a 	mov	r5,r3
   84584:	000d883a 	mov	r6,zero
   84588:	000f883a 	mov	r7,zero
   8458c:	1029883a 	mov	r20,r2
   84590:	1823883a 	mov	r17,r3
   84594:	008a4100 	call	8a410 <__eqdf2>
   84598:	103f9c26 	beq	r2,zero,8440c <_dtoa_r+0x684>
   8459c:	dd400917 	ldw	r21,36(sp)
   845a0:	dc000415 	stw	r16,16(sp)
   845a4:	00000906 	br	845cc <_dtoa_r+0x844>
   845a8:	0089f780 	call	89f78 <__muldf3>
   845ac:	1009883a 	mov	r4,r2
   845b0:	180b883a 	mov	r5,r3
   845b4:	000d883a 	mov	r6,zero
   845b8:	000f883a 	mov	r7,zero
   845bc:	1029883a 	mov	r20,r2
   845c0:	1823883a 	mov	r17,r3
   845c4:	008a4100 	call	8a410 <__eqdf2>
   845c8:	10022926 	beq	r2,zero,84e70 <_dtoa_r+0x10e8>
   845cc:	900d883a 	mov	r6,r18
   845d0:	980f883a 	mov	r7,r19
   845d4:	a009883a 	mov	r4,r20
   845d8:	880b883a 	mov	r5,r17
   845dc:	008a25c0 	call	8a25c <__divdf3>
   845e0:	180b883a 	mov	r5,r3
   845e4:	1009883a 	mov	r4,r2
   845e8:	008a6c00 	call	8a6c0 <__fixdfsi>
   845ec:	1009883a 	mov	r4,r2
   845f0:	1021883a 	mov	r16,r2
   845f4:	008a5ec0 	call	8a5ec <__floatsidf>
   845f8:	1009883a 	mov	r4,r2
   845fc:	180b883a 	mov	r5,r3
   84600:	900d883a 	mov	r6,r18
   84604:	980f883a 	mov	r7,r19
   84608:	0089f780 	call	89f78 <__muldf3>
   8460c:	a009883a 	mov	r4,r20
   84610:	880b883a 	mov	r5,r17
   84614:	100d883a 	mov	r6,r2
   84618:	180f883a 	mov	r7,r3
   8461c:	0089f180 	call	89f18 <__subdf3>
   84620:	82400c04 	addi	r9,r16,48
   84624:	b2400005 	stb	r9,0(r22)
   84628:	b5800044 	addi	r22,r22,1
   8462c:	b5d3c83a 	sub	r9,r22,r23
   84630:	000d883a 	mov	r6,zero
   84634:	01d00934 	movhi	r7,16420
   84638:	1009883a 	mov	r4,r2
   8463c:	180b883a 	mov	r5,r3
   84640:	aa7fd91e 	bne	r21,r9,845a8 <_dtoa_r+0x820>
   84644:	802b883a 	mov	r21,r16
   84648:	dc000417 	ldw	r16,16(sp)
   8464c:	1009883a 	mov	r4,r2
   84650:	180b883a 	mov	r5,r3
   84654:	100d883a 	mov	r6,r2
   84658:	180f883a 	mov	r7,r3
   8465c:	0089ec40 	call	89ec4 <__adddf3>
   84660:	9009883a 	mov	r4,r18
   84664:	980b883a 	mov	r5,r19
   84668:	100d883a 	mov	r6,r2
   8466c:	180f883a 	mov	r7,r3
   84670:	1023883a 	mov	r17,r2
   84674:	1829883a 	mov	r20,r3
   84678:	008a5900 	call	8a590 <__ltdf2>
   8467c:	10000816 	blt	r2,zero,846a0 <_dtoa_r+0x918>
   84680:	9009883a 	mov	r4,r18
   84684:	980b883a 	mov	r5,r19
   84688:	880d883a 	mov	r6,r17
   8468c:	a00f883a 	mov	r7,r20
   84690:	008a4100 	call	8a410 <__eqdf2>
   84694:	103f5d1e 	bne	r2,zero,8440c <_dtoa_r+0x684>
   84698:	ad40004c 	andi	r21,r21,1
   8469c:	a83f5b26 	beq	r21,zero,8440c <_dtoa_r+0x684>
   846a0:	b53fffc3 	ldbu	r20,-1(r22)
   846a4:	b0ffff84 	addi	r3,r22,-2
   846a8:	01400e44 	movi	r5,57
   846ac:	00000306 	br	846bc <_dtoa_r+0x934>
   846b0:	1d000003 	ldbu	r20,0(r3)
   846b4:	102d883a 	mov	r22,r2
   846b8:	18ffffc4 	addi	r3,r3,-1
   846bc:	a1003fcc 	andi	r4,r20,255
   846c0:	2100201c 	xori	r4,r4,128
   846c4:	213fe004 	addi	r4,r4,-128
   846c8:	b0bfffc4 	addi	r2,r22,-1
   846cc:	2142ca1e 	bne	r4,r5,851f8 <_dtoa_r+0x1470>
   846d0:	b8bff71e 	bne	r23,r2,846b0 <_dtoa_r+0x928>
   846d4:	d8800617 	ldw	r2,24(sp)
   846d8:	05000c44 	movi	r20,49
   846dc:	10800044 	addi	r2,r2,1
   846e0:	d8800615 	stw	r2,24(sp)
   846e4:	00800c04 	movi	r2,48
   846e8:	b8800005 	stb	r2,0(r23)
   846ec:	b805883a 	mov	r2,r23
   846f0:	15000005 	stb	r20,0(r2)
   846f4:	003f4506 	br	8440c <_dtoa_r+0x684>
   846f8:	d9c00c17 	ldw	r7,48(sp)
   846fc:	3800c926 	beq	r7,zero,84a24 <_dtoa_r+0xc9c>
   84700:	d9c00417 	ldw	r7,16(sp)
   84704:	00c00044 	movi	r3,1
   84708:	19c16c0e 	bge	r3,r7,84cbc <_dtoa_r+0xf34>
   8470c:	d9000917 	ldw	r4,36(sp)
   84710:	d9c00a17 	ldw	r7,40(sp)
   84714:	24ffffc4 	addi	r19,r4,-1
   84718:	3cc20716 	blt	r7,r19,84f38 <_dtoa_r+0x11b0>
   8471c:	3ce7c83a 	sub	r19,r7,r19
   84720:	d9c00917 	ldw	r7,36(sp)
   84724:	3802ae16 	blt	r7,zero,851e0 <_dtoa_r+0x1458>
   84728:	dc800817 	ldw	r18,32(sp)
   8472c:	d8800917 	ldw	r2,36(sp)
   84730:	d8c00817 	ldw	r3,32(sp)
   84734:	d9c00717 	ldw	r7,28(sp)
   84738:	8009883a 	mov	r4,r16
   8473c:	1887883a 	add	r3,r3,r2
   84740:	388f883a 	add	r7,r7,r2
   84744:	01400044 	movi	r5,1
   84748:	d8c00815 	stw	r3,32(sp)
   8474c:	d9c00715 	stw	r7,28(sp)
   84750:	00873e80 	call	873e8 <__i2b>
   84754:	102b883a 	mov	r21,r2
   84758:	90000a26 	beq	r18,zero,84784 <_dtoa_r+0x9fc>
   8475c:	d8800717 	ldw	r2,28(sp)
   84760:	0080080e 	bge	zero,r2,84784 <_dtoa_r+0x9fc>
   84764:	90812b16 	blt	r18,r2,84c14 <_dtoa_r+0xe8c>
   84768:	d8c00817 	ldw	r3,32(sp)
   8476c:	d9000717 	ldw	r4,28(sp)
   84770:	90a5c83a 	sub	r18,r18,r2
   84774:	1887c83a 	sub	r3,r3,r2
   84778:	2089c83a 	sub	r4,r4,r2
   8477c:	d8c00815 	stw	r3,32(sp)
   84780:	d9000715 	stw	r4,28(sp)
   84784:	d9c00a17 	ldw	r7,40(sp)
   84788:	01c0140e 	bge	zero,r7,847dc <_dtoa_r+0xa54>
   8478c:	d8800c17 	ldw	r2,48(sp)
   84790:	1001de26 	beq	r2,zero,84f0c <_dtoa_r+0x1184>
   84794:	04c00e0e 	bge	zero,r19,847d0 <_dtoa_r+0xa48>
   84798:	a80b883a 	mov	r5,r21
   8479c:	8009883a 	mov	r4,r16
   847a0:	980d883a 	mov	r6,r19
   847a4:	00876040 	call	87604 <__pow5mult>
   847a8:	e00d883a 	mov	r6,fp
   847ac:	8009883a 	mov	r4,r16
   847b0:	100b883a 	mov	r5,r2
   847b4:	102b883a 	mov	r21,r2
   847b8:	00874240 	call	87424 <__multiply>
   847bc:	1029883a 	mov	r20,r2
   847c0:	e00b883a 	mov	r5,fp
   847c4:	8009883a 	mov	r4,r16
   847c8:	00870900 	call	87090 <_Bfree>
   847cc:	a039883a 	mov	fp,r20
   847d0:	d8c00a17 	ldw	r3,40(sp)
   847d4:	1ccdc83a 	sub	r6,r3,r19
   847d8:	3001291e 	bne	r6,zero,84c80 <_dtoa_r+0xef8>
   847dc:	8009883a 	mov	r4,r16
   847e0:	01400044 	movi	r5,1
   847e4:	00873e80 	call	873e8 <__i2b>
   847e8:	d9000b17 	ldw	r4,44(sp)
   847ec:	1029883a 	mov	r20,r2
   847f0:	0100050e 	bge	zero,r4,84808 <_dtoa_r+0xa80>
   847f4:	d9800b17 	ldw	r6,44(sp)
   847f8:	8009883a 	mov	r4,r16
   847fc:	100b883a 	mov	r5,r2
   84800:	00876040 	call	87604 <__pow5mult>
   84804:	1029883a 	mov	r20,r2
   84808:	d9c00417 	ldw	r7,16(sp)
   8480c:	00800044 	movi	r2,1
   84810:	11c0f00e 	bge	r2,r7,84bd4 <_dtoa_r+0xe4c>
   84814:	0023883a 	mov	r17,zero
   84818:	d8800b17 	ldw	r2,44(sp)
   8481c:	1001741e 	bne	r2,zero,84df0 <_dtoa_r+0x1068>
   84820:	00800044 	movi	r2,1
   84824:	d8c00717 	ldw	r3,28(sp)
   84828:	10c5883a 	add	r2,r2,r3
   8482c:	108007cc 	andi	r2,r2,31
   84830:	10008026 	beq	r2,zero,84a34 <_dtoa_r+0xcac>
   84834:	01000804 	movi	r4,32
   84838:	2089c83a 	sub	r4,r4,r2
   8483c:	00c00104 	movi	r3,4
   84840:	1902d00e 	bge	r3,r4,85384 <_dtoa_r+0x15fc>
   84844:	d9000817 	ldw	r4,32(sp)
   84848:	d9c00717 	ldw	r7,28(sp)
   8484c:	00c00704 	movi	r3,28
   84850:	1885c83a 	sub	r2,r3,r2
   84854:	2089883a 	add	r4,r4,r2
   84858:	388f883a 	add	r7,r7,r2
   8485c:	d9000815 	stw	r4,32(sp)
   84860:	90a5883a 	add	r18,r18,r2
   84864:	d9c00715 	stw	r7,28(sp)
   84868:	d9c00817 	ldw	r7,32(sp)
   8486c:	01c0050e 	bge	zero,r7,84884 <_dtoa_r+0xafc>
   84870:	e00b883a 	mov	r5,fp
   84874:	8009883a 	mov	r4,r16
   84878:	380d883a 	mov	r6,r7
   8487c:	00877300 	call	87730 <__lshift>
   84880:	1039883a 	mov	fp,r2
   84884:	d8800717 	ldw	r2,28(sp)
   84888:	0080050e 	bge	zero,r2,848a0 <_dtoa_r+0xb18>
   8488c:	a00b883a 	mov	r5,r20
   84890:	8009883a 	mov	r4,r16
   84894:	100d883a 	mov	r6,r2
   84898:	00877300 	call	87730 <__lshift>
   8489c:	1029883a 	mov	r20,r2
   848a0:	d8c00d17 	ldw	r3,52(sp)
   848a4:	1801401e 	bne	r3,zero,84da8 <_dtoa_r+0x1020>
   848a8:	d8800917 	ldw	r2,36(sp)
   848ac:	00815a0e 	bge	zero,r2,84e18 <_dtoa_r+0x1090>
   848b0:	d8c00c17 	ldw	r3,48(sp)
   848b4:	18006f1e 	bne	r3,zero,84a74 <_dtoa_r+0xcec>
   848b8:	b823883a 	mov	r17,r23
   848bc:	dc800917 	ldw	r18,36(sp)
   848c0:	00000206 	br	848cc <_dtoa_r+0xb44>
   848c4:	00870b80 	call	870b8 <__multadd>
   848c8:	1039883a 	mov	fp,r2
   848cc:	e009883a 	mov	r4,fp
   848d0:	a00b883a 	mov	r5,r20
   848d4:	0083b800 	call	83b80 <quorem>
   848d8:	10800c04 	addi	r2,r2,48
   848dc:	88800005 	stb	r2,0(r17)
   848e0:	8c400044 	addi	r17,r17,1
   848e4:	8dc7c83a 	sub	r3,r17,r23
   848e8:	8009883a 	mov	r4,r16
   848ec:	e00b883a 	mov	r5,fp
   848f0:	01800284 	movi	r6,10
   848f4:	000f883a 	mov	r7,zero
   848f8:	1cbff216 	blt	r3,r18,848c4 <_dtoa_r+0xb3c>
   848fc:	dd800917 	ldw	r22,36(sp)
   84900:	1007883a 	mov	r3,r2
   84904:	05823a0e 	bge	zero,r22,851f0 <_dtoa_r+0x1468>
   84908:	bdad883a 	add	r22,r23,r22
   8490c:	0023883a 	mov	r17,zero
   84910:	e00b883a 	mov	r5,fp
   84914:	01800044 	movi	r6,1
   84918:	8009883a 	mov	r4,r16
   8491c:	d8c01515 	stw	r3,84(sp)
   84920:	00877300 	call	87730 <__lshift>
   84924:	1009883a 	mov	r4,r2
   84928:	a00b883a 	mov	r5,r20
   8492c:	1039883a 	mov	fp,r2
   84930:	008788c0 	call	8788c <__mcmp>
   84934:	d8c01517 	ldw	r3,84(sp)
   84938:	0080d60e 	bge	zero,r2,84c94 <_dtoa_r+0xf0c>
   8493c:	b13fffc3 	ldbu	r4,-1(r22)
   84940:	b0ffff84 	addi	r3,r22,-2
   84944:	01800e44 	movi	r6,57
   84948:	00000306 	br	84958 <_dtoa_r+0xbd0>
   8494c:	19000003 	ldbu	r4,0(r3)
   84950:	102d883a 	mov	r22,r2
   84954:	18ffffc4 	addi	r3,r3,-1
   84958:	21403fcc 	andi	r5,r4,255
   8495c:	2940201c 	xori	r5,r5,128
   84960:	297fe004 	addi	r5,r5,-128
   84964:	b0bfffc4 	addi	r2,r22,-1
   84968:	2981a71e 	bne	r5,r6,85008 <_dtoa_r+0x1280>
   8496c:	b8bff71e 	bne	r23,r2,8494c <_dtoa_r+0xbc4>
   84970:	d8800617 	ldw	r2,24(sp)
   84974:	10800044 	addi	r2,r2,1
   84978:	d8800615 	stw	r2,24(sp)
   8497c:	00800c44 	movi	r2,49
   84980:	b8800005 	stb	r2,0(r23)
   84984:	8009883a 	mov	r4,r16
   84988:	a00b883a 	mov	r5,r20
   8498c:	00870900 	call	87090 <_Bfree>
   84990:	a83e9e26 	beq	r21,zero,8440c <_dtoa_r+0x684>
   84994:	88000426 	beq	r17,zero,849a8 <_dtoa_r+0xc20>
   84998:	8d400326 	beq	r17,r21,849a8 <_dtoa_r+0xc20>
   8499c:	8009883a 	mov	r4,r16
   849a0:	880b883a 	mov	r5,r17
   849a4:	00870900 	call	87090 <_Bfree>
   849a8:	8009883a 	mov	r4,r16
   849ac:	a80b883a 	mov	r5,r21
   849b0:	00870900 	call	87090 <_Bfree>
   849b4:	003e9506 	br	8440c <_dtoa_r+0x684>
   849b8:	00c00044 	movi	r3,1
   849bc:	d8c00d15 	stw	r3,52(sp)
   849c0:	003d9f06 	br	84040 <_dtoa_r+0x2b8>
   849c4:	d9000817 	ldw	r4,32(sp)
   849c8:	d8800617 	ldw	r2,24(sp)
   849cc:	d8000b15 	stw	zero,44(sp)
   849d0:	2089c83a 	sub	r4,r4,r2
   849d4:	0087c83a 	sub	r3,zero,r2
   849d8:	d9000815 	stw	r4,32(sp)
   849dc:	d8c00a15 	stw	r3,40(sp)
   849e0:	003da306 	br	84070 <_dtoa_r+0x2e8>
   849e4:	0529c83a 	sub	r20,zero,r20
   849e8:	dd000815 	stw	r20,32(sp)
   849ec:	d8000715 	stw	zero,28(sp)
   849f0:	003d9806 	br	84054 <_dtoa_r+0x2cc>
   849f4:	d9000617 	ldw	r4,24(sp)
   849f8:	008a5ec0 	call	8a5ec <__floatsidf>
   849fc:	1009883a 	mov	r4,r2
   84a00:	180b883a 	mov	r5,r3
   84a04:	980d883a 	mov	r6,r19
   84a08:	900f883a 	mov	r7,r18
   84a0c:	008a46c0 	call	8a46c <__nedf2>
   84a10:	103d7a26 	beq	r2,zero,83ffc <_dtoa_r+0x274>
   84a14:	d8800617 	ldw	r2,24(sp)
   84a18:	10bfffc4 	addi	r2,r2,-1
   84a1c:	d8800615 	stw	r2,24(sp)
   84a20:	003d7606 	br	83ffc <_dtoa_r+0x274>
   84a24:	dcc00a17 	ldw	r19,40(sp)
   84a28:	dc800817 	ldw	r18,32(sp)
   84a2c:	002b883a 	mov	r21,zero
   84a30:	003f4906 	br	84758 <_dtoa_r+0x9d0>
   84a34:	00800704 	movi	r2,28
   84a38:	d8c00817 	ldw	r3,32(sp)
   84a3c:	d9000717 	ldw	r4,28(sp)
   84a40:	90a5883a 	add	r18,r18,r2
   84a44:	1887883a 	add	r3,r3,r2
   84a48:	2089883a 	add	r4,r4,r2
   84a4c:	d8c00815 	stw	r3,32(sp)
   84a50:	d9000715 	stw	r4,28(sp)
   84a54:	003f8406 	br	84868 <_dtoa_r+0xae0>
   84a58:	d9c00317 	ldw	r7,12(sp)
   84a5c:	013efb84 	movi	r4,-1042
   84a60:	2509c83a 	sub	r4,r4,r20
   84a64:	3908983a 	sll	r4,r7,r4
   84a68:	003d3006 	br	83f2c <_dtoa_r+0x1a4>
   84a6c:	d8000d15 	stw	zero,52(sp)
   84a70:	003d7306 	br	84040 <_dtoa_r+0x2b8>
   84a74:	0480050e 	bge	zero,r18,84a8c <_dtoa_r+0xd04>
   84a78:	a80b883a 	mov	r5,r21
   84a7c:	8009883a 	mov	r4,r16
   84a80:	900d883a 	mov	r6,r18
   84a84:	00877300 	call	87730 <__lshift>
   84a88:	102b883a 	mov	r21,r2
   84a8c:	8801611e 	bne	r17,zero,85014 <_dtoa_r+0x128c>
   84a90:	a827883a 	mov	r19,r21
   84a94:	d8c00317 	ldw	r3,12(sp)
   84a98:	d9000917 	ldw	r4,36(sp)
   84a9c:	b8bfffc4 	addi	r2,r23,-1
   84aa0:	18c0004c 	andi	r3,r3,1
   84aa4:	1105883a 	add	r2,r2,r4
   84aa8:	b825883a 	mov	r18,r23
   84aac:	d8800515 	stw	r2,20(sp)
   84ab0:	a823883a 	mov	r17,r21
   84ab4:	d8c00315 	stw	r3,12(sp)
   84ab8:	ddc00715 	stw	r23,28(sp)
   84abc:	e009883a 	mov	r4,fp
   84ac0:	a00b883a 	mov	r5,r20
   84ac4:	0083b800 	call	83b80 <quorem>
   84ac8:	e009883a 	mov	r4,fp
   84acc:	880b883a 	mov	r5,r17
   84ad0:	102d883a 	mov	r22,r2
   84ad4:	008788c0 	call	8788c <__mcmp>
   84ad8:	980d883a 	mov	r6,r19
   84adc:	8009883a 	mov	r4,r16
   84ae0:	a00b883a 	mov	r5,r20
   84ae4:	102b883a 	mov	r21,r2
   84ae8:	00878e40 	call	878e4 <__mdiff>
   84aec:	100d883a 	mov	r6,r2
   84af0:	10800317 	ldw	r2,12(r2)
   84af4:	b5c00c04 	addi	r23,r22,48
   84af8:	10008c26 	beq	r2,zero,84d2c <_dtoa_r+0xfa4>
   84afc:	8009883a 	mov	r4,r16
   84b00:	300b883a 	mov	r5,r6
   84b04:	00870900 	call	87090 <_Bfree>
   84b08:	00800044 	movi	r2,1
   84b0c:	a8007116 	blt	r21,zero,84cd4 <_dtoa_r+0xf4c>
   84b10:	a800041e 	bne	r21,zero,84b24 <_dtoa_r+0xd9c>
   84b14:	d9c00417 	ldw	r7,16(sp)
   84b18:	3800021e 	bne	r7,zero,84b24 <_dtoa_r+0xd9c>
   84b1c:	d8c00317 	ldw	r3,12(sp)
   84b20:	18006c26 	beq	r3,zero,84cd4 <_dtoa_r+0xf4c>
   84b24:	00814c16 	blt	zero,r2,85058 <_dtoa_r+0x12d0>
   84b28:	d8c00517 	ldw	r3,20(sp)
   84b2c:	95400044 	addi	r21,r18,1
   84b30:	95c00005 	stb	r23,0(r18)
   84b34:	a82d883a 	mov	r22,r21
   84b38:	90c14d26 	beq	r18,r3,85070 <_dtoa_r+0x12e8>
   84b3c:	e00b883a 	mov	r5,fp
   84b40:	8009883a 	mov	r4,r16
   84b44:	01800284 	movi	r6,10
   84b48:	000f883a 	mov	r7,zero
   84b4c:	00870b80 	call	870b8 <__multadd>
   84b50:	1039883a 	mov	fp,r2
   84b54:	8cc08b26 	beq	r17,r19,84d84 <_dtoa_r+0xffc>
   84b58:	880b883a 	mov	r5,r17
   84b5c:	01800284 	movi	r6,10
   84b60:	000f883a 	mov	r7,zero
   84b64:	8009883a 	mov	r4,r16
   84b68:	00870b80 	call	870b8 <__multadd>
   84b6c:	980b883a 	mov	r5,r19
   84b70:	8009883a 	mov	r4,r16
   84b74:	01800284 	movi	r6,10
   84b78:	000f883a 	mov	r7,zero
   84b7c:	1023883a 	mov	r17,r2
   84b80:	00870b80 	call	870b8 <__multadd>
   84b84:	1027883a 	mov	r19,r2
   84b88:	a825883a 	mov	r18,r21
   84b8c:	003fcb06 	br	84abc <_dtoa_r+0xd34>
   84b90:	d9c00417 	ldw	r7,16(sp)
   84b94:	00800104 	movi	r2,4
   84b98:	3880e426 	beq	r7,r2,84f2c <_dtoa_r+0x11a4>
   84b9c:	00800144 	movi	r2,5
   84ba0:	38be3c1e 	bne	r7,r2,84494 <_dtoa_r+0x70c>
   84ba4:	00c00044 	movi	r3,1
   84ba8:	d8c00c15 	stw	r3,48(sp)
   84bac:	d9c02117 	ldw	r7,132(sp)
   84bb0:	d8800617 	ldw	r2,24(sp)
   84bb4:	388f883a 	add	r7,r7,r2
   84bb8:	3c800044 	addi	r18,r7,1
   84bbc:	d9c00e15 	stw	r7,56(sp)
   84bc0:	dc800915 	stw	r18,36(sp)
   84bc4:	04bd3e16 	blt	zero,r18,840c0 <_dtoa_r+0x338>
   84bc8:	80001115 	stw	zero,68(r16)
   84bcc:	000b883a 	mov	r5,zero
   84bd0:	003d4606 	br	840ec <_dtoa_r+0x364>
   84bd4:	d8c00317 	ldw	r3,12(sp)
   84bd8:	183f0e1e 	bne	r3,zero,84814 <_dtoa_r+0xa8c>
   84bdc:	00c00434 	movhi	r3,16
   84be0:	18ffffc4 	addi	r3,r3,-1
   84be4:	88c6703a 	and	r3,r17,r3
   84be8:	183f0a1e 	bne	r3,zero,84814 <_dtoa_r+0xa8c>
   84bec:	8c5ffc2c 	andhi	r17,r17,32752
   84bf0:	883f0826 	beq	r17,zero,84814 <_dtoa_r+0xa8c>
   84bf4:	d9000817 	ldw	r4,32(sp)
   84bf8:	d9c00717 	ldw	r7,28(sp)
   84bfc:	1023883a 	mov	r17,r2
   84c00:	2089883a 	add	r4,r4,r2
   84c04:	388f883a 	add	r7,r7,r2
   84c08:	d9000815 	stw	r4,32(sp)
   84c0c:	d9c00715 	stw	r7,28(sp)
   84c10:	003f0106 	br	84818 <_dtoa_r+0xa90>
   84c14:	9005883a 	mov	r2,r18
   84c18:	003ed306 	br	84768 <_dtoa_r+0x9e0>
   84c1c:	d8800917 	ldw	r2,36(sp)
   84c20:	00be3516 	blt	zero,r2,844f8 <_dtoa_r+0x770>
   84c24:	1000b61e 	bne	r2,zero,84f00 <_dtoa_r+0x1178>
   84c28:	9009883a 	mov	r4,r18
   84c2c:	980b883a 	mov	r5,r19
   84c30:	000d883a 	mov	r6,zero
   84c34:	01d00534 	movhi	r7,16404
   84c38:	0089f780 	call	89f78 <__muldf3>
   84c3c:	d9800317 	ldw	r6,12(sp)
   84c40:	1009883a 	mov	r4,r2
   84c44:	180b883a 	mov	r5,r3
   84c48:	880f883a 	mov	r7,r17
   84c4c:	008a52c0 	call	8a52c <__gedf2>
   84c50:	0029883a 	mov	r20,zero
   84c54:	002b883a 	mov	r21,zero
   84c58:	10007e16 	blt	r2,zero,84e54 <_dtoa_r+0x10cc>
   84c5c:	d8802117 	ldw	r2,132(sp)
   84c60:	b82d883a 	mov	r22,r23
   84c64:	0084303a 	nor	r2,zero,r2
   84c68:	d8800615 	stw	r2,24(sp)
   84c6c:	8009883a 	mov	r4,r16
   84c70:	a00b883a 	mov	r5,r20
   84c74:	00870900 	call	87090 <_Bfree>
   84c78:	a83f4b1e 	bne	r21,zero,849a8 <_dtoa_r+0xc20>
   84c7c:	003de306 	br	8440c <_dtoa_r+0x684>
   84c80:	e00b883a 	mov	r5,fp
   84c84:	8009883a 	mov	r4,r16
   84c88:	00876040 	call	87604 <__pow5mult>
   84c8c:	1039883a 	mov	fp,r2
   84c90:	003ed206 	br	847dc <_dtoa_r+0xa54>
   84c94:	1000021e 	bne	r2,zero,84ca0 <_dtoa_r+0xf18>
   84c98:	18c0004c 	andi	r3,r3,1
   84c9c:	183f271e 	bne	r3,zero,8493c <_dtoa_r+0xbb4>
   84ca0:	01000c04 	movi	r4,48
   84ca4:	00000106 	br	84cac <_dtoa_r+0xf24>
   84ca8:	102d883a 	mov	r22,r2
   84cac:	b0bfffc4 	addi	r2,r22,-1
   84cb0:	10c00007 	ldb	r3,0(r2)
   84cb4:	193ffc26 	beq	r3,r4,84ca8 <_dtoa_r+0xf20>
   84cb8:	003f3206 	br	84984 <_dtoa_r+0xbfc>
   84cbc:	d8c00f17 	ldw	r3,60(sp)
   84cc0:	18015026 	beq	r3,zero,85204 <_dtoa_r+0x147c>
   84cc4:	10810cc4 	addi	r2,r2,1075
   84cc8:	dcc00a17 	ldw	r19,40(sp)
   84ccc:	dc800817 	ldw	r18,32(sp)
   84cd0:	003e9706 	br	84730 <_dtoa_r+0x9a8>
   84cd4:	b807883a 	mov	r3,r23
   84cd8:	182b883a 	mov	r21,r3
   84cdc:	ddc00717 	ldw	r23,28(sp)
   84ce0:	00800e0e 	bge	zero,r2,84d1c <_dtoa_r+0xf94>
   84ce4:	e00b883a 	mov	r5,fp
   84ce8:	01800044 	movi	r6,1
   84cec:	8009883a 	mov	r4,r16
   84cf0:	d8c01515 	stw	r3,84(sp)
   84cf4:	00877300 	call	87730 <__lshift>
   84cf8:	1009883a 	mov	r4,r2
   84cfc:	a00b883a 	mov	r5,r20
   84d00:	1039883a 	mov	fp,r2
   84d04:	008788c0 	call	8788c <__mcmp>
   84d08:	d8c01517 	ldw	r3,84(sp)
   84d0c:	0081880e 	bge	zero,r2,85330 <_dtoa_r+0x15a8>
   84d10:	00800e44 	movi	r2,57
   84d14:	b0c00c44 	addi	r3,r22,49
   84d18:	a8816326 	beq	r21,r2,852a8 <_dtoa_r+0x1520>
   84d1c:	90c00005 	stb	r3,0(r18)
   84d20:	95800044 	addi	r22,r18,1
   84d24:	982b883a 	mov	r21,r19
   84d28:	003f1606 	br	84984 <_dtoa_r+0xbfc>
   84d2c:	300b883a 	mov	r5,r6
   84d30:	e009883a 	mov	r4,fp
   84d34:	d9801515 	stw	r6,84(sp)
   84d38:	008788c0 	call	8788c <__mcmp>
   84d3c:	d9801517 	ldw	r6,84(sp)
   84d40:	8009883a 	mov	r4,r16
   84d44:	d8801515 	stw	r2,84(sp)
   84d48:	300b883a 	mov	r5,r6
   84d4c:	00870900 	call	87090 <_Bfree>
   84d50:	d8801517 	ldw	r2,84(sp)
   84d54:	103f6d1e 	bne	r2,zero,84b0c <_dtoa_r+0xd84>
   84d58:	d9c00417 	ldw	r7,16(sp)
   84d5c:	383f6b1e 	bne	r7,zero,84b0c <_dtoa_r+0xd84>
   84d60:	d8c00317 	ldw	r3,12(sp)
   84d64:	183f691e 	bne	r3,zero,84b0c <_dtoa_r+0xd84>
   84d68:	b807883a 	mov	r3,r23
   84d6c:	00800e44 	movi	r2,57
   84d70:	ddc00717 	ldw	r23,28(sp)
   84d74:	18814c26 	beq	r3,r2,852a8 <_dtoa_r+0x1520>
   84d78:	057fe80e 	bge	zero,r21,84d1c <_dtoa_r+0xf94>
   84d7c:	b0c00c44 	addi	r3,r22,49
   84d80:	003fe606 	br	84d1c <_dtoa_r+0xf94>
   84d84:	880b883a 	mov	r5,r17
   84d88:	8009883a 	mov	r4,r16
   84d8c:	01800284 	movi	r6,10
   84d90:	000f883a 	mov	r7,zero
   84d94:	00870b80 	call	870b8 <__multadd>
   84d98:	1023883a 	mov	r17,r2
   84d9c:	1027883a 	mov	r19,r2
   84da0:	a825883a 	mov	r18,r21
   84da4:	003f4506 	br	84abc <_dtoa_r+0xd34>
   84da8:	e009883a 	mov	r4,fp
   84dac:	a00b883a 	mov	r5,r20
   84db0:	008788c0 	call	8788c <__mcmp>
   84db4:	103ebc0e 	bge	r2,zero,848a8 <_dtoa_r+0xb20>
   84db8:	e00b883a 	mov	r5,fp
   84dbc:	8009883a 	mov	r4,r16
   84dc0:	01800284 	movi	r6,10
   84dc4:	000f883a 	mov	r7,zero
   84dc8:	00870b80 	call	870b8 <__multadd>
   84dcc:	1039883a 	mov	fp,r2
   84dd0:	d8800617 	ldw	r2,24(sp)
   84dd4:	d8c00c17 	ldw	r3,48(sp)
   84dd8:	10bfffc4 	addi	r2,r2,-1
   84ddc:	d8800615 	stw	r2,24(sp)
   84de0:	1801571e 	bne	r3,zero,85340 <_dtoa_r+0x15b8>
   84de4:	d9c00e17 	ldw	r7,56(sp)
   84de8:	d9c00915 	stw	r7,36(sp)
   84dec:	003eae06 	br	848a8 <_dtoa_r+0xb20>
   84df0:	a0800417 	ldw	r2,16(r20)
   84df4:	10800104 	addi	r2,r2,4
   84df8:	1085883a 	add	r2,r2,r2
   84dfc:	1085883a 	add	r2,r2,r2
   84e00:	a085883a 	add	r2,r20,r2
   84e04:	11000017 	ldw	r4,0(r2)
   84e08:	00872d00 	call	872d0 <__hi0bits>
   84e0c:	00c00804 	movi	r3,32
   84e10:	1885c83a 	sub	r2,r3,r2
   84e14:	003e8306 	br	84824 <_dtoa_r+0xa9c>
   84e18:	d9c00417 	ldw	r7,16(sp)
   84e1c:	00800084 	movi	r2,2
   84e20:	11fea30e 	bge	r2,r7,848b0 <_dtoa_r+0xb28>
   84e24:	d8800917 	ldw	r2,36(sp)
   84e28:	103f8c1e 	bne	r2,zero,84c5c <_dtoa_r+0xed4>
   84e2c:	a00b883a 	mov	r5,r20
   84e30:	8009883a 	mov	r4,r16
   84e34:	01800144 	movi	r6,5
   84e38:	000f883a 	mov	r7,zero
   84e3c:	00870b80 	call	870b8 <__multadd>
   84e40:	e009883a 	mov	r4,fp
   84e44:	100b883a 	mov	r5,r2
   84e48:	1029883a 	mov	r20,r2
   84e4c:	008788c0 	call	8788c <__mcmp>
   84e50:	00bf820e 	bge	zero,r2,84c5c <_dtoa_r+0xed4>
   84e54:	00800c44 	movi	r2,49
   84e58:	b8800005 	stb	r2,0(r23)
   84e5c:	d8800617 	ldw	r2,24(sp)
   84e60:	bd800044 	addi	r22,r23,1
   84e64:	10800044 	addi	r2,r2,1
   84e68:	d8800615 	stw	r2,24(sp)
   84e6c:	003f7f06 	br	84c6c <_dtoa_r+0xee4>
   84e70:	dc000417 	ldw	r16,16(sp)
   84e74:	003d6506 	br	8440c <_dtoa_r+0x684>
   84e78:	9009883a 	mov	r4,r18
   84e7c:	008a5ec0 	call	8a5ec <__floatsidf>
   84e80:	1009883a 	mov	r4,r2
   84e84:	180b883a 	mov	r5,r3
   84e88:	980d883a 	mov	r6,r19
   84e8c:	a00f883a 	mov	r7,r20
   84e90:	0089f780 	call	89f78 <__muldf3>
   84e94:	1009883a 	mov	r4,r2
   84e98:	180b883a 	mov	r5,r3
   84e9c:	000d883a 	mov	r6,zero
   84ea0:	01d00734 	movhi	r7,16412
   84ea4:	0089ec40 	call	89ec4 <__adddf3>
   84ea8:	057f3034 	movhi	r21,64704
   84eac:	1025883a 	mov	r18,r2
   84eb0:	1d6b883a 	add	r21,r3,r21
   84eb4:	9809883a 	mov	r4,r19
   84eb8:	a00b883a 	mov	r5,r20
   84ebc:	000d883a 	mov	r6,zero
   84ec0:	01d00534 	movhi	r7,16404
   84ec4:	0089f180 	call	89f18 <__subdf3>
   84ec8:	1009883a 	mov	r4,r2
   84ecc:	180b883a 	mov	r5,r3
   84ed0:	900d883a 	mov	r6,r18
   84ed4:	a80f883a 	mov	r7,r21
   84ed8:	1027883a 	mov	r19,r2
   84edc:	1829883a 	mov	r20,r3
   84ee0:	008a4c80 	call	8a4c8 <__gtdf2>
   84ee4:	00806616 	blt	zero,r2,85080 <_dtoa_r+0x12f8>
   84ee8:	a9e0003c 	xorhi	r7,r21,32768
   84eec:	9809883a 	mov	r4,r19
   84ef0:	a00b883a 	mov	r5,r20
   84ef4:	900d883a 	mov	r6,r18
   84ef8:	008a5900 	call	8a590 <__ltdf2>
   84efc:	103d710e 	bge	r2,zero,844c4 <_dtoa_r+0x73c>
   84f00:	0029883a 	mov	r20,zero
   84f04:	002b883a 	mov	r21,zero
   84f08:	003f5406 	br	84c5c <_dtoa_r+0xed4>
   84f0c:	d9800a17 	ldw	r6,40(sp)
   84f10:	e00b883a 	mov	r5,fp
   84f14:	8009883a 	mov	r4,r16
   84f18:	00876040 	call	87604 <__pow5mult>
   84f1c:	1039883a 	mov	fp,r2
   84f20:	003e2e06 	br	847dc <_dtoa_r+0xa54>
   84f24:	d8000c15 	stw	zero,48(sp)
   84f28:	003f2006 	br	84bac <_dtoa_r+0xe24>
   84f2c:	00800044 	movi	r2,1
   84f30:	d8800c15 	stw	r2,48(sp)
   84f34:	003c5d06 	br	840ac <_dtoa_r+0x324>
   84f38:	d8c00a17 	ldw	r3,40(sp)
   84f3c:	d9000b17 	ldw	r4,44(sp)
   84f40:	dcc00a15 	stw	r19,40(sp)
   84f44:	98c5c83a 	sub	r2,r19,r3
   84f48:	2089883a 	add	r4,r4,r2
   84f4c:	d9000b15 	stw	r4,44(sp)
   84f50:	0027883a 	mov	r19,zero
   84f54:	003df206 	br	84720 <_dtoa_r+0x998>
   84f58:	d9000317 	ldw	r4,12(sp)
   84f5c:	8829883a 	mov	r20,r17
   84f60:	04800084 	movi	r18,2
   84f64:	d9001015 	stw	r4,64(sp)
   84f68:	003c8106 	br	84170 <_dtoa_r+0x3e8>
   84f6c:	04800044 	movi	r18,1
   84f70:	dc800e15 	stw	r18,56(sp)
   84f74:	dc800915 	stw	r18,36(sp)
   84f78:	dc802115 	stw	r18,132(sp)
   84f7c:	003f1206 	br	84bc8 <_dtoa_r+0xe40>
   84f80:	d8800617 	ldw	r2,24(sp)
   84f84:	00abc83a 	sub	r21,zero,r2
   84f88:	a800a426 	beq	r21,zero,8521c <_dtoa_r+0x1494>
   84f8c:	a88003cc 	andi	r2,r21,15
   84f90:	100490fa 	slli	r2,r2,3
   84f94:	00c00274 	movhi	r3,9
   84f98:	18f8a304 	addi	r3,r3,-7540
   84f9c:	d9000317 	ldw	r4,12(sp)
   84fa0:	1885883a 	add	r2,r3,r2
   84fa4:	11800017 	ldw	r6,0(r2)
   84fa8:	11c00117 	ldw	r7,4(r2)
   84fac:	a82bd13a 	srai	r21,r21,4
   84fb0:	880b883a 	mov	r5,r17
   84fb4:	0089f780 	call	89f78 <__muldf3>
   84fb8:	1027883a 	mov	r19,r2
   84fbc:	1829883a 	mov	r20,r3
   84fc0:	a800e826 	beq	r21,zero,85364 <_dtoa_r+0x15dc>
   84fc4:	05800274 	movhi	r22,9
   84fc8:	b5b89904 	addi	r22,r22,-7580
   84fcc:	04800084 	movi	r18,2
   84fd0:	a980004c 	andi	r6,r21,1
   84fd4:	1009883a 	mov	r4,r2
   84fd8:	a82bd07a 	srai	r21,r21,1
   84fdc:	180b883a 	mov	r5,r3
   84fe0:	30000426 	beq	r6,zero,84ff4 <_dtoa_r+0x126c>
   84fe4:	b1800017 	ldw	r6,0(r22)
   84fe8:	b1c00117 	ldw	r7,4(r22)
   84fec:	94800044 	addi	r18,r18,1
   84ff0:	0089f780 	call	89f78 <__muldf3>
   84ff4:	b5800204 	addi	r22,r22,8
   84ff8:	a83ff51e 	bne	r21,zero,84fd0 <_dtoa_r+0x1248>
   84ffc:	1027883a 	mov	r19,r2
   85000:	1829883a 	mov	r20,r3
   85004:	003c7306 	br	841d4 <_dtoa_r+0x44c>
   85008:	21000044 	addi	r4,r4,1
   8500c:	11000005 	stb	r4,0(r2)
   85010:	003e5c06 	br	84984 <_dtoa_r+0xbfc>
   85014:	a9400117 	ldw	r5,4(r21)
   85018:	8009883a 	mov	r4,r16
   8501c:	0086fe80 	call	86fe8 <_Balloc>
   85020:	a9800417 	ldw	r6,16(r21)
   85024:	11000304 	addi	r4,r2,12
   85028:	a9400304 	addi	r5,r21,12
   8502c:	31800084 	addi	r6,r6,2
   85030:	318d883a 	add	r6,r6,r6
   85034:	318d883a 	add	r6,r6,r6
   85038:	1023883a 	mov	r17,r2
   8503c:	00818980 	call	81898 <memcpy>
   85040:	8009883a 	mov	r4,r16
   85044:	880b883a 	mov	r5,r17
   85048:	01800044 	movi	r6,1
   8504c:	00877300 	call	87730 <__lshift>
   85050:	1027883a 	mov	r19,r2
   85054:	003e8f06 	br	84a94 <_dtoa_r+0xd0c>
   85058:	b807883a 	mov	r3,r23
   8505c:	00800e44 	movi	r2,57
   85060:	ddc00717 	ldw	r23,28(sp)
   85064:	18809026 	beq	r3,r2,852a8 <_dtoa_r+0x1520>
   85068:	18c00044 	addi	r3,r3,1
   8506c:	003f2b06 	br	84d1c <_dtoa_r+0xf94>
   85070:	b807883a 	mov	r3,r23
   85074:	982b883a 	mov	r21,r19
   85078:	ddc00717 	ldw	r23,28(sp)
   8507c:	003e2406 	br	84910 <_dtoa_r+0xb88>
   85080:	0029883a 	mov	r20,zero
   85084:	002b883a 	mov	r21,zero
   85088:	003f7206 	br	84e54 <_dtoa_r+0x10cc>
   8508c:	593fffc4 	addi	r4,r11,-1
   85090:	200490fa 	slli	r2,r4,3
   85094:	00c00274 	movhi	r3,9
   85098:	18f8a304 	addi	r3,r3,-7540
   8509c:	d9001015 	stw	r4,64(sp)
   850a0:	1885883a 	add	r2,r3,r2
   850a4:	11000017 	ldw	r4,0(r2)
   850a8:	11400117 	ldw	r5,4(r2)
   850ac:	900d883a 	mov	r6,r18
   850b0:	a80f883a 	mov	r7,r21
   850b4:	dac01615 	stw	r11,88(sp)
   850b8:	0089f780 	call	89f78 <__muldf3>
   850bc:	a00b883a 	mov	r5,r20
   850c0:	9809883a 	mov	r4,r19
   850c4:	d8c01215 	stw	r3,72(sp)
   850c8:	d8801115 	stw	r2,68(sp)
   850cc:	008a6c00 	call	8a6c0 <__fixdfsi>
   850d0:	1009883a 	mov	r4,r2
   850d4:	1025883a 	mov	r18,r2
   850d8:	008a5ec0 	call	8a5ec <__floatsidf>
   850dc:	9809883a 	mov	r4,r19
   850e0:	a00b883a 	mov	r5,r20
   850e4:	100d883a 	mov	r6,r2
   850e8:	180f883a 	mov	r7,r3
   850ec:	94800c04 	addi	r18,r18,48
   850f0:	0089f180 	call	89f18 <__subdf3>
   850f4:	bc800005 	stb	r18,0(r23)
   850f8:	dac01617 	ldw	r11,88(sp)
   850fc:	102b883a 	mov	r21,r2
   85100:	00800044 	movi	r2,1
   85104:	bd800044 	addi	r22,r23,1
   85108:	1815883a 	mov	r10,r3
   8510c:	58802226 	beq	r11,r2,85198 <_dtoa_r+0x1410>
   85110:	bad7883a 	add	r11,r23,r11
   85114:	dc001415 	stw	r16,80(sp)
   85118:	a805883a 	mov	r2,r21
   8511c:	b027883a 	mov	r19,r22
   85120:	5821883a 	mov	r16,r11
   85124:	882b883a 	mov	r21,r17
   85128:	000d883a 	mov	r6,zero
   8512c:	01d00934 	movhi	r7,16420
   85130:	1009883a 	mov	r4,r2
   85134:	180b883a 	mov	r5,r3
   85138:	0089f780 	call	89f78 <__muldf3>
   8513c:	180b883a 	mov	r5,r3
   85140:	1009883a 	mov	r4,r2
   85144:	1829883a 	mov	r20,r3
   85148:	1023883a 	mov	r17,r2
   8514c:	008a6c00 	call	8a6c0 <__fixdfsi>
   85150:	1009883a 	mov	r4,r2
   85154:	1025883a 	mov	r18,r2
   85158:	008a5ec0 	call	8a5ec <__floatsidf>
   8515c:	8809883a 	mov	r4,r17
   85160:	a00b883a 	mov	r5,r20
   85164:	100d883a 	mov	r6,r2
